ARM GAS  /var/folders/hl/qgbwny5j0fd895c2c41bk3tw0000gp/T//ccmKeONX.s 			page 1


   1              		.cpu cortex-m7
   2              		.eabi_attribute 28, 1
   3              		.eabi_attribute 20, 1
   4              		.eabi_attribute 21, 1
   5              		.eabi_attribute 23, 3
   6              		.eabi_attribute 24, 1
   7              		.eabi_attribute 25, 1
   8              		.eabi_attribute 26, 1
   9              		.eabi_attribute 30, 2
  10              		.eabi_attribute 34, 1
  11              		.eabi_attribute 18, 4
  12              		.file	"touchTest.cpp"
  13              		.text
  14              	.Ltext0:
  15              		.cfi_sections	.debug_frame
  16              		.section	.text._ZN5daisy9DaisySeedD2Ev,"axG",%progbits,_ZN5daisy9DaisySeedD5Ev,comdat
  17              		.align	1
  18              		.p2align 2,,3
  19              		.weak	_ZN5daisy9DaisySeedD2Ev
  20              		.arch armv7e-m
  21              		.syntax unified
  22              		.thumb
  23              		.thumb_func
  24              		.fpu fpv5-d16
  26              	_ZN5daisy9DaisySeedD2Ev:
  27              	.LVL0:
  28              	.LFB2529:
  29              		.file 1 "../../libDaisy//src/daisy_seed.h"
   1:../../libDaisy//src/daisy_seed.h **** #pragma once
   2:../../libDaisy//src/daisy_seed.h **** #ifndef DSY_SEED_H
   3:../../libDaisy//src/daisy_seed.h **** #define DSY_SEED_H
   4:../../libDaisy//src/daisy_seed.h **** 
   5:../../libDaisy//src/daisy_seed.h **** #include "daisy.h"
   6:../../libDaisy//src/daisy_seed.h **** 
   7:../../libDaisy//src/daisy_seed.h **** //Uncomment this out if you're still using the rev2 hardware
   8:../../libDaisy//src/daisy_seed.h **** //#define SEED_REV2
   9:../../libDaisy//src/daisy_seed.h **** 
  10:../../libDaisy//src/daisy_seed.h **** namespace daisy
  11:../../libDaisy//src/daisy_seed.h **** {
  12:../../libDaisy//src/daisy_seed.h **** /**
  13:../../libDaisy//src/daisy_seed.h ****    @brief This is the higher-level interface for the Daisy board. \n 
  14:../../libDaisy//src/daisy_seed.h ****     All basic peripheral configuration/initialization is setup here. \n
  15:../../libDaisy//src/daisy_seed.h **** 
  16:../../libDaisy//src/daisy_seed.h ****    @ingroup boards
  17:../../libDaisy//src/daisy_seed.h **** */
  18:../../libDaisy//src/daisy_seed.h **** class DaisySeed
  19:../../libDaisy//src/daisy_seed.h **** {
  20:../../libDaisy//src/daisy_seed.h ****   public:
  21:../../libDaisy//src/daisy_seed.h ****     DaisySeed() {}
  22:../../libDaisy//src/daisy_seed.h ****     ~DaisySeed() {}
  30              		.loc 1 22 5 view -0
  31              		.cfi_startproc
  32              		@ args = 0, pretend = 0, frame = 0
  33              		@ frame_needed = 0, uses_anonymous_args = 0
  34              		@ link register save eliminated.
  35              	.LBB455:
  36              	.LBI455:
ARM GAS  /var/folders/hl/qgbwny5j0fd895c2c41bk3tw0000gp/T//ccmKeONX.s 			page 2


  37              		.file 2 "../../libDaisy//src/sys/system.h"
   1:../../libDaisy//src/sys/system.h **** #ifndef DSY_SYSTEM_H
   2:../../libDaisy//src/sys/system.h **** #define DSY_SYSTEM_H
   3:../../libDaisy//src/sys/system.h **** 
   4:../../libDaisy//src/sys/system.h **** #ifndef UNIT_TEST // for unit tests, a dummy implementation is provided below
   5:../../libDaisy//src/sys/system.h **** 
   6:../../libDaisy//src/sys/system.h **** #include <cstdint>
   7:../../libDaisy//src/sys/system.h **** #include "per/tim.h"
   8:../../libDaisy//src/sys/system.h **** 
   9:../../libDaisy//src/sys/system.h **** namespace daisy
  10:../../libDaisy//src/sys/system.h **** {
  11:../../libDaisy//src/sys/system.h **** /** A handle for interacting with the Core System. 
  12:../../libDaisy//src/sys/system.h ****  ** This includes the Clock tree, MPU, global DMA initialization,
  13:../../libDaisy//src/sys/system.h ****  ** cache handling, and any other necessary global initiailzation
  14:../../libDaisy//src/sys/system.h ****  **
  15:../../libDaisy//src/sys/system.h ****  ** @author shensley
  16:../../libDaisy//src/sys/system.h ****  ** @ingroup system
  17:../../libDaisy//src/sys/system.h ****  */
  18:../../libDaisy//src/sys/system.h **** class System
  19:../../libDaisy//src/sys/system.h **** {
  20:../../libDaisy//src/sys/system.h ****   public:
  21:../../libDaisy//src/sys/system.h ****     /** Contains settings for initializing the System */
  22:../../libDaisy//src/sys/system.h ****     struct Config
  23:../../libDaisy//src/sys/system.h ****     {
  24:../../libDaisy//src/sys/system.h ****         /** Specifies the system clock frequency that feeds APB/AHB clocks, etc. */
  25:../../libDaisy//src/sys/system.h ****         enum class SysClkFreq
  26:../../libDaisy//src/sys/system.h ****         {
  27:../../libDaisy//src/sys/system.h ****             FREQ_400MHZ,
  28:../../libDaisy//src/sys/system.h ****             FREQ_480MHZ,
  29:../../libDaisy//src/sys/system.h ****         };
  30:../../libDaisy//src/sys/system.h **** 
  31:../../libDaisy//src/sys/system.h ****         /** Method to call on the struct to set to defaults
  32:../../libDaisy//src/sys/system.h ****          ** CPU Freq set to 400MHz
  33:../../libDaisy//src/sys/system.h ****          ** Cache Enabled 
  34:../../libDaisy//src/sys/system.h ****          ** */
  35:../../libDaisy//src/sys/system.h ****         void Defaults()
  36:../../libDaisy//src/sys/system.h ****         {
  37:../../libDaisy//src/sys/system.h ****             cpu_freq    = SysClkFreq::FREQ_400MHZ;
  38:../../libDaisy//src/sys/system.h ****             use_dcache  = true;
  39:../../libDaisy//src/sys/system.h ****             use_icache  = true;
  40:../../libDaisy//src/sys/system.h ****             skip_clocks = false;
  41:../../libDaisy//src/sys/system.h ****         }
  42:../../libDaisy//src/sys/system.h **** 
  43:../../libDaisy//src/sys/system.h ****         /** Method to call on the struct to set to boost mode:
  44:../../libDaisy//src/sys/system.h ****          ** CPU Freq set to 480MHz
  45:../../libDaisy//src/sys/system.h ****          ** Cache Enabled 
  46:../../libDaisy//src/sys/system.h ****          ** */
  47:../../libDaisy//src/sys/system.h ****         void Boost()
  48:../../libDaisy//src/sys/system.h ****         {
  49:../../libDaisy//src/sys/system.h ****             cpu_freq    = SysClkFreq::FREQ_480MHZ;
  50:../../libDaisy//src/sys/system.h ****             use_dcache  = true;
  51:../../libDaisy//src/sys/system.h ****             use_icache  = true;
  52:../../libDaisy//src/sys/system.h ****             skip_clocks = false;
  53:../../libDaisy//src/sys/system.h ****         }
  54:../../libDaisy//src/sys/system.h **** 
  55:../../libDaisy//src/sys/system.h ****         SysClkFreq cpu_freq;
  56:../../libDaisy//src/sys/system.h ****         bool       use_dcache;
ARM GAS  /var/folders/hl/qgbwny5j0fd895c2c41bk3tw0000gp/T//ccmKeONX.s 			page 3


  57:../../libDaisy//src/sys/system.h ****         bool       use_icache;
  58:../../libDaisy//src/sys/system.h ****         bool       skip_clocks;
  59:../../libDaisy//src/sys/system.h ****     };
  60:../../libDaisy//src/sys/system.h **** 
  61:../../libDaisy//src/sys/system.h ****     /** Describes the different regions of memory available to the Daisy
  62:../../libDaisy//src/sys/system.h ****      * 
  63:../../libDaisy//src/sys/system.h ****      */
  64:../../libDaisy//src/sys/system.h ****     enum MemoryRegion
  65:../../libDaisy//src/sys/system.h ****     {
  66:../../libDaisy//src/sys/system.h ****         INTERNAL_FLASH = 0,
  67:../../libDaisy//src/sys/system.h ****         ITCMRAM,
  68:../../libDaisy//src/sys/system.h ****         DTCMRAM,
  69:../../libDaisy//src/sys/system.h ****         SRAM_D1,
  70:../../libDaisy//src/sys/system.h ****         SRAM_D2,
  71:../../libDaisy//src/sys/system.h ****         SRAM_D3,
  72:../../libDaisy//src/sys/system.h ****         SDRAM,
  73:../../libDaisy//src/sys/system.h ****         QSPI,
  74:../../libDaisy//src/sys/system.h ****         INVALID_ADDRESS,
  75:../../libDaisy//src/sys/system.h ****     };
  76:../../libDaisy//src/sys/system.h **** 
  77:../../libDaisy//src/sys/system.h ****     System() {}
  78:../../libDaisy//src/sys/system.h ****     ~System() {}
  38              		.loc 2 78 5 view .LVU1
  39              		.loc 2 78 5 is_stmt 0 view .LVU2
  40              	.LBE455:
  41              	.LBB456:
  42              	.LBI456:
  43              		.file 3 "../../libDaisy//src/hid/usb.h"
   1:../../libDaisy//src/hid/usb.h **** #pragma once
   2:../../libDaisy//src/hid/usb.h **** #ifndef DSY_HID_USB_H
   3:../../libDaisy//src/hid/usb.h **** #define DSY_HID_USB_H
   4:../../libDaisy//src/hid/usb.h **** #include <stdint.h>
   5:../../libDaisy//src/hid/usb.h **** #include <stdlib.h>
   6:../../libDaisy//src/hid/usb.h **** 
   7:../../libDaisy//src/hid/usb.h **** namespace daisy
   8:../../libDaisy//src/hid/usb.h **** /** @addtogroup human_interface
   9:../../libDaisy//src/hid/usb.h ****     @{
  10:../../libDaisy//src/hid/usb.h **** */
  11:../../libDaisy//src/hid/usb.h **** 
  12:../../libDaisy//src/hid/usb.h **** {
  13:../../libDaisy//src/hid/usb.h **** /** 
  14:../../libDaisy//src/hid/usb.h ****     @brief Interface for initializing and using the USB Peripherals on the daisy
  15:../../libDaisy//src/hid/usb.h ****     @author Stephen Hensley
  16:../../libDaisy//src/hid/usb.h ****     @date December 2019
  17:../../libDaisy//src/hid/usb.h **** */
  18:../../libDaisy//src/hid/usb.h **** class UsbHandle
  19:../../libDaisy//src/hid/usb.h **** {
  20:../../libDaisy//src/hid/usb.h ****   public:
  21:../../libDaisy//src/hid/usb.h ****     /** Return values for USBHandle Functions */
  22:../../libDaisy//src/hid/usb.h ****     enum class Result
  23:../../libDaisy//src/hid/usb.h ****     {
  24:../../libDaisy//src/hid/usb.h ****         OK,
  25:../../libDaisy//src/hid/usb.h ****         ERR,
  26:../../libDaisy//src/hid/usb.h ****     };
  27:../../libDaisy//src/hid/usb.h **** 
  28:../../libDaisy//src/hid/usb.h ****     /** Specified which of the two USB Peripherals to initialize. */
  29:../../libDaisy//src/hid/usb.h ****     enum UsbPeriph
ARM GAS  /var/folders/hl/qgbwny5j0fd895c2c41bk3tw0000gp/T//ccmKeONX.s 			page 4


  30:../../libDaisy//src/hid/usb.h ****     {
  31:../../libDaisy//src/hid/usb.h ****         FS_INTERNAL, /**< Internal pin */
  32:../../libDaisy//src/hid/usb.h ****         FS_EXTERNAL, /**< FS External D+ pin is Pin 38 (GPIO32). FS External D- pin is Pin 37 (GPIO
  33:../../libDaisy//src/hid/usb.h ****         FS_BOTH,     /**< Both */
  34:../../libDaisy//src/hid/usb.h ****     };
  35:../../libDaisy//src/hid/usb.h **** 
  36:../../libDaisy//src/hid/usb.h **** 
  37:../../libDaisy//src/hid/usb.h ****     /** Function called upon reception of a buffer */
  38:../../libDaisy//src/hid/usb.h ****     typedef void (*ReceiveCallback)(uint8_t* buff, uint32_t* len);
  39:../../libDaisy//src/hid/usb.h **** 
  40:../../libDaisy//src/hid/usb.h ****     UsbHandle() {}
  41:../../libDaisy//src/hid/usb.h **** 
  42:../../libDaisy//src/hid/usb.h ****     ~UsbHandle() {}
  44              		.loc 3 42 5 is_stmt 1 view .LVU3
  45              		.loc 3 42 5 is_stmt 0 view .LVU4
  46              	.LBE456:
  47              	.LBB457:
  48              	.LBI457:
  49              		.file 4 "../../libDaisy//src/per/adc.h"
   1:../../libDaisy//src/per/adc.h **** #pragma once
   2:../../libDaisy//src/per/adc.h **** #ifndef DSY_ADC_H
   3:../../libDaisy//src/per/adc.h **** #define DSY_ADC_H /**< Macro */
   4:../../libDaisy//src/per/adc.h **** #include <stdint.h>
   5:../../libDaisy//src/per/adc.h **** #include <stdlib.h>
   6:../../libDaisy//src/per/adc.h **** #include "daisy_core.h"
   7:../../libDaisy//src/per/adc.h **** #include "per/gpio.h"
   8:../../libDaisy//src/per/adc.h **** 
   9:../../libDaisy//src/per/adc.h **** #define DSY_ADC_MAX_CHANNELS 16 /**< Maximum number of ADC channels */
  10:../../libDaisy//src/per/adc.h **** 
  11:../../libDaisy//src/per/adc.h **** namespace daisy
  12:../../libDaisy//src/per/adc.h **** {
  13:../../libDaisy//src/per/adc.h **** /** @addtogroup per_analog
  14:../../libDaisy//src/per/adc.h ****     @{
  15:../../libDaisy//src/per/adc.h **** */
  16:../../libDaisy//src/per/adc.h **** 
  17:../../libDaisy//src/per/adc.h **** /* While there may not be many configuration options here,
  18:../../libDaisy//src/per/adc.h **** using a struct like this allows us to add more configuration
  19:../../libDaisy//src/per/adc.h **** later without breaking existing functionality.
  20:../../libDaisy//src/per/adc.h **** */
  21:../../libDaisy//src/per/adc.h **** 
  22:../../libDaisy//src/per/adc.h **** /** @brief   Configuration Structure for an ADC Channel 
  23:../../libDaisy//src/per/adc.h ****  *  @details This can be used to configure a a single input, 
  24:../../libDaisy//src/per/adc.h ****  *           or a multiplexed input, allowing up to 8 inputs on 
  25:../../libDaisy//src/per/adc.h ****  *           one channel.
  26:../../libDaisy//src/per/adc.h ****  *  @note    Sharing data lines to multiple muxes _is_ possible, but
  27:../../libDaisy//src/per/adc.h ****  *           each channel sharing data lines must be set to the maximum
  28:../../libDaisy//src/per/adc.h ****  *           number of channels, even if some multiplexers have fewer
  29:../../libDaisy//src/per/adc.h ****  *           inputs connected.
  30:../../libDaisy//src/per/adc.h **** */
  31:../../libDaisy//src/per/adc.h **** struct AdcChannelConfig
  32:../../libDaisy//src/per/adc.h **** {
  33:../../libDaisy//src/per/adc.h ****     /** Which pin to use for multiplexing */
  34:../../libDaisy//src/per/adc.h ****     enum MuxPin
  35:../../libDaisy//src/per/adc.h ****     {
  36:../../libDaisy//src/per/adc.h ****         MUX_SEL_0,    /**< & */
  37:../../libDaisy//src/per/adc.h ****         MUX_SEL_1,    /**< & */
  38:../../libDaisy//src/per/adc.h ****         MUX_SEL_2,    /**< & */
ARM GAS  /var/folders/hl/qgbwny5j0fd895c2c41bk3tw0000gp/T//ccmKeONX.s 			page 5


  39:../../libDaisy//src/per/adc.h ****         MUX_SEL_LAST, /**< & */
  40:../../libDaisy//src/per/adc.h ****     };
  41:../../libDaisy//src/per/adc.h **** 
  42:../../libDaisy//src/per/adc.h ****     /** Initializes a single ADC pin as an ADC. 
  43:../../libDaisy//src/per/adc.h ****     \param pin Pin to init.
  44:../../libDaisy//src/per/adc.h ****      */
  45:../../libDaisy//src/per/adc.h ****     void InitSingle(dsy_gpio_pin pin);
  46:../../libDaisy//src/per/adc.h **** 
  47:../../libDaisy//src/per/adc.h ****     /** 
  48:../../libDaisy//src/per/adc.h ****     Initializes a single ADC pin as a Multiplexed ADC.
  49:../../libDaisy//src/per/adc.h ****     Requires a CD405X Multiplexer connected to the pin.
  50:../../libDaisy//src/per/adc.h ****     You only need to supply the mux pins that are required,
  51:../../libDaisy//src/per/adc.h ****     e.g. a 4052 mux would only require mux_0 and mux_1.
  52:../../libDaisy//src/per/adc.h ****     Internal Callbacks handle the pin addressing.
  53:../../libDaisy//src/per/adc.h ****     \param mux_channels must be 1-8
  54:../../libDaisy//src/per/adc.h ****     \param mux_0 First mux pin
  55:../../libDaisy//src/per/adc.h ****     \param mux_1 Second mux pin
  56:../../libDaisy//src/per/adc.h ****     \param mux_2 Third mux pin
  57:../../libDaisy//src/per/adc.h ****     \param adc_pin &
  58:../../libDaisy//src/per/adc.h ****     */
  59:../../libDaisy//src/per/adc.h ****     void InitMux(dsy_gpio_pin adc_pin,
  60:../../libDaisy//src/per/adc.h ****                  size_t       mux_channels,
  61:../../libDaisy//src/per/adc.h ****                  dsy_gpio_pin mux_0,
  62:../../libDaisy//src/per/adc.h ****                  dsy_gpio_pin mux_1 = {DSY_GPIOX, 0},
  63:../../libDaisy//src/per/adc.h ****                  dsy_gpio_pin mux_2 = {DSY_GPIOX, 0});
  64:../../libDaisy//src/per/adc.h **** 
  65:../../libDaisy//src/per/adc.h ****     dsy_gpio pin_;                   /**< & */
  66:../../libDaisy//src/per/adc.h ****     dsy_gpio mux_pin_[MUX_SEL_LAST]; /**< & */
  67:../../libDaisy//src/per/adc.h ****     uint8_t  mux_channels_;          /**< & */
  68:../../libDaisy//src/per/adc.h **** };
  69:../../libDaisy//src/per/adc.h **** 
  70:../../libDaisy//src/per/adc.h **** /**
  71:../../libDaisy//src/per/adc.h ****    @brief Handler for analog to digital conversion
  72:../../libDaisy//src/per/adc.h **** */
  73:../../libDaisy//src/per/adc.h **** class AdcHandle
  74:../../libDaisy//src/per/adc.h **** {
  75:../../libDaisy//src/per/adc.h ****   public:
  76:../../libDaisy//src/per/adc.h ****     /** Supported oversampling amounts */
  77:../../libDaisy//src/per/adc.h ****     enum OverSampling
  78:../../libDaisy//src/per/adc.h ****     {
  79:../../libDaisy//src/per/adc.h ****         OVS_NONE, /**< & */
  80:../../libDaisy//src/per/adc.h ****         OVS_4,    /**< & */
  81:../../libDaisy//src/per/adc.h ****         OVS_8,    /**< & */
  82:../../libDaisy//src/per/adc.h ****         OVS_16,   /**< & */
  83:../../libDaisy//src/per/adc.h ****         OVS_32,   /**< & */
  84:../../libDaisy//src/per/adc.h ****         OVS_64,   /**< & */
  85:../../libDaisy//src/per/adc.h ****         OVS_128,  /**< & */
  86:../../libDaisy//src/per/adc.h ****         OVS_256,  /**< & */
  87:../../libDaisy//src/per/adc.h ****         OVS_512,  /**< & */
  88:../../libDaisy//src/per/adc.h ****         OVS_1024, /**< & */
  89:../../libDaisy//src/per/adc.h ****         OVS_LAST, /**< & */
  90:../../libDaisy//src/per/adc.h ****     };
  91:../../libDaisy//src/per/adc.h **** 
  92:../../libDaisy//src/per/adc.h ****     AdcHandle() {}
  93:../../libDaisy//src/per/adc.h ****     ~AdcHandle() {}
  50              		.loc 4 93 5 is_stmt 1 view .LVU5
  51              		.loc 4 93 5 is_stmt 0 view .LVU6
ARM GAS  /var/folders/hl/qgbwny5j0fd895c2c41bk3tw0000gp/T//ccmKeONX.s 			page 6


  52              	.LBE457:
  53              	.LBB458:
  54              	.LBI458:
  55              		.file 5 "../../libDaisy//src/hid/audio.h"
   1:../../libDaisy//src/hid/audio.h **** #ifndef DSY_AUDIO_H
   2:../../libDaisy//src/hid/audio.h **** #define DSY_AUDIO_H /**< & */
   3:../../libDaisy//src/hid/audio.h **** 
   4:../../libDaisy//src/hid/audio.h **** #include "per/sai.h"
   5:../../libDaisy//src/hid/audio.h **** 
   6:../../libDaisy//src/hid/audio.h **** namespace daisy
   7:../../libDaisy//src/hid/audio.h **** {
   8:../../libDaisy//src/hid/audio.h **** /** @brief Audio Engine Handle
   9:../../libDaisy//src/hid/audio.h ****  *  @ingroup audio 
  10:../../libDaisy//src/hid/audio.h ****  *  @details This class allows for higher level access to an audio engine.
  11:../../libDaisy//src/hid/audio.h ****  *           If you're using a SOM like the DaisySeed or DaisyPatchSM (or any 
  12:../../libDaisy//src/hid/audio.h ****  *            board that includes one of those objects) then the intialization
  13:../../libDaisy//src/hid/audio.h ****  *            is already taken  care of.
  14:../../libDaisy//src/hid/audio.h ****  *           If you're setting up your own custom hardware, or need to make changes
  15:../../libDaisy//src/hid/audio.h ****  *           you will have to take the following steps:
  16:../../libDaisy//src/hid/audio.h ****  *             1. Create and Initialize an SaiHandle or two depending on your requirements
  17:../../libDaisy//src/hid/audio.h ****  *             2. Initialize the Audio Handle with the desired settings and the Initialized SaiHand
  18:../../libDaisy//src/hid/audio.h ****  *             3. If the connected codec requires special configuration or initialization, do so
  19:../../libDaisy//src/hid/audio.h ****  *             4. Write a callback method using either the AudioCallback or the InterleavingAudioCa
  20:../../libDaisy//src/hid/audio.h ****  *             5. Start the Audio using one of the StartAudio function
  21:../../libDaisy//src/hid/audio.h ****  */
  22:../../libDaisy//src/hid/audio.h **** class AudioHandle
  23:../../libDaisy//src/hid/audio.h **** {
  24:../../libDaisy//src/hid/audio.h ****   public:
  25:../../libDaisy//src/hid/audio.h ****     /** Manually configurable details about the Audio Engine */
  26:../../libDaisy//src/hid/audio.h ****     /** TODO: Figure out how to get samplerate in here. */
  27:../../libDaisy//src/hid/audio.h ****     struct Config
  28:../../libDaisy//src/hid/audio.h ****     {
  29:../../libDaisy//src/hid/audio.h ****         /** number of samples to process per callback */
  30:../../libDaisy//src/hid/audio.h ****         size_t blocksize;
  31:../../libDaisy//src/hid/audio.h **** 
  32:../../libDaisy//src/hid/audio.h ****         /**< Sample rate of audio */
  33:../../libDaisy//src/hid/audio.h ****         SaiHandle::Config::SampleRate samplerate;
  34:../../libDaisy//src/hid/audio.h **** 
  35:../../libDaisy//src/hid/audio.h ****         /** factor for adjustment before and after callback for hardware that may have extra headro
  36:../../libDaisy//src/hid/audio.h ****         float postgain;
  37:../../libDaisy//src/hid/audio.h **** 
  38:../../libDaisy//src/hid/audio.h ****         /** factor for additional one-sided compensation to audio path for hardware that may
  39:../../libDaisy//src/hid/audio.h ****          *  have unequal input/output ranges
  40:../../libDaisy//src/hid/audio.h ****          */
  41:../../libDaisy//src/hid/audio.h ****         float output_compensation;
  42:../../libDaisy//src/hid/audio.h **** 
  43:../../libDaisy//src/hid/audio.h ****         /** Sets default values for config struct */
  44:../../libDaisy//src/hid/audio.h ****         Config()
  45:../../libDaisy//src/hid/audio.h ****         : blocksize(48),
  46:../../libDaisy//src/hid/audio.h ****           samplerate(SaiHandle::Config::SampleRate::SAI_48KHZ),
  47:../../libDaisy//src/hid/audio.h ****           postgain(1.f),
  48:../../libDaisy//src/hid/audio.h ****           output_compensation(1.f)
  49:../../libDaisy//src/hid/audio.h ****         {
  50:../../libDaisy//src/hid/audio.h ****         }
  51:../../libDaisy//src/hid/audio.h ****     };
  52:../../libDaisy//src/hid/audio.h **** 
  53:../../libDaisy//src/hid/audio.h ****     enum class Result
ARM GAS  /var/folders/hl/qgbwny5j0fd895c2c41bk3tw0000gp/T//ccmKeONX.s 			page 7


  54:../../libDaisy//src/hid/audio.h ****     {
  55:../../libDaisy//src/hid/audio.h ****         OK,
  56:../../libDaisy//src/hid/audio.h ****         ERR,
  57:../../libDaisy//src/hid/audio.h ****     };
  58:../../libDaisy//src/hid/audio.h **** 
  59:../../libDaisy//src/hid/audio.h ****     /** Non-Interleaving input buffer
  60:../../libDaisy//src/hid/audio.h ****      * Buffer arranged by float[chn][sample] 
  61:../../libDaisy//src/hid/audio.h ****      * const so that the user can't modify the input
  62:../../libDaisy//src/hid/audio.h ****      */
  63:../../libDaisy//src/hid/audio.h ****     typedef const float* const* InputBuffer;
  64:../../libDaisy//src/hid/audio.h **** 
  65:../../libDaisy//src/hid/audio.h ****     /** Non-Interleaving output buffer
  66:../../libDaisy//src/hid/audio.h ****      * Arranged by float[chn][sample] 
  67:../../libDaisy//src/hid/audio.h ****      */
  68:../../libDaisy//src/hid/audio.h ****     typedef float** OutputBuffer;
  69:../../libDaisy//src/hid/audio.h **** 
  70:../../libDaisy//src/hid/audio.h ****     /** Type for a Non-Interleaving audio callback 
  71:../../libDaisy//src/hid/audio.h ****      * Non-Interleaving audio callbacks in daisy will be of this type
  72:../../libDaisy//src/hid/audio.h ****      */
  73:../../libDaisy//src/hid/audio.h ****     typedef void (*AudioCallback)(InputBuffer  in,
  74:../../libDaisy//src/hid/audio.h ****                                   OutputBuffer out,
  75:../../libDaisy//src/hid/audio.h ****                                   size_t       size);
  76:../../libDaisy//src/hid/audio.h **** 
  77:../../libDaisy//src/hid/audio.h ****     /** Interleaving Input buffer
  78:../../libDaisy//src/hid/audio.h ****      ** audio is prepared as { L0, R0, L1, R1, . . . LN, RN }]
  79:../../libDaisy//src/hid/audio.h ****      ** this is const, as the user shouldn't modify it
  80:../../libDaisy//src/hid/audio.h ****     */
  81:../../libDaisy//src/hid/audio.h ****     typedef const float* InterleavingInputBuffer;
  82:../../libDaisy//src/hid/audio.h **** 
  83:../../libDaisy//src/hid/audio.h ****     /** Interleaving Output buffer 
  84:../../libDaisy//src/hid/audio.h ****      ** audio is prepared as { L0, R0, L1, R1, . . . LN, RN }
  85:../../libDaisy//src/hid/audio.h ****     */
  86:../../libDaisy//src/hid/audio.h ****     typedef float* InterleavingOutputBuffer;
  87:../../libDaisy//src/hid/audio.h **** 
  88:../../libDaisy//src/hid/audio.h ****     /** Interleaving Audio Callback 
  89:../../libDaisy//src/hid/audio.h ****      * Interleaving audio callbacks in daisy must be of this type
  90:../../libDaisy//src/hid/audio.h ****      */
  91:../../libDaisy//src/hid/audio.h ****     typedef void (*InterleavingAudioCallback)(InterleavingInputBuffer  in,
  92:../../libDaisy//src/hid/audio.h ****                                               InterleavingOutputBuffer out,
  93:../../libDaisy//src/hid/audio.h ****                                               size_t                   size);
  94:../../libDaisy//src/hid/audio.h **** 
  95:../../libDaisy//src/hid/audio.h ****     AudioHandle() : pimpl_(nullptr) {}
  96:../../libDaisy//src/hid/audio.h ****     ~AudioHandle() {}
  56              		.loc 5 96 5 is_stmt 1 view .LVU7
  57              		.loc 5 96 5 is_stmt 0 view .LVU8
  58              	.LBE458:
  59              		.loc 1 22 19 view .LVU9
  60 0000 7047     		bx	lr
  61              		.cfi_endproc
  62              	.LFE2529:
  64              		.weak	_ZN5daisy9DaisySeedD1Ev
  65              		.thumb_set _ZN5daisy9DaisySeedD1Ev,_ZN5daisy9DaisySeedD2Ev
  66 0002 00BF     		.section	.text._ZN7daisysp10OscillatorD2Ev,"axG",%progbits,_ZN7daisysp10OscillatorD5Ev,comdat
  67              		.align	1
  68              		.p2align 2,,3
  69              		.weak	_ZN7daisysp10OscillatorD2Ev
  70              		.syntax unified
ARM GAS  /var/folders/hl/qgbwny5j0fd895c2c41bk3tw0000gp/T//ccmKeONX.s 			page 8


  71              		.thumb
  72              		.thumb_func
  73              		.fpu fpv5-d16
  75              	_ZN7daisysp10OscillatorD2Ev:
  76              	.LVL1:
  77              	.LFB4219:
  78              		.file 6 "../../DaisySP//Source/Synthesis/oscillator.h"
   1:../../DaisySP//Source/Synthesis/oscillator.h **** #pragma once
   2:../../DaisySP//Source/Synthesis/oscillator.h **** #ifndef DSY_OSCILLATOR_H
   3:../../DaisySP//Source/Synthesis/oscillator.h **** #define DSY_OSCILLATOR_H
   4:../../DaisySP//Source/Synthesis/oscillator.h **** #include <stdint.h>
   5:../../DaisySP//Source/Synthesis/oscillator.h **** #include "Utility/dsp.h"
   6:../../DaisySP//Source/Synthesis/oscillator.h **** #ifdef __cplusplus
   7:../../DaisySP//Source/Synthesis/oscillator.h **** 
   8:../../DaisySP//Source/Synthesis/oscillator.h **** namespace daisysp
   9:../../DaisySP//Source/Synthesis/oscillator.h **** {
  10:../../DaisySP//Source/Synthesis/oscillator.h **** /** Synthesis of several waveforms, including polyBLEP bandlimited waveforms.
  11:../../DaisySP//Source/Synthesis/oscillator.h **** */
  12:../../DaisySP//Source/Synthesis/oscillator.h **** class Oscillator
  13:../../DaisySP//Source/Synthesis/oscillator.h **** {
  14:../../DaisySP//Source/Synthesis/oscillator.h ****   public:
  15:../../DaisySP//Source/Synthesis/oscillator.h ****     Oscillator() {}
  16:../../DaisySP//Source/Synthesis/oscillator.h ****     ~Oscillator() {}
  79              		.loc 6 16 5 is_stmt 1 view -0
  80              		.cfi_startproc
  81              		@ args = 0, pretend = 0, frame = 0
  82              		@ frame_needed = 0, uses_anonymous_args = 0
  83              		@ link register save eliminated.
  84              		.loc 6 16 20 is_stmt 0 view .LVU11
  85 0000 7047     		bx	lr
  86              		.cfi_endproc
  87              	.LFE4219:
  89              		.weak	_ZN7daisysp10OscillatorD1Ev
  90              		.thumb_set _ZN7daisysp10OscillatorD1Ev,_ZN7daisysp10OscillatorD2Ev
  91 0002 00BF     		.section	.text._ZN5daisy11OledDisplayINS_13SSD130xDriverILj128ELj64ENS_24SSD130x4WireSpiTransportE
  92              		.align	1
  93              		.p2align 2,,3
  94              		.weak	_ZN5daisy11OledDisplayINS_13SSD130xDriverILj128ELj64ENS_24SSD130x4WireSpiTransportEEEE4FillE
  95              		.syntax unified
  96              		.thumb
  97              		.thumb_func
  98              		.fpu fpv5-d16
 100              	_ZN5daisy11OledDisplayINS_13SSD130xDriverILj128ELj64ENS_24SSD130x4WireSpiTransportEEEE4FillEb:
 101              	.LVL2:
 102              	.LFB5151:
 103              		.file 7 "../../libDaisy//src/hid/disp/oled_display.h"
   1:../../libDaisy//src/hid/disp/oled_display.h **** #pragma once
   2:../../libDaisy//src/hid/disp/oled_display.h **** #ifndef DSY_OLED_DISPLAY_H
   3:../../libDaisy//src/hid/disp/oled_display.h **** #define DSY_OLED_DISPLAY_H /**< Macro */
   4:../../libDaisy//src/hid/disp/oled_display.h **** 
   5:../../libDaisy//src/hid/disp/oled_display.h **** #include "display.h"
   6:../../libDaisy//src/hid/disp/oled_display.h **** 
   7:../../libDaisy//src/hid/disp/oled_display.h **** namespace daisy
   8:../../libDaisy//src/hid/disp/oled_display.h **** {
   9:../../libDaisy//src/hid/disp/oled_display.h **** /** 
  10:../../libDaisy//src/hid/disp/oled_display.h ****  * This class is for drawing to a monochrome OLED display. 
  11:../../libDaisy//src/hid/disp/oled_display.h ****  * @ingroup device
ARM GAS  /var/folders/hl/qgbwny5j0fd895c2c41bk3tw0000gp/T//ccmKeONX.s 			page 9


  12:../../libDaisy//src/hid/disp/oled_display.h **** */
  13:../../libDaisy//src/hid/disp/oled_display.h **** template <typename DisplayDriver>
  14:../../libDaisy//src/hid/disp/oled_display.h **** class OledDisplay : public OneBitGraphicsDisplayImpl<OledDisplay<DisplayDriver>>
  15:../../libDaisy//src/hid/disp/oled_display.h **** {
  16:../../libDaisy//src/hid/disp/oled_display.h ****   public:
  17:../../libDaisy//src/hid/disp/oled_display.h ****     OledDisplay() {}
  18:../../libDaisy//src/hid/disp/oled_display.h ****     virtual ~OledDisplay() {}
  19:../../libDaisy//src/hid/disp/oled_display.h **** 
  20:../../libDaisy//src/hid/disp/oled_display.h ****     struct Config
  21:../../libDaisy//src/hid/disp/oled_display.h ****     {
  22:../../libDaisy//src/hid/disp/oled_display.h ****         typename DisplayDriver::Config driver_config;
  23:../../libDaisy//src/hid/disp/oled_display.h ****     };
  24:../../libDaisy//src/hid/disp/oled_display.h **** 
  25:../../libDaisy//src/hid/disp/oled_display.h ****     void Init(Config config) { driver_.Init(config.driver_config); }
  26:../../libDaisy//src/hid/disp/oled_display.h **** 
  27:../../libDaisy//src/hid/disp/oled_display.h ****     uint16_t Height() const override { return driver_.Height(); }
  28:../../libDaisy//src/hid/disp/oled_display.h ****     uint16_t Width() const override { return driver_.Width(); }
  29:../../libDaisy//src/hid/disp/oled_display.h **** 
  30:../../libDaisy//src/hid/disp/oled_display.h ****     /** 
  31:../../libDaisy//src/hid/disp/oled_display.h ****     Fills the entire display with either on/off.
  32:../../libDaisy//src/hid/disp/oled_display.h ****     \param on Sets on or off.
  33:../../libDaisy//src/hid/disp/oled_display.h ****     */
  34:../../libDaisy//src/hid/disp/oled_display.h ****     void Fill(bool on) override { driver_.Fill(on); }
 104              		.loc 7 34 10 is_stmt 1 view -0
 105              		.cfi_startproc
 106              		@ args = 0, pretend = 0, frame = 0
 107              		@ frame_needed = 0, uses_anonymous_args = 0
 108              		@ link register save eliminated.
 109              	.LBB459:
 110              	.LBI459:
 111              		.file 8 "../../libDaisy//src/dev/oled_ssd130x.h"
   1:../../libDaisy//src/dev/oled_ssd130x.h **** #pragma once
   2:../../libDaisy//src/dev/oled_ssd130x.h **** #ifndef SA_OLED_SSD130X_H
   3:../../libDaisy//src/dev/oled_ssd130x.h **** #define SA_OLED_SSD130X_H /**< & */
   4:../../libDaisy//src/dev/oled_ssd130x.h **** 
   5:../../libDaisy//src/dev/oled_ssd130x.h **** #include "per/i2c.h"
   6:../../libDaisy//src/dev/oled_ssd130x.h **** #include "per/spi.h"
   7:../../libDaisy//src/dev/oled_ssd130x.h **** #include "per/gpio.h"
   8:../../libDaisy//src/dev/oled_ssd130x.h **** #include "sys/system.h"
   9:../../libDaisy//src/dev/oled_ssd130x.h **** 
  10:../../libDaisy//src/dev/oled_ssd130x.h **** namespace daisy
  11:../../libDaisy//src/dev/oled_ssd130x.h **** {
  12:../../libDaisy//src/dev/oled_ssd130x.h **** /**
  13:../../libDaisy//src/dev/oled_ssd130x.h ****  * I2C Transport for SSD1306 / SSD1309 OLED display devices
  14:../../libDaisy//src/dev/oled_ssd130x.h ****  */
  15:../../libDaisy//src/dev/oled_ssd130x.h **** class SSD130xI2CTransport
  16:../../libDaisy//src/dev/oled_ssd130x.h **** {
  17:../../libDaisy//src/dev/oled_ssd130x.h ****   public:
  18:../../libDaisy//src/dev/oled_ssd130x.h ****     struct Config
  19:../../libDaisy//src/dev/oled_ssd130x.h ****     {
  20:../../libDaisy//src/dev/oled_ssd130x.h ****         Config()
  21:../../libDaisy//src/dev/oled_ssd130x.h ****         {
  22:../../libDaisy//src/dev/oled_ssd130x.h ****             // Intialize using defaults
  23:../../libDaisy//src/dev/oled_ssd130x.h ****             Defaults();
  24:../../libDaisy//src/dev/oled_ssd130x.h ****         }
  25:../../libDaisy//src/dev/oled_ssd130x.h ****         I2CHandle::Config i2c_config;
  26:../../libDaisy//src/dev/oled_ssd130x.h ****         uint8_t           i2c_address;
ARM GAS  /var/folders/hl/qgbwny5j0fd895c2c41bk3tw0000gp/T//ccmKeONX.s 			page 10


  27:../../libDaisy//src/dev/oled_ssd130x.h ****         void              Defaults()
  28:../../libDaisy//src/dev/oled_ssd130x.h ****         {
  29:../../libDaisy//src/dev/oled_ssd130x.h ****             i2c_config.periph         = I2CHandle::Config::Peripheral::I2C_1;
  30:../../libDaisy//src/dev/oled_ssd130x.h ****             i2c_config.speed          = I2CHandle::Config::Speed::I2C_1MHZ;
  31:../../libDaisy//src/dev/oled_ssd130x.h ****             i2c_config.mode           = I2CHandle::Config::Mode::I2C_MASTER;
  32:../../libDaisy//src/dev/oled_ssd130x.h ****             i2c_config.pin_config.scl = {DSY_GPIOB, 8};
  33:../../libDaisy//src/dev/oled_ssd130x.h ****             i2c_config.pin_config.sda = {DSY_GPIOB, 9};
  34:../../libDaisy//src/dev/oled_ssd130x.h ****             i2c_address               = 0x3C;
  35:../../libDaisy//src/dev/oled_ssd130x.h ****         }
  36:../../libDaisy//src/dev/oled_ssd130x.h ****     };
  37:../../libDaisy//src/dev/oled_ssd130x.h ****     void Init(const Config& config)
  38:../../libDaisy//src/dev/oled_ssd130x.h ****     {
  39:../../libDaisy//src/dev/oled_ssd130x.h ****         i2c_address_ = config.i2c_address;
  40:../../libDaisy//src/dev/oled_ssd130x.h ****         i2c_.Init(config.i2c_config);
  41:../../libDaisy//src/dev/oled_ssd130x.h ****     };
  42:../../libDaisy//src/dev/oled_ssd130x.h ****     void SendCommand(uint8_t cmd)
  43:../../libDaisy//src/dev/oled_ssd130x.h ****     {
  44:../../libDaisy//src/dev/oled_ssd130x.h ****         uint8_t buf[2] = {0X00, cmd};
  45:../../libDaisy//src/dev/oled_ssd130x.h ****         i2c_.TransmitBlocking(i2c_address_, buf, 2, 1000);
  46:../../libDaisy//src/dev/oled_ssd130x.h ****     };
  47:../../libDaisy//src/dev/oled_ssd130x.h **** 
  48:../../libDaisy//src/dev/oled_ssd130x.h ****     void SendData(uint8_t* buff, size_t size)
  49:../../libDaisy//src/dev/oled_ssd130x.h ****     {
  50:../../libDaisy//src/dev/oled_ssd130x.h ****         for(size_t i = 0; i < size; i++)
  51:../../libDaisy//src/dev/oled_ssd130x.h ****         {
  52:../../libDaisy//src/dev/oled_ssd130x.h ****             uint8_t buf[2] = {0X40, buff[i]};
  53:../../libDaisy//src/dev/oled_ssd130x.h ****             i2c_.TransmitBlocking(i2c_address_, buf, 2, 1000);
  54:../../libDaisy//src/dev/oled_ssd130x.h ****         }
  55:../../libDaisy//src/dev/oled_ssd130x.h ****     };
  56:../../libDaisy//src/dev/oled_ssd130x.h **** 
  57:../../libDaisy//src/dev/oled_ssd130x.h ****   private:
  58:../../libDaisy//src/dev/oled_ssd130x.h ****     daisy::I2CHandle i2c_;
  59:../../libDaisy//src/dev/oled_ssd130x.h ****     uint8_t          i2c_address_;
  60:../../libDaisy//src/dev/oled_ssd130x.h **** };
  61:../../libDaisy//src/dev/oled_ssd130x.h **** 
  62:../../libDaisy//src/dev/oled_ssd130x.h **** /**
  63:../../libDaisy//src/dev/oled_ssd130x.h ****  * 4 Wire SPI Transport for SSD1306 / SSD1309 OLED display devices
  64:../../libDaisy//src/dev/oled_ssd130x.h ****  */
  65:../../libDaisy//src/dev/oled_ssd130x.h **** class SSD130x4WireSpiTransport
  66:../../libDaisy//src/dev/oled_ssd130x.h **** {
  67:../../libDaisy//src/dev/oled_ssd130x.h ****   public:
  68:../../libDaisy//src/dev/oled_ssd130x.h ****     struct Config
  69:../../libDaisy//src/dev/oled_ssd130x.h ****     {
  70:../../libDaisy//src/dev/oled_ssd130x.h ****         Config()
  71:../../libDaisy//src/dev/oled_ssd130x.h ****         {
  72:../../libDaisy//src/dev/oled_ssd130x.h ****             // Initialize using defaults
  73:../../libDaisy//src/dev/oled_ssd130x.h ****             Defaults();
  74:../../libDaisy//src/dev/oled_ssd130x.h ****         }
  75:../../libDaisy//src/dev/oled_ssd130x.h ****         SpiHandle::Config spi_config;
  76:../../libDaisy//src/dev/oled_ssd130x.h ****         struct
  77:../../libDaisy//src/dev/oled_ssd130x.h ****         {
  78:../../libDaisy//src/dev/oled_ssd130x.h ****             dsy_gpio_pin dc;    /**< & */
  79:../../libDaisy//src/dev/oled_ssd130x.h ****             dsy_gpio_pin reset; /**< & */
  80:../../libDaisy//src/dev/oled_ssd130x.h ****         } pin_config;
  81:../../libDaisy//src/dev/oled_ssd130x.h ****         void Defaults()
  82:../../libDaisy//src/dev/oled_ssd130x.h ****         {
  83:../../libDaisy//src/dev/oled_ssd130x.h ****             // SPI peripheral config
ARM GAS  /var/folders/hl/qgbwny5j0fd895c2c41bk3tw0000gp/T//ccmKeONX.s 			page 11


  84:../../libDaisy//src/dev/oled_ssd130x.h ****             spi_config.periph = SpiHandle::Config::Peripheral::SPI_1;
  85:../../libDaisy//src/dev/oled_ssd130x.h ****             spi_config.mode   = SpiHandle::Config::Mode::MASTER;
  86:../../libDaisy//src/dev/oled_ssd130x.h ****             spi_config.direction
  87:../../libDaisy//src/dev/oled_ssd130x.h ****                 = SpiHandle::Config::Direction::TWO_LINES_TX_ONLY;
  88:../../libDaisy//src/dev/oled_ssd130x.h ****             spi_config.datasize       = 8;
  89:../../libDaisy//src/dev/oled_ssd130x.h ****             spi_config.clock_polarity = SpiHandle::Config::ClockPolarity::LOW;
  90:../../libDaisy//src/dev/oled_ssd130x.h ****             spi_config.clock_phase    = SpiHandle::Config::ClockPhase::ONE_EDGE;
  91:../../libDaisy//src/dev/oled_ssd130x.h ****             spi_config.nss            = SpiHandle::Config::NSS::HARD_OUTPUT;
  92:../../libDaisy//src/dev/oled_ssd130x.h ****             spi_config.baud_prescaler = SpiHandle::Config::BaudPrescaler::PS_8;
  93:../../libDaisy//src/dev/oled_ssd130x.h ****             // SPI pin config
  94:../../libDaisy//src/dev/oled_ssd130x.h ****             spi_config.pin_config.sclk = {DSY_GPIOG, 11};
  95:../../libDaisy//src/dev/oled_ssd130x.h ****             spi_config.pin_config.miso = {DSY_GPIOX, 0};
  96:../../libDaisy//src/dev/oled_ssd130x.h ****             spi_config.pin_config.mosi = {DSY_GPIOB, 5};
  97:../../libDaisy//src/dev/oled_ssd130x.h ****             spi_config.pin_config.nss  = {DSY_GPIOG, 10};
  98:../../libDaisy//src/dev/oled_ssd130x.h ****             // SSD130x control pin config
  99:../../libDaisy//src/dev/oled_ssd130x.h ****             pin_config.dc    = {DSY_GPIOB, 4};
 100:../../libDaisy//src/dev/oled_ssd130x.h ****             pin_config.reset = {DSY_GPIOB, 15};
 101:../../libDaisy//src/dev/oled_ssd130x.h ****         }
 102:../../libDaisy//src/dev/oled_ssd130x.h ****     };
 103:../../libDaisy//src/dev/oled_ssd130x.h ****     void Init(const Config& config)
 104:../../libDaisy//src/dev/oled_ssd130x.h ****     {
 105:../../libDaisy//src/dev/oled_ssd130x.h ****         // Initialize both GPIO
 106:../../libDaisy//src/dev/oled_ssd130x.h ****         pin_dc_.mode = DSY_GPIO_MODE_OUTPUT_PP;
 107:../../libDaisy//src/dev/oled_ssd130x.h ****         pin_dc_.pin  = config.pin_config.dc;
 108:../../libDaisy//src/dev/oled_ssd130x.h ****         dsy_gpio_init(&pin_dc_);
 109:../../libDaisy//src/dev/oled_ssd130x.h ****         pin_reset_.mode = DSY_GPIO_MODE_OUTPUT_PP;
 110:../../libDaisy//src/dev/oled_ssd130x.h ****         pin_reset_.pin  = config.pin_config.reset;
 111:../../libDaisy//src/dev/oled_ssd130x.h ****         dsy_gpio_init(&pin_reset_);
 112:../../libDaisy//src/dev/oled_ssd130x.h **** 
 113:../../libDaisy//src/dev/oled_ssd130x.h ****         // Initialize SPI
 114:../../libDaisy//src/dev/oled_ssd130x.h ****         spi_.Init(config.spi_config);
 115:../../libDaisy//src/dev/oled_ssd130x.h **** 
 116:../../libDaisy//src/dev/oled_ssd130x.h ****         // Reset and Configure OLED.
 117:../../libDaisy//src/dev/oled_ssd130x.h ****         dsy_gpio_write(&pin_reset_, 0);
 118:../../libDaisy//src/dev/oled_ssd130x.h ****         System::Delay(10);
 119:../../libDaisy//src/dev/oled_ssd130x.h ****         dsy_gpio_write(&pin_reset_, 1);
 120:../../libDaisy//src/dev/oled_ssd130x.h ****         System::Delay(10);
 121:../../libDaisy//src/dev/oled_ssd130x.h ****     };
 122:../../libDaisy//src/dev/oled_ssd130x.h ****     void SendCommand(uint8_t cmd)
 123:../../libDaisy//src/dev/oled_ssd130x.h ****     {
 124:../../libDaisy//src/dev/oled_ssd130x.h ****         dsy_gpio_write(&pin_dc_, 0);
 125:../../libDaisy//src/dev/oled_ssd130x.h ****         spi_.BlockingTransmit(&cmd, 1);
 126:../../libDaisy//src/dev/oled_ssd130x.h ****     };
 127:../../libDaisy//src/dev/oled_ssd130x.h **** 
 128:../../libDaisy//src/dev/oled_ssd130x.h ****     void SendData(uint8_t* buff, size_t size)
 129:../../libDaisy//src/dev/oled_ssd130x.h ****     {
 130:../../libDaisy//src/dev/oled_ssd130x.h ****         dsy_gpio_write(&pin_dc_, 1);
 131:../../libDaisy//src/dev/oled_ssd130x.h ****         spi_.BlockingTransmit(buff, size);
 132:../../libDaisy//src/dev/oled_ssd130x.h ****     };
 133:../../libDaisy//src/dev/oled_ssd130x.h **** 
 134:../../libDaisy//src/dev/oled_ssd130x.h ****   private:
 135:../../libDaisy//src/dev/oled_ssd130x.h ****     SpiHandle spi_;
 136:../../libDaisy//src/dev/oled_ssd130x.h ****     dsy_gpio  pin_reset_;
 137:../../libDaisy//src/dev/oled_ssd130x.h ****     dsy_gpio  pin_dc_;
 138:../../libDaisy//src/dev/oled_ssd130x.h **** };
 139:../../libDaisy//src/dev/oled_ssd130x.h **** 
 140:../../libDaisy//src/dev/oled_ssd130x.h **** /**
ARM GAS  /var/folders/hl/qgbwny5j0fd895c2c41bk3tw0000gp/T//ccmKeONX.s 			page 12


 141:../../libDaisy//src/dev/oled_ssd130x.h ****  * Soft SPI Transport for SSD1306 / SSD1309 OLED display devices
 142:../../libDaisy//src/dev/oled_ssd130x.h ****  */
 143:../../libDaisy//src/dev/oled_ssd130x.h **** class SSD130x4WireSoftSpiTransport
 144:../../libDaisy//src/dev/oled_ssd130x.h **** {
 145:../../libDaisy//src/dev/oled_ssd130x.h ****   public:
 146:../../libDaisy//src/dev/oled_ssd130x.h ****     struct Config
 147:../../libDaisy//src/dev/oled_ssd130x.h ****     {
 148:../../libDaisy//src/dev/oled_ssd130x.h ****         Config()
 149:../../libDaisy//src/dev/oled_ssd130x.h ****         {
 150:../../libDaisy//src/dev/oled_ssd130x.h ****             // Initialize using defaults
 151:../../libDaisy//src/dev/oled_ssd130x.h ****             Defaults();
 152:../../libDaisy//src/dev/oled_ssd130x.h ****         }
 153:../../libDaisy//src/dev/oled_ssd130x.h ****         struct
 154:../../libDaisy//src/dev/oled_ssd130x.h ****         {
 155:../../libDaisy//src/dev/oled_ssd130x.h ****             uint32_t     sclk_delay;
 156:../../libDaisy//src/dev/oled_ssd130x.h ****             dsy_gpio_pin sclk;
 157:../../libDaisy//src/dev/oled_ssd130x.h ****             dsy_gpio_pin mosi;
 158:../../libDaisy//src/dev/oled_ssd130x.h ****             dsy_gpio_pin dc;
 159:../../libDaisy//src/dev/oled_ssd130x.h ****             dsy_gpio_pin reset;
 160:../../libDaisy//src/dev/oled_ssd130x.h ****         } pin_config;
 161:../../libDaisy//src/dev/oled_ssd130x.h ****         void Defaults()
 162:../../libDaisy//src/dev/oled_ssd130x.h ****         {
 163:../../libDaisy//src/dev/oled_ssd130x.h ****             pin_config.sclk_delay = 0; // fast as possible?!
 164:../../libDaisy//src/dev/oled_ssd130x.h ****             // SPI peripheral config
 165:../../libDaisy//src/dev/oled_ssd130x.h ****             pin_config.sclk = {DSY_GPIOD, 3}; /**< D10 - SPI2 SCK  */
 166:../../libDaisy//src/dev/oled_ssd130x.h ****             pin_config.mosi = {DSY_GPIOC, 3}; /**< D9  - SPI2 MOSI */
 167:../../libDaisy//src/dev/oled_ssd130x.h ****             // SSD130x control pin config
 168:../../libDaisy//src/dev/oled_ssd130x.h ****             pin_config.dc    = {DSY_GPIOC, 11}; //D2
 169:../../libDaisy//src/dev/oled_ssd130x.h ****             pin_config.reset = {DSY_GPIOC, 10}; //D3
 170:../../libDaisy//src/dev/oled_ssd130x.h ****         }
 171:../../libDaisy//src/dev/oled_ssd130x.h ****     };
 172:../../libDaisy//src/dev/oled_ssd130x.h ****     void Init(const Config& config)
 173:../../libDaisy//src/dev/oled_ssd130x.h ****     {
 174:../../libDaisy//src/dev/oled_ssd130x.h ****         // Initialize both GPIO
 175:../../libDaisy//src/dev/oled_ssd130x.h ****         pin_sclk_.mode = DSY_GPIO_MODE_OUTPUT_PP;
 176:../../libDaisy//src/dev/oled_ssd130x.h ****         pin_sclk_.pin  = config.pin_config.sclk;
 177:../../libDaisy//src/dev/oled_ssd130x.h ****         dsy_gpio_init(&pin_sclk_);
 178:../../libDaisy//src/dev/oled_ssd130x.h ****         dsy_gpio_write(&pin_sclk_, 1); //ClockPolarity::LOW
 179:../../libDaisy//src/dev/oled_ssd130x.h ****         clk_delay      = config.pin_config.sclk_delay;
 180:../../libDaisy//src/dev/oled_ssd130x.h ****         pin_mosi_.mode = DSY_GPIO_MODE_OUTPUT_PP;
 181:../../libDaisy//src/dev/oled_ssd130x.h ****         pin_mosi_.pin  = config.pin_config.mosi;
 182:../../libDaisy//src/dev/oled_ssd130x.h ****         dsy_gpio_init(&pin_mosi_);
 183:../../libDaisy//src/dev/oled_ssd130x.h ****         dsy_gpio_write(&pin_mosi_, 0);
 184:../../libDaisy//src/dev/oled_ssd130x.h **** 
 185:../../libDaisy//src/dev/oled_ssd130x.h ****         pin_dc_.mode = DSY_GPIO_MODE_OUTPUT_PP;
 186:../../libDaisy//src/dev/oled_ssd130x.h ****         pin_dc_.pin  = config.pin_config.dc;
 187:../../libDaisy//src/dev/oled_ssd130x.h ****         dsy_gpio_init(&pin_dc_);
 188:../../libDaisy//src/dev/oled_ssd130x.h ****         pin_reset_.mode = DSY_GPIO_MODE_OUTPUT_PP;
 189:../../libDaisy//src/dev/oled_ssd130x.h ****         pin_reset_.pin  = config.pin_config.reset;
 190:../../libDaisy//src/dev/oled_ssd130x.h ****         dsy_gpio_init(&pin_reset_);
 191:../../libDaisy//src/dev/oled_ssd130x.h **** 
 192:../../libDaisy//src/dev/oled_ssd130x.h ****         // Reset and Configure OLED.
 193:../../libDaisy//src/dev/oled_ssd130x.h ****         dsy_gpio_write(&pin_reset_, 0);
 194:../../libDaisy//src/dev/oled_ssd130x.h ****         System::Delay(10);
 195:../../libDaisy//src/dev/oled_ssd130x.h ****         dsy_gpio_write(&pin_reset_, 1);
 196:../../libDaisy//src/dev/oled_ssd130x.h ****         System::Delay(10);
 197:../../libDaisy//src/dev/oled_ssd130x.h ****     };
ARM GAS  /var/folders/hl/qgbwny5j0fd895c2c41bk3tw0000gp/T//ccmKeONX.s 			page 13


 198:../../libDaisy//src/dev/oled_ssd130x.h ****     void SendCommand(uint8_t cmd)
 199:../../libDaisy//src/dev/oled_ssd130x.h ****     {
 200:../../libDaisy//src/dev/oled_ssd130x.h ****         dsy_gpio_write(&pin_dc_, 0);
 201:../../libDaisy//src/dev/oled_ssd130x.h ****         SoftSpiTransmit(cmd);
 202:../../libDaisy//src/dev/oled_ssd130x.h ****     };
 203:../../libDaisy//src/dev/oled_ssd130x.h **** 
 204:../../libDaisy//src/dev/oled_ssd130x.h ****     void SendData(uint8_t* buff, size_t size)
 205:../../libDaisy//src/dev/oled_ssd130x.h ****     {
 206:../../libDaisy//src/dev/oled_ssd130x.h ****         dsy_gpio_write(&pin_dc_, 1);
 207:../../libDaisy//src/dev/oled_ssd130x.h ****         for(size_t i = 0; i < size; i++)
 208:../../libDaisy//src/dev/oled_ssd130x.h ****             SoftSpiTransmit(buff[i]);
 209:../../libDaisy//src/dev/oled_ssd130x.h ****     };
 210:../../libDaisy//src/dev/oled_ssd130x.h **** 
 211:../../libDaisy//src/dev/oled_ssd130x.h ****   private:
 212:../../libDaisy//src/dev/oled_ssd130x.h ****     void SoftSpiTransmit(uint8_t val)
 213:../../libDaisy//src/dev/oled_ssd130x.h ****     {
 214:../../libDaisy//src/dev/oled_ssd130x.h ****         // bit flip
 215:../../libDaisy//src/dev/oled_ssd130x.h ****         val = ((val & 0x01) << 7) | ((val & 0x02) << 5) | ((val & 0x04) << 3)
 216:../../libDaisy//src/dev/oled_ssd130x.h ****               | ((val & 0x08) << 1) | ((val & 0x10) >> 1) | ((val & 0x20) >> 3)
 217:../../libDaisy//src/dev/oled_ssd130x.h ****               | ((val & 0x40) >> 5) | ((val & 0x80) >> 7);
 218:../../libDaisy//src/dev/oled_ssd130x.h **** 
 219:../../libDaisy//src/dev/oled_ssd130x.h ****         for(uint8_t bit = 0u; bit < 8u; bit++)
 220:../../libDaisy//src/dev/oled_ssd130x.h ****         {
 221:../../libDaisy//src/dev/oled_ssd130x.h ****             dsy_gpio_write(&pin_mosi_, ((val & (1 << bit)) ? 1 : 0));
 222:../../libDaisy//src/dev/oled_ssd130x.h **** 
 223:../../libDaisy//src/dev/oled_ssd130x.h ****             System::DelayTicks(clk_delay);
 224:../../libDaisy//src/dev/oled_ssd130x.h **** 
 225:../../libDaisy//src/dev/oled_ssd130x.h ****             dsy_gpio_toggle(&pin_sclk_);
 226:../../libDaisy//src/dev/oled_ssd130x.h **** 
 227:../../libDaisy//src/dev/oled_ssd130x.h ****             System::DelayTicks(clk_delay);
 228:../../libDaisy//src/dev/oled_ssd130x.h **** 
 229:../../libDaisy//src/dev/oled_ssd130x.h ****             dsy_gpio_toggle(&pin_sclk_);
 230:../../libDaisy//src/dev/oled_ssd130x.h ****         }
 231:../../libDaisy//src/dev/oled_ssd130x.h ****     }
 232:../../libDaisy//src/dev/oled_ssd130x.h **** 
 233:../../libDaisy//src/dev/oled_ssd130x.h ****     uint32_t clk_delay;
 234:../../libDaisy//src/dev/oled_ssd130x.h ****     dsy_gpio pin_sclk_;
 235:../../libDaisy//src/dev/oled_ssd130x.h ****     dsy_gpio pin_mosi_;
 236:../../libDaisy//src/dev/oled_ssd130x.h ****     dsy_gpio pin_reset_;
 237:../../libDaisy//src/dev/oled_ssd130x.h ****     dsy_gpio pin_dc_;
 238:../../libDaisy//src/dev/oled_ssd130x.h **** };
 239:../../libDaisy//src/dev/oled_ssd130x.h **** 
 240:../../libDaisy//src/dev/oled_ssd130x.h **** 
 241:../../libDaisy//src/dev/oled_ssd130x.h **** /**
 242:../../libDaisy//src/dev/oled_ssd130x.h ****  * A driver implementation for the SSD1306/SSD1309
 243:../../libDaisy//src/dev/oled_ssd130x.h ****  */
 244:../../libDaisy//src/dev/oled_ssd130x.h **** template <size_t width, size_t height, typename Transport>
 245:../../libDaisy//src/dev/oled_ssd130x.h **** class SSD130xDriver
 246:../../libDaisy//src/dev/oled_ssd130x.h **** {
 247:../../libDaisy//src/dev/oled_ssd130x.h ****   public:
 248:../../libDaisy//src/dev/oled_ssd130x.h ****     struct Config
 249:../../libDaisy//src/dev/oled_ssd130x.h ****     {
 250:../../libDaisy//src/dev/oled_ssd130x.h ****         typename Transport::Config transport_config;
 251:../../libDaisy//src/dev/oled_ssd130x.h ****     };
 252:../../libDaisy//src/dev/oled_ssd130x.h **** 
 253:../../libDaisy//src/dev/oled_ssd130x.h ****     void Init(Config config)
 254:../../libDaisy//src/dev/oled_ssd130x.h ****     {
ARM GAS  /var/folders/hl/qgbwny5j0fd895c2c41bk3tw0000gp/T//ccmKeONX.s 			page 14


 255:../../libDaisy//src/dev/oled_ssd130x.h ****         transport_.Init(config.transport_config);
 256:../../libDaisy//src/dev/oled_ssd130x.h **** 
 257:../../libDaisy//src/dev/oled_ssd130x.h ****         // Init routine...
 258:../../libDaisy//src/dev/oled_ssd130x.h **** 
 259:../../libDaisy//src/dev/oled_ssd130x.h ****         // Display Off
 260:../../libDaisy//src/dev/oled_ssd130x.h ****         transport_.SendCommand(0xaE);
 261:../../libDaisy//src/dev/oled_ssd130x.h ****         // Dimension dependent commands...
 262:../../libDaisy//src/dev/oled_ssd130x.h ****         switch(height)
 263:../../libDaisy//src/dev/oled_ssd130x.h ****         {
 264:../../libDaisy//src/dev/oled_ssd130x.h ****             case 16:
 265:../../libDaisy//src/dev/oled_ssd130x.h ****                 // Display Clock Divide Ratio
 266:../../libDaisy//src/dev/oled_ssd130x.h ****                 transport_.SendCommand(0xD5);
 267:../../libDaisy//src/dev/oled_ssd130x.h ****                 transport_.SendCommand(0x60);
 268:../../libDaisy//src/dev/oled_ssd130x.h ****                 // Multiplex Ratio
 269:../../libDaisy//src/dev/oled_ssd130x.h ****                 transport_.SendCommand(0xA8);
 270:../../libDaisy//src/dev/oled_ssd130x.h ****                 transport_.SendCommand(0x0F);
 271:../../libDaisy//src/dev/oled_ssd130x.h ****                 // COM Pins
 272:../../libDaisy//src/dev/oled_ssd130x.h ****                 transport_.SendCommand(0xDA);
 273:../../libDaisy//src/dev/oled_ssd130x.h ****                 transport_.SendCommand(0x02);
 274:../../libDaisy//src/dev/oled_ssd130x.h ****                 break;
 275:../../libDaisy//src/dev/oled_ssd130x.h ****             case 32:
 276:../../libDaisy//src/dev/oled_ssd130x.h ****                 // Display Clock Divide Ratio
 277:../../libDaisy//src/dev/oled_ssd130x.h ****                 transport_.SendCommand(0xD5);
 278:../../libDaisy//src/dev/oled_ssd130x.h ****                 transport_.SendCommand(0x80);
 279:../../libDaisy//src/dev/oled_ssd130x.h ****                 // Multiplex Ratio
 280:../../libDaisy//src/dev/oled_ssd130x.h ****                 transport_.SendCommand(0xA8);
 281:../../libDaisy//src/dev/oled_ssd130x.h ****                 transport_.SendCommand(0x1F);
 282:../../libDaisy//src/dev/oled_ssd130x.h ****                 // COM Pins
 283:../../libDaisy//src/dev/oled_ssd130x.h ****                 transport_.SendCommand(0xDA);
 284:../../libDaisy//src/dev/oled_ssd130x.h ****                 if(width == 64)
 285:../../libDaisy//src/dev/oled_ssd130x.h ****                 {
 286:../../libDaisy//src/dev/oled_ssd130x.h ****                     transport_.SendCommand(0x12);
 287:../../libDaisy//src/dev/oled_ssd130x.h ****                 }
 288:../../libDaisy//src/dev/oled_ssd130x.h ****                 else
 289:../../libDaisy//src/dev/oled_ssd130x.h ****                 {
 290:../../libDaisy//src/dev/oled_ssd130x.h ****                     transport_.SendCommand(0x02);
 291:../../libDaisy//src/dev/oled_ssd130x.h ****                 }
 292:../../libDaisy//src/dev/oled_ssd130x.h **** 
 293:../../libDaisy//src/dev/oled_ssd130x.h ****                 break;
 294:../../libDaisy//src/dev/oled_ssd130x.h ****             case 48:
 295:../../libDaisy//src/dev/oled_ssd130x.h ****                 // Display Clock Divide Ratio
 296:../../libDaisy//src/dev/oled_ssd130x.h ****                 transport_.SendCommand(0xD5);
 297:../../libDaisy//src/dev/oled_ssd130x.h ****                 transport_.SendCommand(0x80);
 298:../../libDaisy//src/dev/oled_ssd130x.h ****                 // Multiplex Ratio
 299:../../libDaisy//src/dev/oled_ssd130x.h ****                 transport_.SendCommand(0xA8);
 300:../../libDaisy//src/dev/oled_ssd130x.h ****                 transport_.SendCommand(0x2F);
 301:../../libDaisy//src/dev/oled_ssd130x.h ****                 // COM Pins
 302:../../libDaisy//src/dev/oled_ssd130x.h ****                 transport_.SendCommand(0xDA);
 303:../../libDaisy//src/dev/oled_ssd130x.h ****                 transport_.SendCommand(0x12);
 304:../../libDaisy//src/dev/oled_ssd130x.h ****                 break;
 305:../../libDaisy//src/dev/oled_ssd130x.h ****             default: // 128
 306:../../libDaisy//src/dev/oled_ssd130x.h ****                 // Display Clock Divide Ratio
 307:../../libDaisy//src/dev/oled_ssd130x.h ****                 transport_.SendCommand(0xD5);
 308:../../libDaisy//src/dev/oled_ssd130x.h ****                 transport_.SendCommand(0x80);
 309:../../libDaisy//src/dev/oled_ssd130x.h ****                 // Multiplex Ratio
 310:../../libDaisy//src/dev/oled_ssd130x.h ****                 transport_.SendCommand(0xA8);
 311:../../libDaisy//src/dev/oled_ssd130x.h ****                 transport_.SendCommand(0x3F);
ARM GAS  /var/folders/hl/qgbwny5j0fd895c2c41bk3tw0000gp/T//ccmKeONX.s 			page 15


 312:../../libDaisy//src/dev/oled_ssd130x.h ****                 // COM Pins
 313:../../libDaisy//src/dev/oled_ssd130x.h ****                 transport_.SendCommand(0xDA);
 314:../../libDaisy//src/dev/oled_ssd130x.h ****                 transport_.SendCommand(0x12);
 315:../../libDaisy//src/dev/oled_ssd130x.h ****                 break;
 316:../../libDaisy//src/dev/oled_ssd130x.h ****         }
 317:../../libDaisy//src/dev/oled_ssd130x.h **** 
 318:../../libDaisy//src/dev/oled_ssd130x.h ****         // Display Offset
 319:../../libDaisy//src/dev/oled_ssd130x.h ****         transport_.SendCommand(0xD3);
 320:../../libDaisy//src/dev/oled_ssd130x.h ****         transport_.SendCommand(0x00);
 321:../../libDaisy//src/dev/oled_ssd130x.h ****         // Start Line Address
 322:../../libDaisy//src/dev/oled_ssd130x.h ****         transport_.SendCommand(0x40);
 323:../../libDaisy//src/dev/oled_ssd130x.h ****         // Normal Display
 324:../../libDaisy//src/dev/oled_ssd130x.h ****         transport_.SendCommand(0xA6);
 325:../../libDaisy//src/dev/oled_ssd130x.h ****         // All On Resume
 326:../../libDaisy//src/dev/oled_ssd130x.h ****         transport_.SendCommand(0xA4);
 327:../../libDaisy//src/dev/oled_ssd130x.h ****         // Charge Pump
 328:../../libDaisy//src/dev/oled_ssd130x.h ****         transport_.SendCommand(0x8D);
 329:../../libDaisy//src/dev/oled_ssd130x.h ****         transport_.SendCommand(0x14);
 330:../../libDaisy//src/dev/oled_ssd130x.h ****         // Set Segment Remap
 331:../../libDaisy//src/dev/oled_ssd130x.h ****         transport_.SendCommand(0xA1);
 332:../../libDaisy//src/dev/oled_ssd130x.h ****         // COM Output Scan Direction
 333:../../libDaisy//src/dev/oled_ssd130x.h ****         transport_.SendCommand(0xC8);
 334:../../libDaisy//src/dev/oled_ssd130x.h ****         // Contrast Control
 335:../../libDaisy//src/dev/oled_ssd130x.h ****         transport_.SendCommand(0x81);
 336:../../libDaisy//src/dev/oled_ssd130x.h ****         transport_.SendCommand(0x8F);
 337:../../libDaisy//src/dev/oled_ssd130x.h ****         // Pre Charge
 338:../../libDaisy//src/dev/oled_ssd130x.h ****         transport_.SendCommand(0xD9);
 339:../../libDaisy//src/dev/oled_ssd130x.h ****         transport_.SendCommand(0x25);
 340:../../libDaisy//src/dev/oled_ssd130x.h ****         // VCOM Detect
 341:../../libDaisy//src/dev/oled_ssd130x.h ****         transport_.SendCommand(0xDB);
 342:../../libDaisy//src/dev/oled_ssd130x.h ****         transport_.SendCommand(0x34);
 343:../../libDaisy//src/dev/oled_ssd130x.h **** 
 344:../../libDaisy//src/dev/oled_ssd130x.h **** 
 345:../../libDaisy//src/dev/oled_ssd130x.h ****         // Display On
 346:../../libDaisy//src/dev/oled_ssd130x.h ****         transport_.SendCommand(0xAF); //--turn on oled panel
 347:../../libDaisy//src/dev/oled_ssd130x.h ****     };
 348:../../libDaisy//src/dev/oled_ssd130x.h **** 
 349:../../libDaisy//src/dev/oled_ssd130x.h ****     size_t Width() const { return width; };
 350:../../libDaisy//src/dev/oled_ssd130x.h ****     size_t Height() const { return height; };
 351:../../libDaisy//src/dev/oled_ssd130x.h **** 
 352:../../libDaisy//src/dev/oled_ssd130x.h ****     void DrawPixel(uint_fast8_t x, uint_fast8_t y, bool on)
 353:../../libDaisy//src/dev/oled_ssd130x.h ****     {
 354:../../libDaisy//src/dev/oled_ssd130x.h ****         if(x >= width || y >= height)
 355:../../libDaisy//src/dev/oled_ssd130x.h ****             return;
 356:../../libDaisy//src/dev/oled_ssd130x.h ****         if(on)
 357:../../libDaisy//src/dev/oled_ssd130x.h ****             buffer_[x + (y / 8) * width] |= (1 << (y % 8));
 358:../../libDaisy//src/dev/oled_ssd130x.h ****         else
 359:../../libDaisy//src/dev/oled_ssd130x.h ****             buffer_[x + (y / 8) * width] &= ~(1 << (y % 8));
 360:../../libDaisy//src/dev/oled_ssd130x.h ****     }
 361:../../libDaisy//src/dev/oled_ssd130x.h **** 
 362:../../libDaisy//src/dev/oled_ssd130x.h ****     void Fill(bool on)
 112              		.loc 8 362 10 view .LVU13
 113              	.LBB460:
 363:../../libDaisy//src/dev/oled_ssd130x.h ****     {
 364:../../libDaisy//src/dev/oled_ssd130x.h ****         for(size_t i = 0; i < sizeof(buffer_); i++)
 114              		.loc 8 364 29 view .LVU14
 365:../../libDaisy//src/dev/oled_ssd130x.h ****         {
ARM GAS  /var/folders/hl/qgbwny5j0fd895c2c41bk3tw0000gp/T//ccmKeONX.s 			page 16


 366:../../libDaisy//src/dev/oled_ssd130x.h ****             buffer_[i] = on ? 0xff : 0x00;
 115              		.loc 8 366 24 is_stmt 0 view .LVU15
 116 0000 4942     		rsbs	r1, r1, #0
 117              	.LVL3:
 118              		.loc 8 366 24 view .LVU16
 119 0002 4FF48062 		mov	r2, #1024
 120 0006 1430     		adds	r0, r0, #20
 121              	.LVL4:
 122              		.loc 8 366 24 view .LVU17
 123 0008 C9B2     		uxtb	r1, r1
 124 000a FFF7FEBF 		b	memset
 125              	.LVL5:
 126              		.loc 8 366 24 view .LVU18
 127              	.LBE460:
 128              	.LBE459:
 129              		.cfi_endproc
 130              	.LFE5151:
 132 000e 00BF     		.section	.text._ZN5daisy11OledDisplayINS_13SSD130xDriverILj128ELj64ENS_24SSD130x4WireSpiTransportE
 133              		.align	1
 134              		.p2align 2,,3
 135              		.weak	_ZN5daisy11OledDisplayINS_13SSD130xDriverILj128ELj64ENS_24SSD130x4WireSpiTransportEEEED2Ev
 136              		.syntax unified
 137              		.thumb
 138              		.thumb_func
 139              		.fpu fpv5-d16
 141              	_ZN5daisy11OledDisplayINS_13SSD130xDriverILj128ELj64ENS_24SSD130x4WireSpiTransportEEEED2Ev:
 142              	.LVL6:
 143              	.LFB5428:
  18:../../libDaisy//src/hid/disp/oled_display.h **** 
 144              		.loc 7 18 13 is_stmt 1 view -0
 145              		.cfi_startproc
 146              		@ args = 0, pretend = 0, frame = 0
 147              		@ frame_needed = 0, uses_anonymous_args = 0
 148              		@ link register save eliminated.
 149              	.LBB461:
 150              	.LBI461:
 151              		.file 9 "../../libDaisy//src/hid/disp/display.h"
   1:../../libDaisy//src/hid/disp/display.h **** #pragma once
   2:../../libDaisy//src/hid/disp/display.h **** #ifndef DSY_DISPLAY_H
   3:../../libDaisy//src/hid/disp/display.h **** #define DSY_DISPLAY_H /**< Macro */
   4:../../libDaisy//src/hid/disp/display.h **** #include <cmath>
   5:../../libDaisy//src/hid/disp/display.h **** #include "util/oled_fonts.h"
   6:../../libDaisy//src/hid/disp/display.h **** #include "daisy_core.h"
   7:../../libDaisy//src/hid/disp/display.h **** #include "graphics_common.h"
   8:../../libDaisy//src/hid/disp/display.h **** 
   9:../../libDaisy//src/hid/disp/display.h **** #ifndef deg2rad
  10:../../libDaisy//src/hid/disp/display.h **** #define deg2rad(deg) ((deg)*3.141592 / 180.0)
  11:../../libDaisy//src/hid/disp/display.h **** #endif
  12:../../libDaisy//src/hid/disp/display.h **** 
  13:../../libDaisy//src/hid/disp/display.h **** namespace daisy
  14:../../libDaisy//src/hid/disp/display.h **** {
  15:../../libDaisy//src/hid/disp/display.h **** /** 
  16:../../libDaisy//src/hid/disp/display.h ****  * This interface is used as a base class for all types of 1bit-per-pixel
  17:../../libDaisy//src/hid/disp/display.h ****  * graphics displays.
  18:../../libDaisy//src/hid/disp/display.h **** */
  19:../../libDaisy//src/hid/disp/display.h **** class OneBitGraphicsDisplay
  20:../../libDaisy//src/hid/disp/display.h **** {
ARM GAS  /var/folders/hl/qgbwny5j0fd895c2c41bk3tw0000gp/T//ccmKeONX.s 			page 17


  21:../../libDaisy//src/hid/disp/display.h ****   public:
  22:../../libDaisy//src/hid/disp/display.h ****     OneBitGraphicsDisplay() {}
  23:../../libDaisy//src/hid/disp/display.h ****     virtual ~OneBitGraphicsDisplay() {}
  24:../../libDaisy//src/hid/disp/display.h **** 
  25:../../libDaisy//src/hid/disp/display.h ****     virtual uint16_t Height() const = 0;
  26:../../libDaisy//src/hid/disp/display.h ****     virtual uint16_t Width() const  = 0;
  27:../../libDaisy//src/hid/disp/display.h **** 
  28:../../libDaisy//src/hid/disp/display.h ****     Rectangle GetBounds() const
  29:../../libDaisy//src/hid/disp/display.h ****     {
  30:../../libDaisy//src/hid/disp/display.h ****         return Rectangle(int16_t(Width()), int16_t(Height()));
  31:../../libDaisy//src/hid/disp/display.h ****     }
  32:../../libDaisy//src/hid/disp/display.h **** 
  33:../../libDaisy//src/hid/disp/display.h **** 
  34:../../libDaisy//src/hid/disp/display.h ****     size_t CurrentX() { return currentX_; };
  35:../../libDaisy//src/hid/disp/display.h ****     size_t CurrentY() { return currentY_; };
  36:../../libDaisy//src/hid/disp/display.h **** 
  37:../../libDaisy//src/hid/disp/display.h ****     /** 
  38:../../libDaisy//src/hid/disp/display.h ****     Fills the entire display with either on/off.
  39:../../libDaisy//src/hid/disp/display.h ****     \param on Sets on or off.
  40:../../libDaisy//src/hid/disp/display.h ****     */
  41:../../libDaisy//src/hid/disp/display.h ****     virtual void Fill(bool on) = 0;
  42:../../libDaisy//src/hid/disp/display.h **** 
  43:../../libDaisy//src/hid/disp/display.h ****     /**
  44:../../libDaisy//src/hid/disp/display.h ****     Sets the pixel at the specified coordinate to be on/off.
  45:../../libDaisy//src/hid/disp/display.h ****     \param x   x Coordinate
  46:../../libDaisy//src/hid/disp/display.h ****     \param y   y coordinate
  47:../../libDaisy//src/hid/disp/display.h ****     \param on  on or off
  48:../../libDaisy//src/hid/disp/display.h ****     */
  49:../../libDaisy//src/hid/disp/display.h ****     virtual void DrawPixel(uint_fast8_t x, uint_fast8_t y, bool on) = 0;
  50:../../libDaisy//src/hid/disp/display.h **** 
  51:../../libDaisy//src/hid/disp/display.h ****     /**
  52:../../libDaisy//src/hid/disp/display.h ****     Draws a line from (x1, y1) to (y1, y2)
  53:../../libDaisy//src/hid/disp/display.h ****     \param x1  x Coordinate of the starting point
  54:../../libDaisy//src/hid/disp/display.h ****     \param y1  y Coordinate of the starting point
  55:../../libDaisy//src/hid/disp/display.h ****     \param x2  x Coordinate of the ending point
  56:../../libDaisy//src/hid/disp/display.h ****     \param y2  y Coordinate of the ending point
  57:../../libDaisy//src/hid/disp/display.h ****     \param on  on or off
  58:../../libDaisy//src/hid/disp/display.h ****     */
  59:../../libDaisy//src/hid/disp/display.h ****     virtual void DrawLine(uint_fast8_t x1,
  60:../../libDaisy//src/hid/disp/display.h ****                           uint_fast8_t y1,
  61:../../libDaisy//src/hid/disp/display.h ****                           uint_fast8_t x2,
  62:../../libDaisy//src/hid/disp/display.h ****                           uint_fast8_t y2,
  63:../../libDaisy//src/hid/disp/display.h ****                           bool         on)
  64:../../libDaisy//src/hid/disp/display.h ****         = 0;
  65:../../libDaisy//src/hid/disp/display.h **** 
  66:../../libDaisy//src/hid/disp/display.h ****     /**
  67:../../libDaisy//src/hid/disp/display.h ****     Draws a rectangle based on two coordinates.
  68:../../libDaisy//src/hid/disp/display.h ****     \param x1 x Coordinate of the first point
  69:../../libDaisy//src/hid/disp/display.h ****     \param y1 y Coordinate of the first point
  70:../../libDaisy//src/hid/disp/display.h ****     \param x2 x Coordinate of the second point
  71:../../libDaisy//src/hid/disp/display.h ****     \param y2 y Coordinate of the second point
  72:../../libDaisy//src/hid/disp/display.h ****     \param on on or off
  73:../../libDaisy//src/hid/disp/display.h ****     \param fill fill the rectangle or draw only the outline
  74:../../libDaisy//src/hid/disp/display.h ****     */
  75:../../libDaisy//src/hid/disp/display.h ****     virtual void DrawRect(uint_fast8_t x1,
  76:../../libDaisy//src/hid/disp/display.h ****                           uint_fast8_t y1,
  77:../../libDaisy//src/hid/disp/display.h ****                           uint_fast8_t x2,
ARM GAS  /var/folders/hl/qgbwny5j0fd895c2c41bk3tw0000gp/T//ccmKeONX.s 			page 18


  78:../../libDaisy//src/hid/disp/display.h ****                           uint_fast8_t y2,
  79:../../libDaisy//src/hid/disp/display.h ****                           bool         on,
  80:../../libDaisy//src/hid/disp/display.h ****                           bool         fill = false)
  81:../../libDaisy//src/hid/disp/display.h ****         = 0;
  82:../../libDaisy//src/hid/disp/display.h **** 
  83:../../libDaisy//src/hid/disp/display.h ****     /**
  84:../../libDaisy//src/hid/disp/display.h ****     Draws a rectangle.
  85:../../libDaisy//src/hid/disp/display.h ****     \param rect the rectangle
  86:../../libDaisy//src/hid/disp/display.h ****     \param on   on or off
  87:../../libDaisy//src/hid/disp/display.h ****     \param fill fill the rectangle or draw only the outline
  88:../../libDaisy//src/hid/disp/display.h ****     */
  89:../../libDaisy//src/hid/disp/display.h ****     void DrawRect(const Rectangle& rect, bool on, bool fill = false)
  90:../../libDaisy//src/hid/disp/display.h ****     {
  91:../../libDaisy//src/hid/disp/display.h ****         DrawRect(rect.GetX(),
  92:../../libDaisy//src/hid/disp/display.h ****                  rect.GetY(),
  93:../../libDaisy//src/hid/disp/display.h ****                  rect.GetRight(),
  94:../../libDaisy//src/hid/disp/display.h ****                  rect.GetBottom(),
  95:../../libDaisy//src/hid/disp/display.h ****                  on,
  96:../../libDaisy//src/hid/disp/display.h ****                  fill);
  97:../../libDaisy//src/hid/disp/display.h ****     }
  98:../../libDaisy//src/hid/disp/display.h **** 
  99:../../libDaisy//src/hid/disp/display.h ****     /**
 100:../../libDaisy//src/hid/disp/display.h ****     Draws an arc around the specified coordinate
 101:../../libDaisy//src/hid/disp/display.h ****     \param x           x Coordinate of the center of the arc
 102:../../libDaisy//src/hid/disp/display.h ****     \param y           y Coordinate of the center of the arc
 103:../../libDaisy//src/hid/disp/display.h ****     \param radius      radius of the arc
 104:../../libDaisy//src/hid/disp/display.h ****     \param start_angle angle where to start the arc
 105:../../libDaisy//src/hid/disp/display.h ****     \param sweep       total angle of the arc
 106:../../libDaisy//src/hid/disp/display.h ****     \param on  on or off
 107:../../libDaisy//src/hid/disp/display.h ****     */
 108:../../libDaisy//src/hid/disp/display.h ****     virtual void DrawArc(uint_fast8_t x,
 109:../../libDaisy//src/hid/disp/display.h ****                          uint_fast8_t y,
 110:../../libDaisy//src/hid/disp/display.h ****                          uint_fast8_t radius,
 111:../../libDaisy//src/hid/disp/display.h ****                          int_fast16_t start_angle,
 112:../../libDaisy//src/hid/disp/display.h ****                          int_fast16_t sweep,
 113:../../libDaisy//src/hid/disp/display.h ****                          bool         on)
 114:../../libDaisy//src/hid/disp/display.h ****         = 0;
 115:../../libDaisy//src/hid/disp/display.h **** 
 116:../../libDaisy//src/hid/disp/display.h ****     /**
 117:../../libDaisy//src/hid/disp/display.h ****     Draws a circle around the specified coordinate
 118:../../libDaisy//src/hid/disp/display.h ****     \param x           x Coordinate of the center of the circle
 119:../../libDaisy//src/hid/disp/display.h ****     \param y           y Coordinate of the center of the circle
 120:../../libDaisy//src/hid/disp/display.h ****     \param radius      radius of the circle
 121:../../libDaisy//src/hid/disp/display.h ****     \param on  on or off
 122:../../libDaisy//src/hid/disp/display.h ****     */
 123:../../libDaisy//src/hid/disp/display.h ****     void
 124:../../libDaisy//src/hid/disp/display.h ****     DrawCircle(uint_fast8_t x, uint_fast8_t y, uint_fast8_t radius, bool on)
 125:../../libDaisy//src/hid/disp/display.h ****     {
 126:../../libDaisy//src/hid/disp/display.h ****         DrawArc(x, y, radius, 0, 360, on);
 127:../../libDaisy//src/hid/disp/display.h ****     };
 128:../../libDaisy//src/hid/disp/display.h **** 
 129:../../libDaisy//src/hid/disp/display.h ****     /** 
 130:../../libDaisy//src/hid/disp/display.h ****     Writes the character with the specific FontDef
 131:../../libDaisy//src/hid/disp/display.h ****     to the display buffer at the current Cursor position.
 132:../../libDaisy//src/hid/disp/display.h ****     \param ch character to be written
 133:../../libDaisy//src/hid/disp/display.h ****     \param font font to be written in
 134:../../libDaisy//src/hid/disp/display.h ****     \param on    on or off
ARM GAS  /var/folders/hl/qgbwny5j0fd895c2c41bk3tw0000gp/T//ccmKeONX.s 			page 19


 135:../../libDaisy//src/hid/disp/display.h ****     \return &
 136:../../libDaisy//src/hid/disp/display.h ****     */
 137:../../libDaisy//src/hid/disp/display.h ****     virtual char WriteChar(char ch, FontDef font, bool on) = 0;
 138:../../libDaisy//src/hid/disp/display.h **** 
 139:../../libDaisy//src/hid/disp/display.h ****     /** 
 140:../../libDaisy//src/hid/disp/display.h ****     Similar to WriteChar, except it will handle an entire String.
 141:../../libDaisy//src/hid/disp/display.h ****     Wrapping does not happen automatically, so the width
 142:../../libDaisy//src/hid/disp/display.h ****     of the string must be kept within the dimensions of the screen.
 143:../../libDaisy//src/hid/disp/display.h ****     \param str string to be written
 144:../../libDaisy//src/hid/disp/display.h ****     \param font font to use
 145:../../libDaisy//src/hid/disp/display.h ****     \param on  on or off
 146:../../libDaisy//src/hid/disp/display.h ****     \return &
 147:../../libDaisy//src/hid/disp/display.h ****     */
 148:../../libDaisy//src/hid/disp/display.h ****     virtual char WriteString(const char* str, FontDef font, bool on) = 0;
 149:../../libDaisy//src/hid/disp/display.h **** 
 150:../../libDaisy//src/hid/disp/display.h ****     /** 
 151:../../libDaisy//src/hid/disp/display.h ****     Similar to WriteString but justified within a bounding box.
 152:../../libDaisy//src/hid/disp/display.h ****     \param str          string to be written
 153:../../libDaisy//src/hid/disp/display.h ****     \param font         font to use
 154:../../libDaisy//src/hid/disp/display.h ****     \param boundingBox  the bounding box to draw the text in
 155:../../libDaisy//src/hid/disp/display.h ****     \param alignment    the alignment to use
 156:../../libDaisy//src/hid/disp/display.h ****     \param on           on or off
 157:../../libDaisy//src/hid/disp/display.h ****     \return The rectangle that was drawn to
 158:../../libDaisy//src/hid/disp/display.h ****     */
 159:../../libDaisy//src/hid/disp/display.h ****     virtual Rectangle WriteStringAligned(const char*    str,
 160:../../libDaisy//src/hid/disp/display.h ****                                          const FontDef& font,
 161:../../libDaisy//src/hid/disp/display.h ****                                          Rectangle      boundingBox,
 162:../../libDaisy//src/hid/disp/display.h ****                                          Alignment      alignment,
 163:../../libDaisy//src/hid/disp/display.h ****                                          bool           on)
 164:../../libDaisy//src/hid/disp/display.h ****         = 0;
 165:../../libDaisy//src/hid/disp/display.h **** 
 166:../../libDaisy//src/hid/disp/display.h ****     /** 
 167:../../libDaisy//src/hid/disp/display.h ****     Moves the 'Cursor' position used for WriteChar, and WriteStr to the specified coordinate.
 168:../../libDaisy//src/hid/disp/display.h ****     \param x x pos
 169:../../libDaisy//src/hid/disp/display.h ****     \param y y pos
 170:../../libDaisy//src/hid/disp/display.h ****     */
 171:../../libDaisy//src/hid/disp/display.h ****     void SetCursor(uint16_t x, uint16_t y)
 172:../../libDaisy//src/hid/disp/display.h ****     {
 173:../../libDaisy//src/hid/disp/display.h ****         currentX_ = (x >= Width()) ? Width() - 1 : x;
 174:../../libDaisy//src/hid/disp/display.h ****         currentY_ = (y >= Height()) ? Height() - 1 : y;
 175:../../libDaisy//src/hid/disp/display.h ****     }
 176:../../libDaisy//src/hid/disp/display.h **** 
 177:../../libDaisy//src/hid/disp/display.h ****     /** 
 178:../../libDaisy//src/hid/disp/display.h ****     Writes the current display buffer to the OLED device using SPI or I2C depending on 
 179:../../libDaisy//src/hid/disp/display.h ****     how the object was initialized.
 180:../../libDaisy//src/hid/disp/display.h ****     */
 181:../../libDaisy//src/hid/disp/display.h ****     virtual void Update() = 0;
 182:../../libDaisy//src/hid/disp/display.h **** 
 183:../../libDaisy//src/hid/disp/display.h ****   protected:
 184:../../libDaisy//src/hid/disp/display.h ****     uint16_t currentX_;
 185:../../libDaisy//src/hid/disp/display.h ****     uint16_t currentY_;
 186:../../libDaisy//src/hid/disp/display.h **** };
 187:../../libDaisy//src/hid/disp/display.h **** 
 188:../../libDaisy//src/hid/disp/display.h **** /** This class is intended as a intermediary class for your actual implementation of the OneBitGrap
 189:../../libDaisy//src/hid/disp/display.h ****  *  interface. It uses the CRTP design pattern where the template argument is the child class. It p
 190:../../libDaisy//src/hid/disp/display.h ****  *  implementations for most of the functions, except DrawPixel(), Update() and Fill(), which you'l
 191:../../libDaisy//src/hid/disp/display.h ****  *  to provide in your child class.
ARM GAS  /var/folders/hl/qgbwny5j0fd895c2c41bk3tw0000gp/T//ccmKeONX.s 			page 20


 192:../../libDaisy//src/hid/disp/display.h ****  *  The main goal of this class is to provide common drawing functions without relying on massive a
 193:../../libDaisy//src/hid/disp/display.h ****  *  virtual function calls that would result in a performance loss. To achieve this, any drawing fu
 194:../../libDaisy//src/hid/disp/display.h ****  *  is implemented here and internally calls other drawing functions (e.g. DrawRect() which interna
 195:../../libDaisy//src/hid/disp/display.h ****  *  DrawPixel() and DrawLine()) makes these calls via the qualified name of these functions to expl
 196:../../libDaisy//src/hid/disp/display.h ****  *  suppress the virtual dispatch mechanism like this:
 197:../../libDaisy//src/hid/disp/display.h ****  * 
 198:../../libDaisy//src/hid/disp/display.h ****  *      ChildType::DrawPixel(...); // no virtual function call; direct call into the child class fu
 199:../../libDaisy//src/hid/disp/display.h ****  *  
 200:../../libDaisy//src/hid/disp/display.h ****  *  To create a custom OneBitGraphicsDisplay implementation, you can 
 201:../../libDaisy//src/hid/disp/display.h ****  *  A) inherit from OneBitGraphicsDisplay directly and provide all the drawing functions yourself
 202:../../libDaisy//src/hid/disp/display.h ****  *  B) Inherit from OneBitGraphicsDisplayImpl and only provide DrawPixel(), Fill() and Update()
 203:../../libDaisy//src/hid/disp/display.h ****  *     like this:
 204:../../libDaisy//src/hid/disp/display.h ****  *  
 205:../../libDaisy//src/hid/disp/display.h ****  *      class MyDisplayClass : public OneBitGraphicsDisplayImpl<MyDisplayClass> 
 206:../../libDaisy//src/hid/disp/display.h ****  *      {
 207:../../libDaisy//src/hid/disp/display.h ****  *      public:
 208:../../libDaisy//src/hid/disp/display.h ****  *          void Fill() override { ... };
 209:../../libDaisy//src/hid/disp/display.h ****  *          void DrawPixel(uint_fast8_t x, uint_fast8_t y, bool on) override { ... };
 210:../../libDaisy//src/hid/disp/display.h ****  *          void Update() override { ... }
 211:../../libDaisy//src/hid/disp/display.h ****  *      };
 212:../../libDaisy//src/hid/disp/display.h ****  *  
 213:../../libDaisy//src/hid/disp/display.h ****  */
 214:../../libDaisy//src/hid/disp/display.h **** template <class ChildType>
 215:../../libDaisy//src/hid/disp/display.h **** class OneBitGraphicsDisplayImpl : public OneBitGraphicsDisplay
 216:../../libDaisy//src/hid/disp/display.h **** {
 217:../../libDaisy//src/hid/disp/display.h ****   public:
 218:../../libDaisy//src/hid/disp/display.h ****     OneBitGraphicsDisplayImpl() {}
 219:../../libDaisy//src/hid/disp/display.h ****     virtual ~OneBitGraphicsDisplayImpl() {}
 152              		.loc 9 219 13 view .LVU20
 153              	.LBB462:
 154              	.LBI462:
  23:../../libDaisy//src/hid/disp/display.h **** 
 155              		.loc 9 23 13 view .LVU21
  23:../../libDaisy//src/hid/disp/display.h **** 
 156              		.loc 9 23 13 is_stmt 0 view .LVU22
 157              	.LBE462:
 158              	.LBE461:
  18:../../libDaisy//src/hid/disp/oled_display.h **** 
 159              		.loc 7 18 29 view .LVU23
 160 0000 7047     		bx	lr
 161              		.cfi_endproc
 162              	.LFE5428:
 164              		.weak	_ZN5daisy11OledDisplayINS_13SSD130xDriverILj128ELj64ENS_24SSD130x4WireSpiTransportEEEED1Ev
 165              		.thumb_set _ZN5daisy11OledDisplayINS_13SSD130xDriverILj128ELj64ENS_24SSD130x4WireSpiTransportEEEED
 166 0002 00BF     		.section	.text._ZNK5daisy11OledDisplayINS_13SSD130xDriverILj128ELj64ENS_24SSD130x4WireSpiTransport
 167              		.align	1
 168              		.p2align 2,,3
 169              		.weak	_ZNK5daisy11OledDisplayINS_13SSD130xDriverILj128ELj64ENS_24SSD130x4WireSpiTransportEEEE6Heig
 170              		.syntax unified
 171              		.thumb
 172              		.thumb_func
 173              		.fpu fpv5-d16
 175              	_ZNK5daisy11OledDisplayINS_13SSD130xDriverILj128ELj64ENS_24SSD130x4WireSpiTransportEEEE6HeightEv:
 176              	.LVL7:
 177              	.LFB5431:
  27:../../libDaisy//src/hid/disp/oled_display.h ****     uint16_t Width() const override { return driver_.Width(); }
 178              		.loc 7 27 14 is_stmt 1 view -0
ARM GAS  /var/folders/hl/qgbwny5j0fd895c2c41bk3tw0000gp/T//ccmKeONX.s 			page 21


 179              		.cfi_startproc
 180              		@ args = 0, pretend = 0, frame = 0
 181              		@ frame_needed = 0, uses_anonymous_args = 0
 182              		@ link register save eliminated.
  27:../../libDaisy//src/hid/disp/oled_display.h ****     uint16_t Width() const override { return driver_.Width(); }
 183              		.loc 7 27 65 is_stmt 0 view .LVU25
 184 0000 4020     		movs	r0, #64
 185              	.LVL8:
  27:../../libDaisy//src/hid/disp/oled_display.h ****     uint16_t Width() const override { return driver_.Width(); }
 186              		.loc 7 27 65 view .LVU26
 187 0002 7047     		bx	lr
 188              		.cfi_endproc
 189              	.LFE5431:
 191              		.section	.text._ZNK5daisy11OledDisplayINS_13SSD130xDriverILj128ELj64ENS_24SSD130x4WireSpiTransport
 192              		.align	1
 193              		.p2align 2,,3
 194              		.weak	_ZNK5daisy11OledDisplayINS_13SSD130xDriverILj128ELj64ENS_24SSD130x4WireSpiTransportEEEE5Widt
 195              		.syntax unified
 196              		.thumb
 197              		.thumb_func
 198              		.fpu fpv5-d16
 200              	_ZNK5daisy11OledDisplayINS_13SSD130xDriverILj128ELj64ENS_24SSD130x4WireSpiTransportEEEE5WidthEv:
 201              	.LVL9:
 202              	.LFB5432:
  28:../../libDaisy//src/hid/disp/oled_display.h **** 
 203              		.loc 7 28 14 is_stmt 1 view -0
 204              		.cfi_startproc
 205              		@ args = 0, pretend = 0, frame = 0
 206              		@ frame_needed = 0, uses_anonymous_args = 0
 207              		@ link register save eliminated.
  28:../../libDaisy//src/hid/disp/oled_display.h **** 
 208              		.loc 7 28 63 is_stmt 0 view .LVU28
 209 0000 8020     		movs	r0, #128
 210              	.LVL10:
  28:../../libDaisy//src/hid/disp/oled_display.h **** 
 211              		.loc 7 28 63 view .LVU29
 212 0002 7047     		bx	lr
 213              		.cfi_endproc
 214              	.LFE5432:
 216              		.section	.text._ZN5daisy6Mpr121INS_18Mpr121I2CTransportEED2Ev,"axG",%progbits,_ZN5daisy6Mpr121INS_
 217              		.align	1
 218              		.p2align 2,,3
 219              		.weak	_ZN5daisy6Mpr121INS_18Mpr121I2CTransportEED2Ev
 220              		.syntax unified
 221              		.thumb
 222              		.thumb_func
 223              		.fpu fpv5-d16
 225              	_ZN5daisy6Mpr121INS_18Mpr121I2CTransportEED2Ev:
 226              	.LVL11:
 227              	.LFB5438:
 228              		.file 10 "../../libDaisy//src/dev/mpr121.h"
   1:../../libDaisy//src/dev/mpr121.h **** #pragma once
   2:../../libDaisy//src/dev/mpr121.h **** #ifndef DSY_MPR121_H
   3:../../libDaisy//src/dev/mpr121.h **** #define DSY_MPR121_H
   4:../../libDaisy//src/dev/mpr121.h **** 
   5:../../libDaisy//src/dev/mpr121.h **** // The default I2C address
   6:../../libDaisy//src/dev/mpr121.h **** #define MPR121_I2CADDR_DEFAULT 0x5A        ///< default I2C address
ARM GAS  /var/folders/hl/qgbwny5j0fd895c2c41bk3tw0000gp/T//ccmKeONX.s 			page 22


   7:../../libDaisy//src/dev/mpr121.h **** #define MPR121_TOUCH_THRESHOLD_DEFAULT 12  ///< default touch threshold value
   8:../../libDaisy//src/dev/mpr121.h **** #define MPR121_RELEASE_THRESHOLD_DEFAULT 6 ///< default relese threshold value
   9:../../libDaisy//src/dev/mpr121.h **** 
  10:../../libDaisy//src/dev/mpr121.h **** namespace daisy
  11:../../libDaisy//src/dev/mpr121.h **** {
  12:../../libDaisy//src/dev/mpr121.h **** /** @addtogroup external 
  13:../../libDaisy//src/dev/mpr121.h ****     @{ 
  14:../../libDaisy//src/dev/mpr121.h **** */
  15:../../libDaisy//src/dev/mpr121.h **** 
  16:../../libDaisy//src/dev/mpr121.h **** /** I2C Transport for MPR121 */
  17:../../libDaisy//src/dev/mpr121.h **** class Mpr121I2CTransport
  18:../../libDaisy//src/dev/mpr121.h **** {
  19:../../libDaisy//src/dev/mpr121.h ****   public:
  20:../../libDaisy//src/dev/mpr121.h ****     Mpr121I2CTransport() {}
  21:../../libDaisy//src/dev/mpr121.h ****     ~Mpr121I2CTransport() {}
  22:../../libDaisy//src/dev/mpr121.h **** 
  23:../../libDaisy//src/dev/mpr121.h ****     struct Config
  24:../../libDaisy//src/dev/mpr121.h ****     {
  25:../../libDaisy//src/dev/mpr121.h ****         I2CHandle::Config::Peripheral periph;
  26:../../libDaisy//src/dev/mpr121.h ****         I2CHandle::Config::Speed      speed;
  27:../../libDaisy//src/dev/mpr121.h ****         Pin                           scl;
  28:../../libDaisy//src/dev/mpr121.h ****         Pin                           sda;
  29:../../libDaisy//src/dev/mpr121.h **** 
  30:../../libDaisy//src/dev/mpr121.h ****         I2CHandle::Config::Mode mode;
  31:../../libDaisy//src/dev/mpr121.h **** 
  32:../../libDaisy//src/dev/mpr121.h ****         uint8_t dev_addr;
  33:../../libDaisy//src/dev/mpr121.h **** 
  34:../../libDaisy//src/dev/mpr121.h ****         Config()
  35:../../libDaisy//src/dev/mpr121.h ****         {
  36:../../libDaisy//src/dev/mpr121.h ****             periph = I2CHandle::Config::Peripheral::I2C_1;
  37:../../libDaisy//src/dev/mpr121.h ****             speed  = I2CHandle::Config::Speed::I2C_400KHZ;
  38:../../libDaisy//src/dev/mpr121.h **** 
  39:../../libDaisy//src/dev/mpr121.h ****             scl = Pin(PORTB, 8);
  40:../../libDaisy//src/dev/mpr121.h ****             sda = Pin(PORTB, 9);
  41:../../libDaisy//src/dev/mpr121.h **** 
  42:../../libDaisy//src/dev/mpr121.h ****             dev_addr = MPR121_I2CADDR_DEFAULT;
  43:../../libDaisy//src/dev/mpr121.h ****         }
  44:../../libDaisy//src/dev/mpr121.h ****     };
  45:../../libDaisy//src/dev/mpr121.h **** 
  46:../../libDaisy//src/dev/mpr121.h ****     /** \return Did the transaction error? i.e. Return true if error, false if ok */
  47:../../libDaisy//src/dev/mpr121.h ****     inline bool Init(Config config)
  48:../../libDaisy//src/dev/mpr121.h ****     {
  49:../../libDaisy//src/dev/mpr121.h ****         config_ = config;
  50:../../libDaisy//src/dev/mpr121.h **** 
  51:../../libDaisy//src/dev/mpr121.h ****         I2CHandle::Config i2c_conf;
  52:../../libDaisy//src/dev/mpr121.h ****         i2c_conf.mode   = I2CHandle::Config::Mode::I2C_MASTER;
  53:../../libDaisy//src/dev/mpr121.h ****         i2c_conf.periph = config.periph;
  54:../../libDaisy//src/dev/mpr121.h ****         i2c_conf.speed  = config.speed;
  55:../../libDaisy//src/dev/mpr121.h **** 
  56:../../libDaisy//src/dev/mpr121.h ****         i2c_conf.pin_config.scl = config.scl;
  57:../../libDaisy//src/dev/mpr121.h ****         i2c_conf.pin_config.sda = config.sda;
  58:../../libDaisy//src/dev/mpr121.h **** 
  59:../../libDaisy//src/dev/mpr121.h ****         return I2CHandle::Result::OK != i2c_.Init(i2c_conf);
  60:../../libDaisy//src/dev/mpr121.h ****     }
  61:../../libDaisy//src/dev/mpr121.h **** 
  62:../../libDaisy//src/dev/mpr121.h ****     /** \return Did the transaction error? i.e. Return true if error, false if ok */
  63:../../libDaisy//src/dev/mpr121.h ****     bool Write(uint8_t *data, uint16_t size)
ARM GAS  /var/folders/hl/qgbwny5j0fd895c2c41bk3tw0000gp/T//ccmKeONX.s 			page 23


  64:../../libDaisy//src/dev/mpr121.h ****     {
  65:../../libDaisy//src/dev/mpr121.h ****         return I2CHandle::Result::OK
  66:../../libDaisy//src/dev/mpr121.h ****                != i2c_.TransmitBlocking(config_.dev_addr, data, size, 10);
  67:../../libDaisy//src/dev/mpr121.h ****     }
  68:../../libDaisy//src/dev/mpr121.h **** 
  69:../../libDaisy//src/dev/mpr121.h ****     /** \return Did the transaction error? i.e. Return true if error, false if ok */
  70:../../libDaisy//src/dev/mpr121.h ****     bool Read(uint8_t *data, uint16_t size)
  71:../../libDaisy//src/dev/mpr121.h ****     {
  72:../../libDaisy//src/dev/mpr121.h ****         return I2CHandle::Result::OK
  73:../../libDaisy//src/dev/mpr121.h ****                != i2c_.ReceiveBlocking(config_.dev_addr, data, size, 10);
  74:../../libDaisy//src/dev/mpr121.h ****     }
  75:../../libDaisy//src/dev/mpr121.h **** 
  76:../../libDaisy//src/dev/mpr121.h ****   private:
  77:../../libDaisy//src/dev/mpr121.h ****     I2CHandle i2c_;
  78:../../libDaisy//src/dev/mpr121.h ****     Config    config_;
  79:../../libDaisy//src/dev/mpr121.h **** };
  80:../../libDaisy//src/dev/mpr121.h **** 
  81:../../libDaisy//src/dev/mpr121.h **** 
  82:../../libDaisy//src/dev/mpr121.h **** /** @brief Device support for MPR121 12x Capacitive Touch Sensor
  83:../../libDaisy//src/dev/mpr121.h ****     @author beserge
  84:../../libDaisy//src/dev/mpr121.h ****     @date December 2021
  85:../../libDaisy//src/dev/mpr121.h **** */
  86:../../libDaisy//src/dev/mpr121.h **** template <typename Transport>
  87:../../libDaisy//src/dev/mpr121.h **** class Mpr121
  88:../../libDaisy//src/dev/mpr121.h **** {
  89:../../libDaisy//src/dev/mpr121.h ****   public:
  90:../../libDaisy//src/dev/mpr121.h ****     Mpr121() {}
  91:../../libDaisy//src/dev/mpr121.h ****     ~Mpr121() {}
 229              		.loc 10 91 5 is_stmt 1 view -0
 230              		.cfi_startproc
 231              		@ args = 0, pretend = 0, frame = 0
 232              		@ frame_needed = 0, uses_anonymous_args = 0
 233              		@ link register save eliminated.
 234              	.LBB463:
 235              	.LBI463:
  21:../../libDaisy//src/dev/mpr121.h **** 
 236              		.loc 10 21 5 view .LVU31
  21:../../libDaisy//src/dev/mpr121.h **** 
 237              		.loc 10 21 5 is_stmt 0 view .LVU32
 238              	.LBE463:
 239              		.loc 10 91 16 view .LVU33
 240 0000 7047     		bx	lr
 241              		.cfi_endproc
 242              	.LFE5438:
 244              		.weak	_ZN5daisy6Mpr121INS_18Mpr121I2CTransportEED1Ev
 245              		.thumb_set _ZN5daisy6Mpr121INS_18Mpr121I2CTransportEED1Ev,_ZN5daisy6Mpr121INS_18Mpr121I2CTransport
 246 0002 00BF     		.section	.text._Z13AudioCallbackPKPKfPPfj,"ax",%progbits
 247              		.align	1
 248              		.p2align 2,,3
 249              		.global	_Z13AudioCallbackPKPKfPPfj
 250              		.syntax unified
 251              		.thumb
 252              		.thumb_func
 253              		.fpu fpv5-d16
 255              	_Z13AudioCallbackPKPKfPPfj:
 256              	.LVL12:
 257              	.LFB4827:
ARM GAS  /var/folders/hl/qgbwny5j0fd895c2c41bk3tw0000gp/T//ccmKeONX.s 			page 24


 258              		.file 11 "touchTest.cpp"
   1:touchTest.cpp **** #include "daisy_seed.h"
   2:touchTest.cpp **** #include "daisysp.h"
   3:touchTest.cpp **** #include "dev/oled_ssd130x.h"
   4:touchTest.cpp **** #include "touchEvent.h"
   5:touchTest.cpp **** 
   6:touchTest.cpp **** using namespace daisy;
   7:touchTest.cpp **** using namespace daisysp;
   8:touchTest.cpp **** using namespace seed; 
   9:touchTest.cpp **** 
  10:touchTest.cpp **** DaisySeed 		hw;
  11:touchTest.cpp **** Oscillator 		osc;
  12:touchTest.cpp **** 
  13:touchTest.cpp **** int Freq[12] = {440, 466, 494, 523, 554, 587, 622, 659, 698, 740, 784, 831};
  14:touchTest.cpp **** 
  15:touchTest.cpp **** void AudioCallback(AudioHandle::InputBuffer in, AudioHandle::OutputBuffer out, size_t size)
  16:touchTest.cpp **** {
 259              		.loc 11 16 1 is_stmt 1 view -0
 260              		.cfi_startproc
 261              		@ args = 0, pretend = 0, frame = 0
 262              		@ frame_needed = 0, uses_anonymous_args = 0
  17:touchTest.cpp **** 	int note = TouchedNote();
 263              		.loc 11 17 2 view .LVU35
 264              	.LBB464:
 265              	.LBI464:
 266              		.file 12 "touchEvent.h"
   1:touchEvent.h  **** #pragma once
   2:touchEvent.h  **** #ifndef TOUCHEVENT_H
   3:touchEvent.h  **** #define TOUCHEVENT_H 
   4:touchEvent.h  **** 
   5:touchEvent.h  **** #include "dev/oled_ssd130x.h"
   6:touchEvent.h  **** #include "daisy.h"
   7:touchEvent.h  **** #include "daisy_seed.h"
   8:touchEvent.h  **** 
   9:touchEvent.h  **** extern daisy::DaisySeed hw;
  10:touchEvent.h  **** 
  11:touchEvent.h  **** using Mpr121a = daisy::Mpr121<daisy::Mpr121I2CTransport>;
  12:touchEvent.h  **** using MyOledDisplay = daisy::OledDisplay<daisy::SSD130x4WireSpi128x64Driver>;
  13:touchEvent.h  **** 
  14:touchEvent.h  **** Mpr121a			touch1;
  15:touchEvent.h  **** MyOledDisplay	display;
  16:touchEvent.h  **** 
  17:touchEvent.h  **** uint16_t lasttouched = 0;
  18:touchEvent.h  **** uint16_t currtouched = 0;
  19:touchEvent.h  **** char strbuff[128];
  20:touchEvent.h  **** char strbuff2[128];
  21:touchEvent.h  **** bool gate = false;
  22:touchEvent.h  **** 
  23:touchEvent.h  **** #ifndef _BV
  24:touchEvent.h  **** #define _BV(bit) (1 << (bit)) 
  25:touchEvent.h  **** #endif
  26:touchEvent.h  **** 
  27:touchEvent.h  **** 
  28:touchEvent.h  **** void InitHardware(){
  29:touchEvent.h  ****     // touch stuff
  30:touchEvent.h  **** 	Mpr121a::Config	touch_cfg;
  31:touchEvent.h  **** 	touch1.Init(touch_cfg);
ARM GAS  /var/folders/hl/qgbwny5j0fd895c2c41bk3tw0000gp/T//ccmKeONX.s 			page 25


  32:touchEvent.h  **** 
  33:touchEvent.h  ****     /** Configure the Display */
  34:touchEvent.h  ****     MyOledDisplay::Config disp_cfg;
  35:touchEvent.h  ****     disp_cfg.driver_config.transport_config.pin_config.dc    = hw.GetPin(9);
  36:touchEvent.h  ****     disp_cfg.driver_config.transport_config.pin_config.reset = hw.GetPin(30);
  37:touchEvent.h  ****     /** And Initialize */
  38:touchEvent.h  ****     display.Init(disp_cfg);
  39:touchEvent.h  **** }
  40:touchEvent.h  **** 
  41:touchEvent.h  **** void touchEvent(){
  42:touchEvent.h  ****     currtouched = touch1.Touched();
  43:touchEvent.h  ****     for (uint8_t i=0; i<12; i++) {
  44:touchEvent.h  ****         // it if *is* touched and *wasnt* touched before, alert!
  45:touchEvent.h  ****         if ((currtouched & _BV(i)) && !(lasttouched & _BV(i)) ) {
  46:touchEvent.h  ****             hw.SetLed(true);
  47:touchEvent.h  ****             sprintf(strbuff,"%u",i);
  48:touchEvent.h  ****             gate = true;
  49:touchEvent.h  ****         }
  50:touchEvent.h  ****         // if it *was* touched and now *isnt*, alert!
  51:touchEvent.h  ****         if (!(currtouched & _BV(i)) && (lasttouched & _BV(i)) ) {
  52:touchEvent.h  ****             hw.SetLed(false);
  53:touchEvent.h  ****             sprintf(strbuff, " ");
  54:touchEvent.h  ****             gate = false;
  55:touchEvent.h  ****         }
  56:touchEvent.h  ****     }
  57:touchEvent.h  **** 
  58:touchEvent.h  ****     display.Fill(true);
  59:touchEvent.h  ****     display.SetCursor(0, 0);
  60:touchEvent.h  ****     display.WriteString(strbuff, Font_11x18, false);
  61:touchEvent.h  ****     display.Update();
  62:touchEvent.h  **** 
  63:touchEvent.h  ****     // reset our state
  64:touchEvent.h  ****     lasttouched = currtouched;
  65:touchEvent.h  **** }
  66:touchEvent.h  **** 
  67:touchEvent.h  **** float TouchedNote(){
 267              		.loc 12 67 7 view .LVU36
 268              	.LBB465:
  68:touchEvent.h  ****     return currtouched;
 269              		.loc 12 68 5 view .LVU37
 270              		.loc 12 68 5 is_stmt 0 view .LVU38
 271              	.LBE465:
 272              	.LBE464:
  18:touchTest.cpp **** 	osc.SetFreq(Freq[note]);
 273              		.loc 11 18 2 is_stmt 1 view .LVU39
 274              	.LBB467:
 275              	.LBB466:
 276              		.loc 12 68 12 is_stmt 0 view .LVU40
 277 0000 1348     		ldr	r0, .L17
 278              	.LVL13:
 279              		.loc 12 68 12 view .LVU41
 280              	.LBE466:
 281              	.LBE467:
 282              		.loc 11 18 23 view .LVU42
 283 0002 144B     		ldr	r3, .L17+4
  17:touchTest.cpp **** 	osc.SetFreq(Freq[note]);
 284              		.loc 11 17 25 view .LVU43
ARM GAS  /var/folders/hl/qgbwny5j0fd895c2c41bk3tw0000gp/T//ccmKeONX.s 			page 26


 285 0004 0088     		ldrh	r0, [r0]
 286              	.LVL14:
 287              		.loc 11 18 13 view .LVU44
 288 0006 03EB8003 		add	r3, r3, r0, lsl #2
 289 000a 93ED000A 		vldr.32	s0, [r3]	@ int
  16:touchTest.cpp **** 	int note = TouchedNote();
 290              		.loc 11 16 1 view .LVU45
 291 000e 70B5     		push	{r4, r5, r6, lr}
 292              		.cfi_def_cfa_offset 16
 293              		.cfi_offset 4, -16
 294              		.cfi_offset 5, -12
 295              		.cfi_offset 6, -8
 296              		.cfi_offset 14, -4
 297              		.loc 11 18 13 view .LVU46
 298 0010 B8EEC00A 		vcvt.f32.s32	s0, s0
 299              	.LVL15:
 300              	.LBB468:
 301              	.LBI468:
  17:../../DaisySP//Source/Synthesis/oscillator.h ****     /** Choices for output waveforms, POLYBLEP are appropriately labeled. Others are naive forms.
  18:../../DaisySP//Source/Synthesis/oscillator.h ****     */
  19:../../DaisySP//Source/Synthesis/oscillator.h ****     enum
  20:../../DaisySP//Source/Synthesis/oscillator.h ****     {
  21:../../DaisySP//Source/Synthesis/oscillator.h ****         WAVE_SIN,
  22:../../DaisySP//Source/Synthesis/oscillator.h ****         WAVE_TRI,
  23:../../DaisySP//Source/Synthesis/oscillator.h ****         WAVE_SAW,
  24:../../DaisySP//Source/Synthesis/oscillator.h ****         WAVE_RAMP,
  25:../../DaisySP//Source/Synthesis/oscillator.h ****         WAVE_SQUARE,
  26:../../DaisySP//Source/Synthesis/oscillator.h ****         WAVE_POLYBLEP_TRI,
  27:../../DaisySP//Source/Synthesis/oscillator.h ****         WAVE_POLYBLEP_SAW,
  28:../../DaisySP//Source/Synthesis/oscillator.h ****         WAVE_POLYBLEP_SQUARE,
  29:../../DaisySP//Source/Synthesis/oscillator.h ****         WAVE_LAST,
  30:../../DaisySP//Source/Synthesis/oscillator.h ****     };
  31:../../DaisySP//Source/Synthesis/oscillator.h **** 
  32:../../DaisySP//Source/Synthesis/oscillator.h **** 
  33:../../DaisySP//Source/Synthesis/oscillator.h ****     /** Initializes the Oscillator
  34:../../DaisySP//Source/Synthesis/oscillator.h **** 
  35:../../DaisySP//Source/Synthesis/oscillator.h ****         \param sample_rate - sample rate of the audio engine being run, and the frequency that the 
  36:../../DaisySP//Source/Synthesis/oscillator.h **** 
  37:../../DaisySP//Source/Synthesis/oscillator.h ****         Defaults:
  38:../../DaisySP//Source/Synthesis/oscillator.h ****         - freq_ = 100 Hz
  39:../../DaisySP//Source/Synthesis/oscillator.h ****         - amp_ = 0.5
  40:../../DaisySP//Source/Synthesis/oscillator.h ****         - waveform_ = sine wave.
  41:../../DaisySP//Source/Synthesis/oscillator.h ****     */
  42:../../DaisySP//Source/Synthesis/oscillator.h ****     void Init(float sample_rate)
  43:../../DaisySP//Source/Synthesis/oscillator.h ****     {
  44:../../DaisySP//Source/Synthesis/oscillator.h ****         sr_        = sample_rate;
  45:../../DaisySP//Source/Synthesis/oscillator.h ****         sr_recip_  = 1.0f / sample_rate;
  46:../../DaisySP//Source/Synthesis/oscillator.h ****         freq_      = 100.0f;
  47:../../DaisySP//Source/Synthesis/oscillator.h ****         amp_       = 0.5f;
  48:../../DaisySP//Source/Synthesis/oscillator.h ****         pw_        = 0.5f;
  49:../../DaisySP//Source/Synthesis/oscillator.h ****         pw_rad_    = pw_ * TWOPI_F;
  50:../../DaisySP//Source/Synthesis/oscillator.h ****         phase_     = 0.0f;
  51:../../DaisySP//Source/Synthesis/oscillator.h ****         phase_inc_ = CalcPhaseInc(freq_);
  52:../../DaisySP//Source/Synthesis/oscillator.h ****         waveform_  = WAVE_SIN;
  53:../../DaisySP//Source/Synthesis/oscillator.h ****         eoc_       = true;
  54:../../DaisySP//Source/Synthesis/oscillator.h ****         eor_       = true;
  55:../../DaisySP//Source/Synthesis/oscillator.h ****     }
ARM GAS  /var/folders/hl/qgbwny5j0fd895c2c41bk3tw0000gp/T//ccmKeONX.s 			page 27


  56:../../DaisySP//Source/Synthesis/oscillator.h **** 
  57:../../DaisySP//Source/Synthesis/oscillator.h **** 
  58:../../DaisySP//Source/Synthesis/oscillator.h ****     /** Changes the frequency of the Oscillator, and recalculates phase increment.
  59:../../DaisySP//Source/Synthesis/oscillator.h ****     */
  60:../../DaisySP//Source/Synthesis/oscillator.h ****     inline void SetFreq(const float f)
 302              		.loc 6 60 17 is_stmt 1 view .LVU47
 303              	.LBB469:
  61:../../DaisySP//Source/Synthesis/oscillator.h ****     {
  62:../../DaisySP//Source/Synthesis/oscillator.h ****         freq_      = f;
 304              		.loc 6 62 9 view .LVU48
 305              		.loc 6 62 20 is_stmt 0 view .LVU49
 306 0014 104C     		ldr	r4, .L17+8
 307              	.LBE469:
 308              	.LBE468:
  16:touchTest.cpp **** 	int note = TouchedNote();
 309              		.loc 11 16 1 view .LVU50
 310 0016 1646     		mov	r6, r2
 311 0018 0D46     		mov	r5, r1
 312              	.LBB471:
 313              	.LBB470:
  63:../../DaisySP//Source/Synthesis/oscillator.h ****         phase_inc_ = CalcPhaseInc(f);
 314              		.loc 6 63 34 view .LVU51
 315 001a 2046     		mov	r0, r4
 316              	.LVL16:
  62:../../DaisySP//Source/Synthesis/oscillator.h ****         phase_inc_ = CalcPhaseInc(f);
 317              		.loc 6 62 20 view .LVU52
 318 001c 84ED020A 		vstr.32	s0, [r4, #8]
 319              		.loc 6 63 9 is_stmt 1 view .LVU53
 320              		.loc 6 63 34 is_stmt 0 view .LVU54
 321 0020 FFF7FEFF 		bl	_ZN7daisysp10Oscillator12CalcPhaseIncEf
 322              	.LVL17:
 323              		.loc 6 63 20 view .LVU55
 324 0024 84ED080A 		vstr.32	s0, [r4, #32]
 325              	.LVL18:
 326              		.loc 6 63 20 view .LVU56
 327              	.LBE470:
 328              	.LBE471:
  19:touchTest.cpp **** 	for (size_t i = 0; i < size; i++)
 329              		.loc 11 19 2 is_stmt 1 view .LVU57
 330              	.LBB472:
 331              		.loc 11 19 23 view .LVU58
 332 0028 86B1     		cbz	r6, .L9
 333              		.loc 11 19 14 is_stmt 0 view .LVU59
 334 002a 0024     		movs	r4, #0
 335              	.LVL19:
 336              	.L11:
 337              	.LBB473:
  20:touchTest.cpp **** 	{
  21:touchTest.cpp **** 		float sig = osc.Process();
 338              		.loc 11 21 3 is_stmt 1 discriminator 2 view .LVU60
 339              		.loc 11 21 26 is_stmt 0 discriminator 2 view .LVU61
 340 002c 0A48     		ldr	r0, .L17+8
 341 002e FFF7FEFF 		bl	_ZN7daisysp10Oscillator7ProcessEv
 342              	.LVL20:
  22:touchTest.cpp **** 
  23:touchTest.cpp **** 		out[0][i] = sig;
  24:touchTest.cpp **** 		out[1][i] = sig;
ARM GAS  /var/folders/hl/qgbwny5j0fd895c2c41bk3tw0000gp/T//ccmKeONX.s 			page 28


 343              		.loc 11 24 13 discriminator 2 view .LVU62
 344 0032 D5E90003 		ldrd	r0, r3, [r5]
 345              	.LVL21:
  23:touchTest.cpp **** 		out[1][i] = sig;
 346              		.loc 11 23 3 is_stmt 1 discriminator 2 view .LVU63
  23:touchTest.cpp **** 		out[1][i] = sig;
 347              		.loc 11 23 13 is_stmt 0 discriminator 2 view .LVU64
 348 0036 00EB8400 		add	r0, r0, r4, lsl #2
 349              		.loc 11 24 13 discriminator 2 view .LVU65
 350 003a 03EB8403 		add	r3, r3, r4, lsl #2
 351              	.LBE473:
  19:touchTest.cpp **** 	{
 352              		.loc 11 19 2 discriminator 2 view .LVU66
 353 003e 0134     		adds	r4, r4, #1
 354              	.LVL22:
 355              	.LBB474:
  23:touchTest.cpp **** 		out[1][i] = sig;
 356              		.loc 11 23 13 discriminator 2 view .LVU67
 357 0040 80ED000A 		vstr.32	s0, [r0]
 358              		.loc 11 24 3 is_stmt 1 discriminator 2 view .LVU68
 359              	.LBE474:
  19:touchTest.cpp **** 	{
 360              		.loc 11 19 23 is_stmt 0 discriminator 2 view .LVU69
 361 0044 A642     		cmp	r6, r4
 362              	.LBB475:
 363              		.loc 11 24 13 discriminator 2 view .LVU70
 364 0046 83ED000A 		vstr.32	s0, [r3]
 365              	.LBE475:
  19:touchTest.cpp **** 	{
 366              		.loc 11 19 2 is_stmt 1 discriminator 2 view .LVU71
 367              	.LVL23:
  19:touchTest.cpp **** 	{
 368              		.loc 11 19 23 discriminator 2 view .LVU72
 369 004a EFD1     		bne	.L11
 370              	.LVL24:
 371              	.L9:
  19:touchTest.cpp **** 	{
 372              		.loc 11 19 23 is_stmt 0 discriminator 2 view .LVU73
 373              	.LBE472:
  25:touchTest.cpp **** 	} 
  26:touchTest.cpp **** }
 374              		.loc 11 26 1 view .LVU74
 375 004c 70BD     		pop	{r4, r5, r6, pc}
 376              	.LVL25:
 377              	.L18:
 378              		.loc 11 26 1 view .LVU75
 379 004e 00BF     		.align	2
 380              	.L17:
 381 0050 00000000 		.word	.LANCHOR1
 382 0054 00000000 		.word	.LANCHOR0
 383 0058 00000000 		.word	.LANCHOR2
 384              		.cfi_endproc
 385              	.LFE4827:
 387              		.section	.text._ZN5daisy11OledDisplayINS_13SSD130xDriverILj128ELj64ENS_24SSD130x4WireSpiTransportE
 388              		.align	1
 389              		.p2align 2,,3
 390              		.weak	_ZN5daisy11OledDisplayINS_13SSD130xDriverILj128ELj64ENS_24SSD130x4WireSpiTransportEEEED0Ev
ARM GAS  /var/folders/hl/qgbwny5j0fd895c2c41bk3tw0000gp/T//ccmKeONX.s 			page 29


 391              		.syntax unified
 392              		.thumb
 393              		.thumb_func
 394              		.fpu fpv5-d16
 396              	_ZN5daisy11OledDisplayINS_13SSD130xDriverILj128ELj64ENS_24SSD130x4WireSpiTransportEEEED0Ev:
 397              	.LVL26:
 398              	.LFB5430:
  18:../../libDaisy//src/hid/disp/oled_display.h **** 
 399              		.loc 7 18 13 is_stmt 1 view -0
 400              		.cfi_startproc
 401              		@ args = 0, pretend = 0, frame = 0
 402              		@ frame_needed = 0, uses_anonymous_args = 0
  18:../../libDaisy//src/hid/disp/oled_display.h **** 
 403              		.loc 7 18 13 is_stmt 0 view .LVU77
 404 0000 10B5     		push	{r4, lr}
 405              		.cfi_def_cfa_offset 8
 406              		.cfi_offset 4, -8
 407              		.cfi_offset 14, -4
  18:../../libDaisy//src/hid/disp/oled_display.h **** 
 408              		.loc 7 18 13 view .LVU78
 409 0002 0446     		mov	r4, r0
 410              	.LVL27:
 411              	.LBB476:
 412              	.LBI476:
  18:../../libDaisy//src/hid/disp/oled_display.h **** 
 413              		.loc 7 18 13 is_stmt 1 view .LVU79
 414              	.LBB477:
 415              	.LBI477:
 416              		.loc 9 219 13 view .LVU80
 417              	.LBB478:
 418              	.LBI478:
  23:../../libDaisy//src/hid/disp/display.h **** 
 419              		.loc 9 23 13 view .LVU81
  23:../../libDaisy//src/hid/disp/display.h **** 
 420              		.loc 9 23 13 is_stmt 0 view .LVU82
 421              	.LBE478:
 422              	.LBE477:
 423              	.LBE476:
  18:../../libDaisy//src/hid/disp/oled_display.h **** 
 424              		.loc 7 18 29 view .LVU83
 425 0004 40F21441 		movw	r1, #1044
 426 0008 FFF7FEFF 		bl	_ZdlPvj
 427              	.LVL28:
  18:../../libDaisy//src/hid/disp/oled_display.h **** 
 428              		.loc 7 18 29 view .LVU84
 429 000c 2046     		mov	r0, r4
 430 000e 10BD     		pop	{r4, pc}
  18:../../libDaisy//src/hid/disp/oled_display.h **** 
 431              		.loc 7 18 29 view .LVU85
 432              		.cfi_endproc
 433              	.LFE5430:
 435              		.section	.text._ZN5daisy11OledDisplayINS_13SSD130xDriverILj128ELj64ENS_24SSD130x4WireSpiTransportE
 436              		.align	1
 437              		.p2align 2,,3
 438              		.weak	_ZN5daisy11OledDisplayINS_13SSD130xDriverILj128ELj64ENS_24SSD130x4WireSpiTransportEEEE6Updat
 439              		.syntax unified
 440              		.thumb
ARM GAS  /var/folders/hl/qgbwny5j0fd895c2c41bk3tw0000gp/T//ccmKeONX.s 			page 30


 441              		.thumb_func
 442              		.fpu fpv5-d16
 444              	_ZN5daisy11OledDisplayINS_13SSD130xDriverILj128ELj64ENS_24SSD130x4WireSpiTransportEEEE6UpdateEv:
 445              	.LVL29:
 446              	.LFB5153:
  35:../../libDaisy//src/hid/disp/oled_display.h **** 
  36:../../libDaisy//src/hid/disp/oled_display.h ****     /**
  37:../../libDaisy//src/hid/disp/oled_display.h ****     Sets the pixel at the specified coordinate to be on/off.
  38:../../libDaisy//src/hid/disp/oled_display.h ****     \param x   x Coordinate
  39:../../libDaisy//src/hid/disp/oled_display.h ****     \param y   y coordinate
  40:../../libDaisy//src/hid/disp/oled_display.h ****     \param on  on or off
  41:../../libDaisy//src/hid/disp/oled_display.h ****     */
  42:../../libDaisy//src/hid/disp/oled_display.h ****     void DrawPixel(uint_fast8_t x, uint_fast8_t y, bool on) override
  43:../../libDaisy//src/hid/disp/oled_display.h ****     {
  44:../../libDaisy//src/hid/disp/oled_display.h ****         driver_.DrawPixel(x, y, on);
  45:../../libDaisy//src/hid/disp/oled_display.h ****     }
  46:../../libDaisy//src/hid/disp/oled_display.h **** 
  47:../../libDaisy//src/hid/disp/oled_display.h ****     /** 
  48:../../libDaisy//src/hid/disp/oled_display.h ****     Writes the current display buffer to the OLED device using SPI or I2C depending on 
  49:../../libDaisy//src/hid/disp/oled_display.h ****     how the object was initialized.
  50:../../libDaisy//src/hid/disp/oled_display.h ****     */
  51:../../libDaisy//src/hid/disp/oled_display.h ****     void Update() override { driver_.Update(); }
 447              		.loc 7 51 10 is_stmt 1 view -0
 448              		.cfi_startproc
 449              		@ args = 0, pretend = 0, frame = 8
 450              		@ frame_needed = 0, uses_anonymous_args = 0
 451              	.LBB489:
 452              	.LBI489:
 367:../../libDaisy//src/dev/oled_ssd130x.h ****         }
 368:../../libDaisy//src/dev/oled_ssd130x.h ****     };
 369:../../libDaisy//src/dev/oled_ssd130x.h **** 
 370:../../libDaisy//src/dev/oled_ssd130x.h ****     /**
 371:../../libDaisy//src/dev/oled_ssd130x.h ****      * Update the display 
 372:../../libDaisy//src/dev/oled_ssd130x.h ****     */
 373:../../libDaisy//src/dev/oled_ssd130x.h ****     void Update()
 453              		.loc 8 373 10 view .LVU87
 454              	.LBB490:
 374:../../libDaisy//src/dev/oled_ssd130x.h ****     {
 375:../../libDaisy//src/dev/oled_ssd130x.h ****         uint8_t i;
 376:../../libDaisy//src/dev/oled_ssd130x.h ****         uint8_t high_column_addr;
 377:../../libDaisy//src/dev/oled_ssd130x.h ****         switch(height)
 378:../../libDaisy//src/dev/oled_ssd130x.h ****         {
 379:../../libDaisy//src/dev/oled_ssd130x.h ****             case 32: high_column_addr = 0x12; break;
 380:../../libDaisy//src/dev/oled_ssd130x.h **** 
 381:../../libDaisy//src/dev/oled_ssd130x.h ****             default: high_column_addr = 0x10; break;
 382:../../libDaisy//src/dev/oled_ssd130x.h ****         }
 383:../../libDaisy//src/dev/oled_ssd130x.h ****         for(i = 0; i < (height / 8); i++)
 455              		.loc 8 383 22 view .LVU88
 456              	.LBE490:
 457              	.LBE489:
 458              		.loc 7 51 10 is_stmt 0 view .LVU89
 459 0000 2DE9F041 		push	{r4, r5, r6, r7, r8, lr}
 460              		.cfi_def_cfa_offset 24
 461              		.cfi_offset 4, -24
 462              		.cfi_offset 5, -20
 463              		.cfi_offset 6, -16
 464              		.cfi_offset 7, -12
ARM GAS  /var/folders/hl/qgbwny5j0fd895c2c41bk3tw0000gp/T//ccmKeONX.s 			page 31


 465              		.cfi_offset 8, -8
 466              		.cfi_offset 14, -4
 467              	.LBB512:
 468              	.LBB510:
 469              	.LBB491:
 470              	.LBB492:
 125:../../libDaisy//src/dev/oled_ssd130x.h ****     };
 471              		.loc 8 125 30 view .LVU90
 472 0004 B024     		movs	r4, #176
 473              	.LBE492:
 474              	.LBE491:
 475              	.LBE510:
 476              	.LBE512:
 477              		.loc 7 51 10 view .LVU91
 478 0006 82B0     		sub	sp, sp, #8
 479              		.cfi_def_cfa_offset 32
 480              	.LBB513:
 481              	.LBB511:
 482              	.LBB497:
 483              	.LBB493:
 124:../../libDaisy//src/dev/oled_ssd130x.h ****         spi_.BlockingTransmit(&cmd, 1);
 484              		.loc 8 124 24 view .LVU92
 485 0008 00F10806 		add	r6, r0, #8
 486 000c 00F11005 		add	r5, r0, #16
 487 0010 00F11408 		add	r8, r0, #20
 488              	.LVL30:
 489              	.L22:
 124:../../libDaisy//src/dev/oled_ssd130x.h ****         spi_.BlockingTransmit(&cmd, 1);
 490              		.loc 8 124 24 view .LVU93
 491 0014 0027     		movs	r7, #0
 124:../../libDaisy//src/dev/oled_ssd130x.h ****         spi_.BlockingTransmit(&cmd, 1);
 492              		.loc 8 124 23 view .LVU94
 493 0016 2846     		mov	r0, r5
 494 0018 8DF80740 		strb	r4, [sp, #7]
 495              	.LVL31:
 124:../../libDaisy//src/dev/oled_ssd130x.h ****         spi_.BlockingTransmit(&cmd, 1);
 496              		.loc 8 124 23 view .LVU95
 497              	.LBE493:
 498              	.LBI491:
 122:../../libDaisy//src/dev/oled_ssd130x.h ****     {
 499              		.loc 8 122 10 is_stmt 1 view .LVU96
 500              	.LBB494:
 124:../../libDaisy//src/dev/oled_ssd130x.h ****         spi_.BlockingTransmit(&cmd, 1);
 501              		.loc 8 124 9 view .LVU97
 502              	.LBE494:
 503              	.LBE497:
 504              		.loc 8 383 22 is_stmt 0 view .LVU98
 505 001c 0134     		adds	r4, r4, #1
 506              	.LVL32:
 507              	.LBB498:
 508              	.LBB495:
 124:../../libDaisy//src/dev/oled_ssd130x.h ****         spi_.BlockingTransmit(&cmd, 1);
 509              		.loc 8 124 23 view .LVU99
 510 001e 3946     		mov	r1, r7
 511 0020 FFF7FEFF 		bl	dsy_gpio_write
 512              	.LVL33:
 125:../../libDaisy//src/dev/oled_ssd130x.h ****     };
ARM GAS  /var/folders/hl/qgbwny5j0fd895c2c41bk3tw0000gp/T//ccmKeONX.s 			page 32


 513              		.loc 8 125 9 is_stmt 1 view .LVU100
 125:../../libDaisy//src/dev/oled_ssd130x.h ****     };
 514              		.loc 8 125 30 is_stmt 0 view .LVU101
 515 0024 6423     		movs	r3, #100
 516 0026 0122     		movs	r2, #1
 517 0028 0DF10701 		add	r1, sp, #7
 518 002c 3046     		mov	r0, r6
 519              	.LBE495:
 520              	.LBE498:
 521              		.loc 8 383 22 view .LVU102
 522 002e E4B2     		uxtb	r4, r4
 523              	.LBB499:
 524              	.LBB496:
 125:../../libDaisy//src/dev/oled_ssd130x.h ****     };
 525              		.loc 8 125 30 view .LVU103
 526 0030 FFF7FEFF 		bl	_ZN5daisy9SpiHandle16BlockingTransmitEPhjm
 527              	.LVL34:
 125:../../libDaisy//src/dev/oled_ssd130x.h ****     };
 528              		.loc 8 125 30 view .LVU104
 529              	.LBE496:
 530              	.LBE499:
 531              	.LBB500:
 532              	.LBB501:
 124:../../libDaisy//src/dev/oled_ssd130x.h ****         spi_.BlockingTransmit(&cmd, 1);
 533              		.loc 8 124 23 view .LVU105
 534 0034 3946     		mov	r1, r7
 535 0036 2846     		mov	r0, r5
 536 0038 8DF80770 		strb	r7, [sp, #7]
 537              	.LVL35:
 124:../../libDaisy//src/dev/oled_ssd130x.h ****         spi_.BlockingTransmit(&cmd, 1);
 538              		.loc 8 124 23 view .LVU106
 539              	.LBE501:
 540              	.LBI500:
 122:../../libDaisy//src/dev/oled_ssd130x.h ****     {
 541              		.loc 8 122 10 is_stmt 1 view .LVU107
 542              	.LBB502:
 124:../../libDaisy//src/dev/oled_ssd130x.h ****         spi_.BlockingTransmit(&cmd, 1);
 543              		.loc 8 124 9 view .LVU108
 124:../../libDaisy//src/dev/oled_ssd130x.h ****         spi_.BlockingTransmit(&cmd, 1);
 544              		.loc 8 124 23 is_stmt 0 view .LVU109
 545 003c FFF7FEFF 		bl	dsy_gpio_write
 546              	.LVL36:
 125:../../libDaisy//src/dev/oled_ssd130x.h ****     };
 547              		.loc 8 125 9 is_stmt 1 view .LVU110
 125:../../libDaisy//src/dev/oled_ssd130x.h ****     };
 548              		.loc 8 125 30 is_stmt 0 view .LVU111
 549 0040 0122     		movs	r2, #1
 550 0042 6423     		movs	r3, #100
 551 0044 0DF10701 		add	r1, sp, #7
 552 0048 3046     		mov	r0, r6
 553 004a FFF7FEFF 		bl	_ZN5daisy9SpiHandle16BlockingTransmitEPhjm
 554              	.LVL37:
 125:../../libDaisy//src/dev/oled_ssd130x.h ****     };
 555              		.loc 8 125 30 view .LVU112
 556 004e 1023     		movs	r3, #16
 557              	.LBE502:
 558              	.LBE500:
ARM GAS  /var/folders/hl/qgbwny5j0fd895c2c41bk3tw0000gp/T//ccmKeONX.s 			page 33


 559              	.LBB503:
 560              	.LBB504:
 124:../../libDaisy//src/dev/oled_ssd130x.h ****         spi_.BlockingTransmit(&cmd, 1);
 561              		.loc 8 124 23 view .LVU113
 562 0050 3946     		mov	r1, r7
 563 0052 2846     		mov	r0, r5
 564 0054 8DF80730 		strb	r3, [sp, #7]
 565              	.LVL38:
 124:../../libDaisy//src/dev/oled_ssd130x.h ****         spi_.BlockingTransmit(&cmd, 1);
 566              		.loc 8 124 23 view .LVU114
 567              	.LBE504:
 568              	.LBI503:
 122:../../libDaisy//src/dev/oled_ssd130x.h ****     {
 569              		.loc 8 122 10 is_stmt 1 view .LVU115
 570              	.LBB505:
 124:../../libDaisy//src/dev/oled_ssd130x.h ****         spi_.BlockingTransmit(&cmd, 1);
 571              		.loc 8 124 9 view .LVU116
 124:../../libDaisy//src/dev/oled_ssd130x.h ****         spi_.BlockingTransmit(&cmd, 1);
 572              		.loc 8 124 23 is_stmt 0 view .LVU117
 573 0058 FFF7FEFF 		bl	dsy_gpio_write
 574              	.LVL39:
 125:../../libDaisy//src/dev/oled_ssd130x.h ****     };
 575              		.loc 8 125 9 is_stmt 1 view .LVU118
 125:../../libDaisy//src/dev/oled_ssd130x.h ****     };
 576              		.loc 8 125 30 is_stmt 0 view .LVU119
 577 005c 6423     		movs	r3, #100
 578 005e 0122     		movs	r2, #1
 579 0060 0DF10701 		add	r1, sp, #7
 580 0064 3046     		mov	r0, r6
 581 0066 FFF7FEFF 		bl	_ZN5daisy9SpiHandle16BlockingTransmitEPhjm
 582              	.LVL40:
 125:../../libDaisy//src/dev/oled_ssd130x.h ****     };
 583              		.loc 8 125 30 view .LVU120
 584              	.LBE505:
 585              	.LBE503:
 586              	.LBB506:
 587              	.LBI506:
 128:../../libDaisy//src/dev/oled_ssd130x.h ****     {
 588              		.loc 8 128 10 is_stmt 1 view .LVU121
 589              	.LBB507:
 130:../../libDaisy//src/dev/oled_ssd130x.h ****         spi_.BlockingTransmit(buff, size);
 590              		.loc 8 130 9 view .LVU122
 130:../../libDaisy//src/dev/oled_ssd130x.h ****         spi_.BlockingTransmit(buff, size);
 591              		.loc 8 130 23 is_stmt 0 view .LVU123
 592 006a 0121     		movs	r1, #1
 593 006c 2846     		mov	r0, r5
 594 006e FFF7FEFF 		bl	dsy_gpio_write
 595              	.LVL41:
 131:../../libDaisy//src/dev/oled_ssd130x.h ****     };
 596              		.loc 8 131 9 is_stmt 1 view .LVU124
 131:../../libDaisy//src/dev/oled_ssd130x.h ****     };
 597              		.loc 8 131 30 is_stmt 0 view .LVU125
 598 0072 8022     		movs	r2, #128
 599 0074 4146     		mov	r1, r8
 600 0076 6423     		movs	r3, #100
 601 0078 3046     		mov	r0, r6
 602              	.LBE507:
ARM GAS  /var/folders/hl/qgbwny5j0fd895c2c41bk3tw0000gp/T//ccmKeONX.s 			page 34


 603              	.LBE506:
 604              		.loc 8 383 22 view .LVU126
 605 007a 9044     		add	r8, r8, r2
 606              	.LVL42:
 607              	.LBB509:
 608              	.LBB508:
 131:../../libDaisy//src/dev/oled_ssd130x.h ****     };
 609              		.loc 8 131 30 view .LVU127
 610 007c FFF7FEFF 		bl	_ZN5daisy9SpiHandle16BlockingTransmitEPhjm
 611              	.LVL43:
 131:../../libDaisy//src/dev/oled_ssd130x.h ****     };
 612              		.loc 8 131 30 view .LVU128
 613              	.LBE508:
 614              	.LBE509:
 615              		.loc 8 383 9 is_stmt 1 view .LVU129
 616              		.loc 8 383 22 view .LVU130
 617 0080 B82C     		cmp	r4, #184
 618 0082 C7D1     		bne	.L22
 619              	.LBE511:
 620              	.LBE513:
 621              		.loc 7 51 48 is_stmt 0 view .LVU131
 622 0084 02B0     		add	sp, sp, #8
 623              		.cfi_def_cfa_offset 24
 624              		@ sp needed
 625 0086 BDE8F081 		pop	{r4, r5, r6, r7, r8, pc}
 626              		.loc 7 51 48 view .LVU132
 627              		.cfi_endproc
 628              	.LFE5153:
 630 008a 00BF     		.section	.text._ZN5daisy25OneBitGraphicsDisplayImplINS_11OledDisplayINS_13SSD130xDriverILj128ELj64
 631              		.align	1
 632              		.p2align 2,,3
 633              		.weak	_ZN5daisy25OneBitGraphicsDisplayImplINS_11OledDisplayINS_13SSD130xDriverILj128ELj64ENS_24SSD
 634              		.syntax unified
 635              		.thumb
 636              		.thumb_func
 637              		.fpu fpv5-d16
 639              	_ZN5daisy25OneBitGraphicsDisplayImplINS_11OledDisplayINS_13SSD130xDriverILj128ELj64ENS_24SSD130x4Wi
 640              	.LVL44:
 641              	.LFB5285:
 220:../../libDaisy//src/hid/disp/display.h **** 
 221:../../libDaisy//src/hid/disp/display.h ****     void DrawLine(uint_fast8_t x1,
 222:../../libDaisy//src/hid/disp/display.h ****                   uint_fast8_t y1,
 223:../../libDaisy//src/hid/disp/display.h ****                   uint_fast8_t x2,
 224:../../libDaisy//src/hid/disp/display.h ****                   uint_fast8_t y2,
 225:../../libDaisy//src/hid/disp/display.h ****                   bool         on) override
 226:../../libDaisy//src/hid/disp/display.h ****     {
 227:../../libDaisy//src/hid/disp/display.h ****         int_fast16_t deltaX = abs((int_fast16_t)x2 - (int_fast16_t)x1);
 228:../../libDaisy//src/hid/disp/display.h ****         int_fast16_t deltaY = abs((int_fast16_t)y2 - (int_fast16_t)y1);
 229:../../libDaisy//src/hid/disp/display.h ****         int_fast16_t signX  = ((x1 < x2) ? 1 : -1);
 230:../../libDaisy//src/hid/disp/display.h ****         int_fast16_t signY  = ((y1 < y2) ? 1 : -1);
 231:../../libDaisy//src/hid/disp/display.h ****         int_fast16_t error  = deltaX - deltaY;
 232:../../libDaisy//src/hid/disp/display.h ****         int_fast16_t error2;
 233:../../libDaisy//src/hid/disp/display.h **** 
 234:../../libDaisy//src/hid/disp/display.h ****         // If we write "ChildType::DrawPixel(x2, y2, on);", we end up with
 235:../../libDaisy//src/hid/disp/display.h ****         // all sorts of weird compiler errors when the Child class is a template
 236:../../libDaisy//src/hid/disp/display.h ****         // class. The only way around this is to use this very verbose syntax:
 237:../../libDaisy//src/hid/disp/display.h ****         ((ChildType*)(this))->ChildType::DrawPixel(x2, y2, on);
ARM GAS  /var/folders/hl/qgbwny5j0fd895c2c41bk3tw0000gp/T//ccmKeONX.s 			page 35


 238:../../libDaisy//src/hid/disp/display.h **** 
 239:../../libDaisy//src/hid/disp/display.h ****         while((x1 != x2) || (y1 != y2))
 240:../../libDaisy//src/hid/disp/display.h ****         {
 241:../../libDaisy//src/hid/disp/display.h ****             ((ChildType*)(this))->ChildType::DrawPixel(x1, y1, on);
 242:../../libDaisy//src/hid/disp/display.h ****             error2 = error * 2;
 243:../../libDaisy//src/hid/disp/display.h ****             if(error2 > -deltaY)
 244:../../libDaisy//src/hid/disp/display.h ****             {
 245:../../libDaisy//src/hid/disp/display.h ****                 error -= deltaY;
 246:../../libDaisy//src/hid/disp/display.h ****                 x1 += signX;
 247:../../libDaisy//src/hid/disp/display.h ****             }
 248:../../libDaisy//src/hid/disp/display.h **** 
 249:../../libDaisy//src/hid/disp/display.h ****             if(error2 < deltaX)
 250:../../libDaisy//src/hid/disp/display.h ****             {
 251:../../libDaisy//src/hid/disp/display.h ****                 error += deltaX;
 252:../../libDaisy//src/hid/disp/display.h ****                 y1 += signY;
 253:../../libDaisy//src/hid/disp/display.h ****             }
 254:../../libDaisy//src/hid/disp/display.h ****         }
 255:../../libDaisy//src/hid/disp/display.h ****     }
 256:../../libDaisy//src/hid/disp/display.h **** 
 257:../../libDaisy//src/hid/disp/display.h ****     void DrawRect(uint_fast8_t x1,
 258:../../libDaisy//src/hid/disp/display.h ****                   uint_fast8_t y1,
 259:../../libDaisy//src/hid/disp/display.h ****                   uint_fast8_t x2,
 260:../../libDaisy//src/hid/disp/display.h ****                   uint_fast8_t y2,
 261:../../libDaisy//src/hid/disp/display.h ****                   bool         on,
 262:../../libDaisy//src/hid/disp/display.h ****                   bool         fill = false) override
 263:../../libDaisy//src/hid/disp/display.h ****     {
 264:../../libDaisy//src/hid/disp/display.h ****         if(fill)
 265:../../libDaisy//src/hid/disp/display.h ****         {
 266:../../libDaisy//src/hid/disp/display.h ****             for(uint_fast8_t x = x1; x <= x2; x++)
 267:../../libDaisy//src/hid/disp/display.h ****             {
 268:../../libDaisy//src/hid/disp/display.h ****                 for(uint_fast8_t y = y1; y <= y2; y++)
 269:../../libDaisy//src/hid/disp/display.h ****                 {
 270:../../libDaisy//src/hid/disp/display.h ****                     ((ChildType*)(this))->ChildType::DrawPixel(x, y, on);
 271:../../libDaisy//src/hid/disp/display.h ****                 }
 272:../../libDaisy//src/hid/disp/display.h ****             }
 273:../../libDaisy//src/hid/disp/display.h ****         }
 274:../../libDaisy//src/hid/disp/display.h ****         else
 275:../../libDaisy//src/hid/disp/display.h ****         {
 276:../../libDaisy//src/hid/disp/display.h ****             ((ChildType*)(this))->ChildType::DrawLine(x1, y1, x2, y1, on);
 277:../../libDaisy//src/hid/disp/display.h ****             ((ChildType*)(this))->ChildType::DrawLine(x2, y1, x2, y2, on);
 278:../../libDaisy//src/hid/disp/display.h ****             ((ChildType*)(this))->ChildType::DrawLine(x2, y2, x1, y2, on);
 279:../../libDaisy//src/hid/disp/display.h ****             ((ChildType*)(this))->ChildType::DrawLine(x1, y2, x1, y1, on);
 280:../../libDaisy//src/hid/disp/display.h ****         }
 281:../../libDaisy//src/hid/disp/display.h ****     }
 282:../../libDaisy//src/hid/disp/display.h **** 
 283:../../libDaisy//src/hid/disp/display.h ****     void DrawArc(uint_fast8_t x,
 284:../../libDaisy//src/hid/disp/display.h ****                  uint_fast8_t y,
 285:../../libDaisy//src/hid/disp/display.h ****                  uint_fast8_t radius,
 286:../../libDaisy//src/hid/disp/display.h ****                  int_fast16_t start_angle,
 287:../../libDaisy//src/hid/disp/display.h ****                  int_fast16_t sweep,
 288:../../libDaisy//src/hid/disp/display.h ****                  bool         on) override
 289:../../libDaisy//src/hid/disp/display.h ****     {
 290:../../libDaisy//src/hid/disp/display.h ****         // Values to calculate the circle
 291:../../libDaisy//src/hid/disp/display.h ****         int_fast16_t t_x, t_y, err, e2;
 292:../../libDaisy//src/hid/disp/display.h **** 
 293:../../libDaisy//src/hid/disp/display.h ****         // Temporary values to speed up comparisons
 294:../../libDaisy//src/hid/disp/display.h ****         float t_sxy, t_syx, t_sxny, t_synx;
ARM GAS  /var/folders/hl/qgbwny5j0fd895c2c41bk3tw0000gp/T//ccmKeONX.s 			page 36


 295:../../libDaisy//src/hid/disp/display.h ****         float t_exy, t_eyx, t_exny, t_eynx;
 296:../../libDaisy//src/hid/disp/display.h **** 
 297:../../libDaisy//src/hid/disp/display.h ****         float start_angle_rad, end_angle_rad;
 298:../../libDaisy//src/hid/disp/display.h ****         float start_x, start_y, end_x, end_y;
 299:../../libDaisy//src/hid/disp/display.h **** 
 300:../../libDaisy//src/hid/disp/display.h ****         bool d1, d2, d3, d4;
 301:../../libDaisy//src/hid/disp/display.h **** 
 302:../../libDaisy//src/hid/disp/display.h ****         d1 = d2 = d3 = d4 = true;
 303:../../libDaisy//src/hid/disp/display.h **** 
 304:../../libDaisy//src/hid/disp/display.h ****         bool circle = false;
 305:../../libDaisy//src/hid/disp/display.h **** 
 306:../../libDaisy//src/hid/disp/display.h ****         if(sweep < 0)
 307:../../libDaisy//src/hid/disp/display.h ****         {
 308:../../libDaisy//src/hid/disp/display.h ****             start_angle += sweep;
 309:../../libDaisy//src/hid/disp/display.h ****             sweep = -sweep;
 310:../../libDaisy//src/hid/disp/display.h ****         }
 311:../../libDaisy//src/hid/disp/display.h **** 
 312:../../libDaisy//src/hid/disp/display.h ****         start_angle_rad = deg2rad(start_angle);
 313:../../libDaisy//src/hid/disp/display.h ****         end_angle_rad   = deg2rad(start_angle + sweep);
 314:../../libDaisy//src/hid/disp/display.h **** 
 315:../../libDaisy//src/hid/disp/display.h ****         start_x = cos(start_angle_rad) * radius;
 316:../../libDaisy//src/hid/disp/display.h ****         start_y = -sin(start_angle_rad) * radius;
 317:../../libDaisy//src/hid/disp/display.h ****         end_x   = cos(end_angle_rad) * radius;
 318:../../libDaisy//src/hid/disp/display.h ****         end_y   = -sin(end_angle_rad) * radius;
 319:../../libDaisy//src/hid/disp/display.h **** 
 320:../../libDaisy//src/hid/disp/display.h ****         // Check if start and endpoint are very near
 321:../../libDaisy//src/hid/disp/display.h ****         if((end_x - start_x) * (end_x - start_x)
 322:../../libDaisy//src/hid/disp/display.h ****                + (end_y - start_y) * (end_y - start_y)
 323:../../libDaisy//src/hid/disp/display.h ****            < 2.0f)
 324:../../libDaisy//src/hid/disp/display.h ****         {
 325:../../libDaisy//src/hid/disp/display.h ****             if(sweep > 180)
 326:../../libDaisy//src/hid/disp/display.h ****                 circle = true;
 327:../../libDaisy//src/hid/disp/display.h ****             else
 328:../../libDaisy//src/hid/disp/display.h ****                 // Nothing to draw
 329:../../libDaisy//src/hid/disp/display.h ****                 return;
 330:../../libDaisy//src/hid/disp/display.h ****         }
 331:../../libDaisy//src/hid/disp/display.h **** 
 332:../../libDaisy//src/hid/disp/display.h ****         t_x = -radius;
 333:../../libDaisy//src/hid/disp/display.h ****         t_y = 0;
 334:../../libDaisy//src/hid/disp/display.h ****         err = 2 - 2 * radius;
 335:../../libDaisy//src/hid/disp/display.h **** 
 336:../../libDaisy//src/hid/disp/display.h ****         do
 337:../../libDaisy//src/hid/disp/display.h ****         {
 338:../../libDaisy//src/hid/disp/display.h ****             if(!circle)
 339:../../libDaisy//src/hid/disp/display.h ****             {
 340:../../libDaisy//src/hid/disp/display.h ****                 t_sxy  = start_x * t_y;
 341:../../libDaisy//src/hid/disp/display.h ****                 t_syx  = start_y * t_x;
 342:../../libDaisy//src/hid/disp/display.h ****                 t_sxny = start_x * -t_y;
 343:../../libDaisy//src/hid/disp/display.h ****                 t_synx = start_y * -t_x;
 344:../../libDaisy//src/hid/disp/display.h ****                 t_exy  = end_x * t_y;
 345:../../libDaisy//src/hid/disp/display.h ****                 t_eyx  = end_y * t_x;
 346:../../libDaisy//src/hid/disp/display.h ****                 t_exny = end_x * -t_y;
 347:../../libDaisy//src/hid/disp/display.h ****                 t_eynx = end_y * -t_x;
 348:../../libDaisy//src/hid/disp/display.h **** 
 349:../../libDaisy//src/hid/disp/display.h ****                 if(sweep > 180)
 350:../../libDaisy//src/hid/disp/display.h ****                 {
 351:../../libDaisy//src/hid/disp/display.h ****                     d1 = (t_sxy - t_synx < 0 || t_exy - t_eynx > 0);
ARM GAS  /var/folders/hl/qgbwny5j0fd895c2c41bk3tw0000gp/T//ccmKeONX.s 			page 37


 352:../../libDaisy//src/hid/disp/display.h ****                     d2 = (t_sxy - t_syx < 0 || t_exy - t_eyx > 0);
 353:../../libDaisy//src/hid/disp/display.h ****                     d3 = (t_sxny - t_syx < 0 || t_exny - t_eyx > 0);
 354:../../libDaisy//src/hid/disp/display.h ****                     d4 = (t_sxny - t_synx < 0 || t_exny - t_eynx > 0);
 355:../../libDaisy//src/hid/disp/display.h ****                 }
 356:../../libDaisy//src/hid/disp/display.h ****                 else
 357:../../libDaisy//src/hid/disp/display.h ****                 {
 358:../../libDaisy//src/hid/disp/display.h ****                     d1 = (t_sxy - t_synx < 0 && t_exy - t_eynx > 0);
 359:../../libDaisy//src/hid/disp/display.h ****                     d2 = (t_sxy - t_syx < 0 && t_exy - t_eyx > 0);
 360:../../libDaisy//src/hid/disp/display.h ****                     d3 = (t_sxny - t_syx < 0 && t_exny - t_eyx > 0);
 361:../../libDaisy//src/hid/disp/display.h ****                     d4 = (t_sxny - t_synx < 0 && t_exny - t_eynx > 0);
 362:../../libDaisy//src/hid/disp/display.h ****                 }
 363:../../libDaisy//src/hid/disp/display.h ****             }
 364:../../libDaisy//src/hid/disp/display.h **** 
 365:../../libDaisy//src/hid/disp/display.h ****             if(d1)
 366:../../libDaisy//src/hid/disp/display.h ****                 ((ChildType*)(this))
 367:../../libDaisy//src/hid/disp/display.h ****                     ->ChildType::DrawPixel(x - t_x, y + t_y, on);
 368:../../libDaisy//src/hid/disp/display.h ****             if(d2)
 369:../../libDaisy//src/hid/disp/display.h ****                 ((ChildType*)(this))
 370:../../libDaisy//src/hid/disp/display.h ****                     ->ChildType::DrawPixel(x + t_x, y + t_y, on);
 371:../../libDaisy//src/hid/disp/display.h ****             if(d3)
 372:../../libDaisy//src/hid/disp/display.h ****                 ((ChildType*)(this))
 373:../../libDaisy//src/hid/disp/display.h ****                     ->ChildType::DrawPixel(x + t_x, y - t_y, on);
 374:../../libDaisy//src/hid/disp/display.h ****             if(d4)
 375:../../libDaisy//src/hid/disp/display.h ****                 ((ChildType*)(this))
 376:../../libDaisy//src/hid/disp/display.h ****                     ->ChildType::DrawPixel(x - t_x, y - t_y, on);
 377:../../libDaisy//src/hid/disp/display.h **** 
 378:../../libDaisy//src/hid/disp/display.h ****             e2 = err;
 379:../../libDaisy//src/hid/disp/display.h ****             if(e2 <= t_y)
 380:../../libDaisy//src/hid/disp/display.h ****             {
 381:../../libDaisy//src/hid/disp/display.h ****                 t_y++;
 382:../../libDaisy//src/hid/disp/display.h ****                 err = err + (t_y * 2 + 1);
 383:../../libDaisy//src/hid/disp/display.h ****                 if(-t_x == t_y && e2 <= t_x)
 384:../../libDaisy//src/hid/disp/display.h ****                 {
 385:../../libDaisy//src/hid/disp/display.h ****                     e2 = 0;
 386:../../libDaisy//src/hid/disp/display.h ****                 }
 387:../../libDaisy//src/hid/disp/display.h ****             }
 388:../../libDaisy//src/hid/disp/display.h ****             if(e2 > t_x)
 389:../../libDaisy//src/hid/disp/display.h ****             {
 390:../../libDaisy//src/hid/disp/display.h ****                 t_x++;
 391:../../libDaisy//src/hid/disp/display.h ****                 err = err + (t_x * 2 + 1);
 392:../../libDaisy//src/hid/disp/display.h ****             }
 393:../../libDaisy//src/hid/disp/display.h ****         } while(t_x <= 0);
 394:../../libDaisy//src/hid/disp/display.h ****     }
 395:../../libDaisy//src/hid/disp/display.h **** 
 396:../../libDaisy//src/hid/disp/display.h ****     char WriteChar(char ch, FontDef font, bool on) override
 642              		.loc 9 396 10 is_stmt 1 view -0
 643              		.cfi_startproc
 644              		@ args = 4, pretend = 0, frame = 16
 645              		@ frame_needed = 0, uses_anonymous_args = 0
 646              		.loc 9 396 10 is_stmt 0 view .LVU134
 647 0000 2DE9F04F 		push	{r4, r5, r6, r7, r8, r9, r10, fp, lr}
 648              		.cfi_def_cfa_offset 36
 649              		.cfi_offset 4, -36
 650              		.cfi_offset 5, -32
 651              		.cfi_offset 6, -28
 652              		.cfi_offset 7, -24
 653              		.cfi_offset 8, -20
ARM GAS  /var/folders/hl/qgbwny5j0fd895c2c41bk3tw0000gp/T//ccmKeONX.s 			page 38


 654              		.cfi_offset 9, -16
 655              		.cfi_offset 10, -12
 656              		.cfi_offset 11, -8
 657              		.cfi_offset 14, -4
 658 0004 85B0     		sub	sp, sp, #20
 659              		.cfi_def_cfa_offset 56
 660              	.LVL45:
 397:../../libDaisy//src/hid/disp/display.h ****     {
 398:../../libDaisy//src/hid/disp/display.h ****         uint32_t i, b, j;
 399:../../libDaisy//src/hid/disp/display.h **** 
 400:../../libDaisy//src/hid/disp/display.h ****         // Check if character is valid
 401:../../libDaisy//src/hid/disp/display.h ****         if(ch < 32 || ch > 126)
 661              		.loc 9 401 20 view .LVU135
 662 0006 A1F12005 		sub	r5, r1, #32
 396:../../libDaisy//src/hid/disp/display.h ****     {
 663              		.loc 9 396 10 view .LVU136
 664 000a 04AC     		add	r4, sp, #16
 665 000c 9DF83870 		ldrb	r7, [sp, #56]	@ zero_extendqisi2
 666 0010 0091     		str	r1, [sp]
 667 0012 04E90C00 		stmdb	r4, {r2, r3}
 668              	.LVL46:
 669              		.loc 9 401 9 view .LVU137
 670 0016 EBB2     		uxtb	r3, r5
 671 0018 5E2B     		cmp	r3, #94
 672 001a 00F29580 		bhi	.L29
 402:../../libDaisy//src/hid/disp/display.h ****             return 0;
 403:../../libDaisy//src/hid/disp/display.h **** 
 404:../../libDaisy//src/hid/disp/display.h ****         // Check remaining space on current line
 405:../../libDaisy//src/hid/disp/display.h ****         if(Width() < (currentX_ + font.FontWidth)
 673              		.loc 9 405 17 view .LVU138
 674 001e 0368     		ldr	r3, [r0]
 675 0020 8046     		mov	r8, r0
 676 0022 5D4A     		ldr	r2, .L64
 677 0024 DB68     		ldr	r3, [r3, #12]
 678 0026 9DF80840 		ldrb	r4, [sp, #8]	@ zero_extendqisi2
 679 002a 9342     		cmp	r3, r2
 680 002c 9DF80960 		ldrb	r6, [sp, #9]	@ zero_extendqisi2
 681 0030 40F09480 		bne	.L56
 682 0034 8020     		movs	r0, #128
 683              	.LVL47:
 684              	.L28:
 685              		.loc 9 405 23 view .LVU139
 686 0036 B8F80430 		ldrh	r3, [r8, #4]
 687              		.loc 9 405 33 view .LVU140
 688 003a 2344     		add	r3, r3, r4
 406:../../libDaisy//src/hid/disp/display.h ****            || Height() < (currentY_ + font.FontHeight))
 689              		.loc 9 406 12 view .LVU141
 690 003c 8342     		cmp	r3, r0
 691 003e 00F38380 		bgt	.L29
 692              		.loc 9 406 21 discriminator 2 view .LVU142
 693 0042 D8F80030 		ldr	r3, [r8]
 694 0046 554A     		ldr	r2, .L64+4
 695 0048 9B68     		ldr	r3, [r3, #8]
 696 004a 9342     		cmp	r3, r2
 697 004c 40F08880 		bne	.L57
 698              		.loc 9 406 21 view .LVU143
 699 0050 4020     		movs	r0, #64
ARM GAS  /var/folders/hl/qgbwny5j0fd895c2c41bk3tw0000gp/T//ccmKeONX.s 			page 39


 700              	.L30:
 701              		.loc 9 406 27 discriminator 2 view .LVU144
 702 0052 B8F80620 		ldrh	r2, [r8, #6]
 703              		.loc 9 406 37 discriminator 2 view .LVU145
 704 0056 9319     		adds	r3, r2, r6
 705              		.loc 9 406 27 discriminator 2 view .LVU146
 706 0058 0192     		str	r2, [sp, #4]
 707              		.loc 9 406 12 discriminator 2 view .LVU147
 708 005a 8342     		cmp	r3, r0
 709 005c 74DC     		bgt	.L29
 710              	.LVL48:
 407:../../libDaisy//src/hid/disp/display.h ****         {
 408:../../libDaisy//src/hid/disp/display.h ****             // Not enough space on current line
 409:../../libDaisy//src/hid/disp/display.h ****             return 0;
 410:../../libDaisy//src/hid/disp/display.h ****         }
 411:../../libDaisy//src/hid/disp/display.h **** 
 412:../../libDaisy//src/hid/disp/display.h ****         // Use the font to write
 413:../../libDaisy//src/hid/disp/display.h ****         for(i = 0; i < font.FontHeight; i++)
 711              		.loc 9 413 22 is_stmt 1 view .LVU148
 712 005e 002E     		cmp	r6, #0
 713 0060 00F08980 		beq	.L31
 414:../../libDaisy//src/hid/disp/display.h ****         {
 415:../../libDaisy//src/hid/disp/display.h ****             b = font.data[(ch - 32) * font.FontHeight + i];
 714              		.loc 9 415 37 is_stmt 0 view .LVU149
 715 0064 06FB05F5 		mul	r5, r6, r5
 716 0068 6FF00040 		mvn	r0, #-2147483648
 717              		.loc 9 415 22 view .LVU150
 718 006c 039B     		ldr	r3, [sp, #12]
 719 006e 9646     		mov	lr, r2
 720 0070 2844     		add	r0, r0, r5
 721 0072 2E44     		add	r6, r6, r5
 416:../../libDaisy//src/hid/disp/display.h ****             for(j = 0; j < font.FontWidth; j++)
 417:../../libDaisy//src/hid/disp/display.h ****             {
 418:../../libDaisy//src/hid/disp/display.h ****                 if((b << j) & 0x8000)
 419:../../libDaisy//src/hid/disp/display.h ****                 {
 420:../../libDaisy//src/hid/disp/display.h ****                     ((ChildType*)(this))
 421:../../libDaisy//src/hid/disp/display.h ****                         ->ChildType::DrawPixel(
 422:../../libDaisy//src/hid/disp/display.h ****                             currentX_ + j, (currentY_ + i), on);
 423:../../libDaisy//src/hid/disp/display.h ****                 }
 424:../../libDaisy//src/hid/disp/display.h ****                 else
 425:../../libDaisy//src/hid/disp/display.h ****                 {
 426:../../libDaisy//src/hid/disp/display.h ****                     ((ChildType*)(this))
 427:../../libDaisy//src/hid/disp/display.h ****                         ->ChildType::DrawPixel(
 428:../../libDaisy//src/hid/disp/display.h ****                             currentX_ + j, (currentY_ + i), !on);
 429:../../libDaisy//src/hid/disp/display.h ****                 }
 430:../../libDaisy//src/hid/disp/display.h ****             }
 431:../../libDaisy//src/hid/disp/display.h ****         }
 432:../../libDaisy//src/hid/disp/display.h **** 
 433:../../libDaisy//src/hid/disp/display.h ****         // The current space is now taken
 434:../../libDaisy//src/hid/disp/display.h ****         SetCursor(currentX_ + font.FontWidth, currentY_);
 722              		.loc 9 434 19 view .LVU151
 723 0074 B8F804A0 		ldrh	r10, [r8, #4]
 724 0078 03EB4000 		add	r0, r3, r0, lsl #1
 725 007c 023B     		subs	r3, r3, #2
 726 007e 03EB460B 		add	fp, r3, r6, lsl #1
 727              	.LVL49:
 728              	.L34:
ARM GAS  /var/folders/hl/qgbwny5j0fd895c2c41bk3tw0000gp/T//ccmKeONX.s 			page 40


 415:../../libDaisy//src/hid/disp/display.h ****             for(j = 0; j < font.FontWidth; j++)
 729              		.loc 9 415 15 view .LVU152
 730 0082 30F8026F 		ldrh	r6, [r0, #2]!
 731              	.LVL50:
 416:../../libDaisy//src/hid/disp/display.h ****             for(j = 0; j < font.FontWidth; j++)
 732              		.loc 9 416 26 is_stmt 1 view .LVU153
 733 0086 BCB3     		cbz	r4, .L39
 734              	.LBB544:
 735              	.LBB545:
 736              	.LBB546:
 737              	.LBB547:
 738              	.LBB548:
 359:../../libDaisy//src/dev/oled_ssd130x.h ****     }
 739              		.loc 8 359 55 is_stmt 0 view .LVU154
 740 0088 0EF00703 		and	r3, lr, #7
 359:../../libDaisy//src/dev/oled_ssd130x.h ****     }
 741              		.loc 8 359 49 view .LVU155
 742 008c 4FF0010C 		mov	ip, #1
 359:../../libDaisy//src/dev/oled_ssd130x.h ****     }
 743              		.loc 8 359 28 view .LVU156
 744 0090 4FEADE02 		lsr	r2, lr, #3
 745 0094 5146     		mov	r1, r10
 359:../../libDaisy//src/dev/oled_ssd130x.h ****     }
 746              		.loc 8 359 49 view .LVU157
 747 0096 0CFA03FC 		lsl	ip, ip, r3
 748 009a 0AF11403 		add	r3, r10, #20
 359:../../libDaisy//src/dev/oled_ssd130x.h ****     }
 749              		.loc 8 359 42 view .LVU158
 750 009e 4FFA8CFC 		sxtb	ip, ip
 751 00a2 03EBC212 		add	r2, r3, r2, lsl #7
 752              	.LBE548:
 753              	.LBE547:
 754              	.LBE546:
 755              	.LBE545:
 756              	.LBE544:
 416:../../libDaisy//src/hid/disp/display.h ****             for(j = 0; j < font.FontWidth; j++)
 757              		.loc 9 416 19 view .LVU159
 758 00a6 0023     		movs	r3, #0
 759              	.LBB566:
 760              	.LBB561:
 761              	.LBB556:
 762              	.LBB552:
 763              	.LBB549:
 359:../../libDaisy//src/dev/oled_ssd130x.h ****     }
 764              		.loc 8 359 42 view .LVU160
 765 00a8 6FEA0C09 		mvn	r9, ip
 766 00ac 4244     		add	r2, r2, r8
 767 00ae 0EE0     		b	.L40
 768              	.LVL51:
 769              	.L58:
 359:../../libDaisy//src/dev/oled_ssd130x.h ****     }
 770              		.loc 8 359 42 view .LVU161
 771              	.LBE549:
 772              	.LBE552:
 773              	.LBE556:
 774              	.LBE561:
 775              	.LBE566:
ARM GAS  /var/folders/hl/qgbwny5j0fd895c2c41bk3tw0000gp/T//ccmKeONX.s 			page 41


 776              	.LBB567:
 777              	.LBI567:
  42:../../libDaisy//src/hid/disp/oled_display.h ****     {
 778              		.loc 7 42 10 is_stmt 1 view .LVU162
 779              	.LBB568:
 780              	.LBI568:
 352:../../libDaisy//src/dev/oled_ssd130x.h ****     {
 781              		.loc 8 352 10 view .LVU163
 782              	.LBB569:
 354:../../libDaisy//src/dev/oled_ssd130x.h ****             return;
 783              		.loc 8 354 9 is_stmt 0 view .LVU164
 784 00b0 7F29     		cmp	r1, #127
 785 00b2 07D8     		bhi	.L36
 786 00b4 BEF13F0F 		cmp	lr, #63
 787 00b8 04D8     		bhi	.L36
 357:../../libDaisy//src/dev/oled_ssd130x.h ****         else
 788              		.loc 8 357 42 view .LVU165
 789 00ba 1578     		ldrb	r5, [r2]	@ zero_extendqisi2
 356:../../libDaisy//src/dev/oled_ssd130x.h ****             buffer_[x + (y / 8) * width] |= (1 << (y % 8));
 790              		.loc 8 356 9 view .LVU166
 791 00bc 9FB1     		cbz	r7, .L38
 792              	.L55:
 356:../../libDaisy//src/dev/oled_ssd130x.h ****             buffer_[x + (y / 8) * width] |= (1 << (y % 8));
 793              		.loc 8 356 9 view .LVU167
 794              	.LBE569:
 795              	.LBE568:
 796              	.LBE567:
 797              	.LBB570:
 798              	.LBB562:
 799              	.LBB557:
 357:../../libDaisy//src/dev/oled_ssd130x.h ****         else
 800              		.loc 8 357 42 view .LVU168
 801 00be 4CEA0505 		orr	r5, ip, r5
 802 00c2 1570     		strb	r5, [r2]
 803              	.L36:
 804              	.LBE557:
 805              	.LBE562:
 806              	.LBE570:
 416:../../libDaisy//src/hid/disp/display.h ****             {
 807              		.loc 9 416 13 is_stmt 1 discriminator 2 view .LVU169
 808 00c4 0133     		adds	r3, r3, #1
 809              	.LVL52:
 416:../../libDaisy//src/hid/disp/display.h ****             {
 810              		.loc 9 416 26 discriminator 2 view .LVU170
 811 00c6 0132     		adds	r2, r2, #1
 812 00c8 0131     		adds	r1, r1, #1
 813 00ca 9C42     		cmp	r4, r3
 814 00cc 14D0     		beq	.L39
 815              	.LVL53:
 816              	.L40:
 418:../../libDaisy//src/hid/disp/display.h ****                 {
 817              		.loc 9 418 23 is_stmt 0 view .LVU171
 818 00ce 06FA03F5 		lsl	r5, r6, r3
 418:../../libDaisy//src/hid/disp/display.h ****                 {
 819              		.loc 9 418 17 view .LVU172
 820 00d2 2D04     		lsls	r5, r5, #16
 821 00d4 ECD4     		bmi	.L58
ARM GAS  /var/folders/hl/qgbwny5j0fd895c2c41bk3tw0000gp/T//ccmKeONX.s 			page 42


 822              	.LVL54:
 823              	.LBB571:
 824              	.LBI544:
  42:../../libDaisy//src/hid/disp/oled_display.h ****     {
 825              		.loc 7 42 10 is_stmt 1 view .LVU173
 826              	.LBB563:
 827              	.LBI545:
 352:../../libDaisy//src/dev/oled_ssd130x.h ****     {
 828              		.loc 8 352 10 view .LVU174
 829              	.LBB558:
 354:../../libDaisy//src/dev/oled_ssd130x.h ****             return;
 830              		.loc 8 354 9 is_stmt 0 view .LVU175
 831 00d6 7F29     		cmp	r1, #127
 832 00d8 F4D8     		bhi	.L36
 833 00da BEF13F0F 		cmp	lr, #63
 834 00de F1D8     		bhi	.L36
 357:../../libDaisy//src/dev/oled_ssd130x.h ****         else
 835              		.loc 8 357 42 view .LVU176
 836 00e0 1578     		ldrb	r5, [r2]	@ zero_extendqisi2
 356:../../libDaisy//src/dev/oled_ssd130x.h ****             buffer_[x + (y / 8) * width] |= (1 << (y % 8));
 837              		.loc 8 356 9 view .LVU177
 838 00e2 002F     		cmp	r7, #0
 839 00e4 EBD0     		beq	.L55
 840              	.L38:
 841              	.LVL55:
 842              	.LBB553:
 843              	.LBI547:
 352:../../libDaisy//src/dev/oled_ssd130x.h ****     {
 844              		.loc 8 352 10 is_stmt 1 view .LVU178
 352:../../libDaisy//src/dev/oled_ssd130x.h ****     {
 845              		.loc 8 352 10 is_stmt 0 view .LVU179
 846              	.LBE553:
 847              	.LBE558:
 848              	.LBE563:
 849              	.LBE571:
 416:../../libDaisy//src/hid/disp/display.h ****             {
 850              		.loc 9 416 13 view .LVU180
 851 00e6 0133     		adds	r3, r3, #1
 852              	.LVL56:
 853              	.LBB572:
 854              	.LBB564:
 855              	.LBB559:
 856              	.LBB554:
 857              	.LBB550:
 359:../../libDaisy//src/dev/oled_ssd130x.h ****     }
 858              		.loc 8 359 42 view .LVU181
 859 00e8 09EA0505 		and	r5, r9, r5
 860              	.LBE550:
 861              	.LBE554:
 862              	.LBE559:
 863              	.LBE564:
 864              	.LBE572:
 416:../../libDaisy//src/hid/disp/display.h ****             {
 865              		.loc 9 416 26 view .LVU182
 866 00ec 0132     		adds	r2, r2, #1
 867 00ee 0131     		adds	r1, r1, #1
 868 00f0 9C42     		cmp	r4, r3
ARM GAS  /var/folders/hl/qgbwny5j0fd895c2c41bk3tw0000gp/T//ccmKeONX.s 			page 43


 869              	.LBB573:
 870              	.LBB565:
 871              	.LBB560:
 872              	.LBB555:
 873              	.LBB551:
 359:../../libDaisy//src/dev/oled_ssd130x.h ****     }
 874              		.loc 8 359 42 view .LVU183
 875 00f2 02F8015C 		strb	r5, [r2, #-1]
 359:../../libDaisy//src/dev/oled_ssd130x.h ****     }
 876              		.loc 8 359 42 view .LVU184
 877              	.LBE551:
 878              	.LBE555:
 879              	.LBE560:
 880              	.LBE565:
 881              	.LBE573:
 416:../../libDaisy//src/hid/disp/display.h ****             {
 882              		.loc 9 416 13 is_stmt 1 view .LVU185
 883              	.LVL57:
 416:../../libDaisy//src/hid/disp/display.h ****             {
 884              		.loc 9 416 26 view .LVU186
 885 00f6 EAD1     		bne	.L40
 886              	.LVL58:
 887              	.L39:
 413:../../libDaisy//src/hid/disp/display.h ****         {
 888              		.loc 9 413 9 view .LVU187
 413:../../libDaisy//src/hid/disp/display.h ****         {
 889              		.loc 9 413 22 view .LVU188
 890 00f8 5845     		cmp	r0, fp
 891 00fa 0EF1010E 		add	lr, lr, #1
 892 00fe C0D1     		bne	.L34
 893              	.LVL59:
 894              	.L33:
 895              	.LBB574:
 896              	.LBB575:
 173:../../libDaisy//src/hid/disp/display.h ****         currentY_ = (y >= Height()) ? Height() - 1 : y;
 897              		.loc 9 173 33 is_stmt 0 view .LVU189
 898 0100 D8F80030 		ldr	r3, [r8]
 899              	.LBE575:
 900              	.LBE574:
 901              		.loc 9 434 18 view .LVU190
 902 0104 5444     		add	r4, r4, r10
 903 0106 2449     		ldr	r1, .L64
 904              	.LBB581:
 905              	.LBB576:
 173:../../libDaisy//src/hid/disp/display.h ****         currentY_ = (y >= Height()) ? Height() - 1 : y;
 906              		.loc 9 173 33 view .LVU191
 907 0108 DA68     		ldr	r2, [r3, #12]
 908              	.LBE576:
 909              	.LBE581:
 910              		.loc 9 434 18 view .LVU192
 911 010a A4B2     		uxth	r4, r4
 912              	.LVL60:
 913              	.LBB582:
 914              	.LBI574:
 171:../../libDaisy//src/hid/disp/display.h ****     {
 915              		.loc 9 171 10 is_stmt 1 view .LVU193
 916              	.LBB577:
ARM GAS  /var/folders/hl/qgbwny5j0fd895c2c41bk3tw0000gp/T//ccmKeONX.s 			page 44


 173:../../libDaisy//src/hid/disp/display.h ****         currentY_ = (y >= Height()) ? Height() - 1 : y;
 917              		.loc 9 173 9 view .LVU194
 918 010c 8A42     		cmp	r2, r1
 919 010e 2DD1     		bne	.L59
 173:../../libDaisy//src/hid/disp/display.h ****         currentY_ = (y >= Height()) ? Height() - 1 : y;
 920              		.loc 9 173 33 is_stmt 0 view .LVU195
 921 0110 8020     		movs	r0, #128
 922              	.L41:
 173:../../libDaisy//src/hid/disp/display.h ****         currentY_ = (y >= Height()) ? Height() - 1 : y;
 923              		.loc 9 173 19 view .LVU196
 924 0112 8442     		cmp	r4, r0
 925 0114 1CD2     		bcs	.L60
 926              	.LVL61:
 927              	.L42:
 174:../../libDaisy//src/hid/disp/display.h ****     }
 928              		.loc 9 174 34 view .LVU197
 929 0116 9B68     		ldr	r3, [r3, #8]
 930 0118 204A     		ldr	r2, .L64+4
 173:../../libDaisy//src/hid/disp/display.h ****         currentY_ = (y >= Height()) ? Height() - 1 : y;
 931              		.loc 9 173 19 view .LVU198
 932 011a A8F80440 		strh	r4, [r8, #4]	@ movhi
 174:../../libDaisy//src/hid/disp/display.h ****     }
 933              		.loc 9 174 9 is_stmt 1 view .LVU199
 934 011e 9342     		cmp	r3, r2
 935 0120 21D1     		bne	.L61
 174:../../libDaisy//src/hid/disp/display.h ****     }
 936              		.loc 9 174 34 is_stmt 0 view .LVU200
 937 0122 4020     		movs	r0, #64
 938              	.L44:
 174:../../libDaisy//src/hid/disp/display.h ****     }
 939              		.loc 9 174 19 view .LVU201
 940 0124 019B     		ldr	r3, [sp, #4]
 941 0126 8342     		cmp	r3, r0
 942 0128 07D3     		bcc	.L45
 174:../../libDaisy//src/hid/disp/display.h ****     }
 943              		.loc 9 174 46 view .LVU202
 944 012a D8F80030 		ldr	r3, [r8]
 945 012e 1B4A     		ldr	r2, .L64+4
 946 0130 9B68     		ldr	r3, [r3, #8]
 947 0132 9342     		cmp	r3, r2
 948 0134 29D1     		bne	.L62
 949 0136 3F23     		movs	r3, #63
 950 0138 0193     		str	r3, [sp, #4]
 951              	.LVL62:
 952              	.L45:
 174:../../libDaisy//src/hid/disp/display.h ****     }
 953              		.loc 9 174 19 view .LVU203
 954 013a DDE90003 		ldrd	r0, r3, [sp]
 955 013e A8F80630 		strh	r3, [r8, #6]	@ movhi
 956              	.LVL63:
 174:../../libDaisy//src/hid/disp/display.h ****     }
 957              		.loc 9 174 19 view .LVU204
 958              	.LBE577:
 959              	.LBE582:
 435:../../libDaisy//src/hid/disp/display.h **** 
 436:../../libDaisy//src/hid/disp/display.h ****         // Return written char for validation
 437:../../libDaisy//src/hid/disp/display.h ****         return ch;
ARM GAS  /var/folders/hl/qgbwny5j0fd895c2c41bk3tw0000gp/T//ccmKeONX.s 			page 45


 438:../../libDaisy//src/hid/disp/display.h ****     }
 960              		.loc 9 438 5 view .LVU205
 961 0142 05B0     		add	sp, sp, #20
 962              		.cfi_remember_state
 963              		.cfi_def_cfa_offset 36
 964              		@ sp needed
 965 0144 BDE8F08F 		pop	{r4, r5, r6, r7, r8, r9, r10, fp, pc}
 966              	.LVL64:
 967              	.L29:
 968              		.cfi_restore_state
 402:../../libDaisy//src/hid/disp/display.h **** 
 969              		.loc 9 402 20 view .LVU206
 970 0148 0020     		movs	r0, #0
 971              		.loc 9 438 5 view .LVU207
 972 014a 05B0     		add	sp, sp, #20
 973              		.cfi_remember_state
 974              		.cfi_def_cfa_offset 36
 975              		@ sp needed
 976 014c BDE8F08F 		pop	{r4, r5, r6, r7, r8, r9, r10, fp, pc}
 977              	.LVL65:
 978              	.L60:
 979              		.cfi_restore_state
 980              	.LBB583:
 981              	.LBB578:
 173:../../libDaisy//src/hid/disp/display.h ****         currentY_ = (y >= Height()) ? Height() - 1 : y;
 982              		.loc 9 173 44 view .LVU208
 983 0150 DA68     		ldr	r2, [r3, #12]
 984 0152 1149     		ldr	r1, .L64
 985 0154 8A42     		cmp	r2, r1
 986 0156 11D1     		bne	.L63
 987 0158 7F24     		movs	r4, #127
 988              	.LVL66:
 173:../../libDaisy//src/hid/disp/display.h ****         currentY_ = (y >= Height()) ? Height() - 1 : y;
 989              		.loc 9 173 44 view .LVU209
 990 015a DCE7     		b	.L42
 991              	.LVL67:
 992              	.L56:
 173:../../libDaisy//src/hid/disp/display.h ****         currentY_ = (y >= Height()) ? Height() - 1 : y;
 993              		.loc 9 173 44 view .LVU210
 994              	.LBE578:
 995              	.LBE583:
 405:../../libDaisy//src/hid/disp/display.h ****            || Height() < (currentY_ + font.FontHeight))
 996              		.loc 9 405 17 view .LVU211
 997 015c 9847     		blx	r3
 998              	.LVL68:
 405:../../libDaisy//src/hid/disp/display.h ****            || Height() < (currentY_ + font.FontHeight))
 999              		.loc 9 405 17 view .LVU212
 1000 015e 6AE7     		b	.L28
 1001              	.L57:
 406:../../libDaisy//src/hid/disp/display.h ****         {
 1002              		.loc 9 406 21 discriminator 2 view .LVU213
 1003 0160 4046     		mov	r0, r8
 1004 0162 9847     		blx	r3
 1005              	.LVL69:
 1006 0164 75E7     		b	.L30
 1007              	.LVL70:
 1008              	.L61:
ARM GAS  /var/folders/hl/qgbwny5j0fd895c2c41bk3tw0000gp/T//ccmKeONX.s 			page 46


 1009              	.LBB584:
 1010              	.LBB579:
 174:../../libDaisy//src/hid/disp/display.h ****     }
 1011              		.loc 9 174 33 view .LVU214
 1012 0166 4046     		mov	r0, r8
 1013 0168 9847     		blx	r3
 1014              	.LVL71:
 1015 016a DBE7     		b	.L44
 1016              	.LVL72:
 1017              	.L59:
 173:../../libDaisy//src/hid/disp/display.h ****         currentY_ = (y >= Height()) ? Height() - 1 : y;
 1018              		.loc 9 173 32 view .LVU215
 1019 016c 4046     		mov	r0, r8
 1020 016e 9047     		blx	r2
 1021              	.LVL73:
 173:../../libDaisy//src/hid/disp/display.h ****         currentY_ = (y >= Height()) ? Height() - 1 : y;
 1022              		.loc 9 173 44 view .LVU216
 1023 0170 D8F80030 		ldr	r3, [r8]
 1024 0174 CDE7     		b	.L41
 1025              	.LVL74:
 1026              	.L31:
 173:../../libDaisy//src/hid/disp/display.h ****         currentY_ = (y >= Height()) ? Height() - 1 : y;
 1027              		.loc 9 173 44 view .LVU217
 1028              	.LBE579:
 1029              	.LBE584:
 434:../../libDaisy//src/hid/disp/display.h **** 
 1030              		.loc 9 434 19 view .LVU218
 1031 0176 B8F804A0 		ldrh	r10, [r8, #4]
 1032 017a C1E7     		b	.L33
 1033              	.LVL75:
 1034              	.L63:
 1035              	.LBB585:
 1036              	.LBB580:
 173:../../libDaisy//src/hid/disp/display.h ****         currentY_ = (y >= Height()) ? Height() - 1 : y;
 1037              		.loc 9 173 43 view .LVU219
 1038 017c 4046     		mov	r0, r8
 1039 017e 9047     		blx	r2
 1040              	.LVL76:
 173:../../libDaisy//src/hid/disp/display.h ****         currentY_ = (y >= Height()) ? Height() - 1 : y;
 1041              		.loc 9 173 19 view .LVU220
 1042 0180 0138     		subs	r0, r0, #1
 174:../../libDaisy//src/hid/disp/display.h ****     }
 1043              		.loc 9 174 34 view .LVU221
 1044 0182 D8F80030 		ldr	r3, [r8]
 173:../../libDaisy//src/hid/disp/display.h ****         currentY_ = (y >= Height()) ? Height() - 1 : y;
 1045              		.loc 9 173 19 view .LVU222
 1046 0186 84B2     		uxth	r4, r0
 1047              	.LVL77:
 173:../../libDaisy//src/hid/disp/display.h ****         currentY_ = (y >= Height()) ? Height() - 1 : y;
 1048              		.loc 9 173 19 view .LVU223
 1049 0188 C5E7     		b	.L42
 1050              	.L62:
 174:../../libDaisy//src/hid/disp/display.h ****     }
 1051              		.loc 9 174 45 view .LVU224
 1052 018a 4046     		mov	r0, r8
 1053 018c 9847     		blx	r3
 1054              	.LVL78:
ARM GAS  /var/folders/hl/qgbwny5j0fd895c2c41bk3tw0000gp/T//ccmKeONX.s 			page 47


 174:../../libDaisy//src/hid/disp/display.h ****     }
 1055              		.loc 9 174 19 view .LVU225
 1056 018e 0138     		subs	r0, r0, #1
 1057 0190 83B2     		uxth	r3, r0
 1058 0192 0193     		str	r3, [sp, #4]
 1059              	.LVL79:
 174:../../libDaisy//src/hid/disp/display.h ****     }
 1060              		.loc 9 174 19 view .LVU226
 1061 0194 D1E7     		b	.L45
 1062              	.L65:
 1063 0196 00BF     		.align	2
 1064              	.L64:
 1065 0198 00000000 		.word	_ZNK5daisy11OledDisplayINS_13SSD130xDriverILj128ELj64ENS_24SSD130x4WireSpiTransportEEEE5Widt
 1066 019c 00000000 		.word	_ZNK5daisy11OledDisplayINS_13SSD130xDriverILj128ELj64ENS_24SSD130x4WireSpiTransportEEEE6Heig
 1067              	.LBE580:
 1068              	.LBE585:
 1069              		.cfi_endproc
 1070              	.LFE5285:
 1072              		.section	.text._ZN5daisy25OneBitGraphicsDisplayImplINS_11OledDisplayINS_13SSD130xDriverILj128ELj64
 1073              		.align	1
 1074              		.p2align 2,,3
 1075              		.weak	_ZN5daisy25OneBitGraphicsDisplayImplINS_11OledDisplayINS_13SSD130xDriverILj128ELj64ENS_24SSD
 1076              		.syntax unified
 1077              		.thumb
 1078              		.thumb_func
 1079              		.fpu fpv5-d16
 1081              	_ZN5daisy25OneBitGraphicsDisplayImplINS_11OledDisplayINS_13SSD130xDriverILj128ELj64ENS_24SSD130x4Wi
 1082              	.LVL80:
 1083              	.LFB5152:
 439:../../libDaisy//src/hid/disp/display.h **** 
 440:../../libDaisy//src/hid/disp/display.h ****     char WriteString(const char* str, FontDef font, bool on) override
 1084              		.loc 9 440 10 is_stmt 1 view -0
 1085              		.cfi_startproc
 1086              		@ args = 4, pretend = 0, frame = 32
 1087              		@ frame_needed = 0, uses_anonymous_args = 0
 1088              		.loc 9 440 10 is_stmt 0 view .LVU228
 1089 0000 2DE9F04F 		push	{r4, r5, r6, r7, r8, r9, r10, fp, lr}
 1090              		.cfi_def_cfa_offset 36
 1091              		.cfi_offset 4, -36
 1092              		.cfi_offset 5, -32
 1093              		.cfi_offset 6, -28
 1094              		.cfi_offset 7, -24
 1095              		.cfi_offset 8, -20
 1096              		.cfi_offset 9, -16
 1097              		.cfi_offset 10, -12
 1098              		.cfi_offset 11, -8
 1099              		.cfi_offset 14, -4
 1100 0004 89B0     		sub	sp, sp, #36
 1101              		.cfi_def_cfa_offset 72
 1102              		.loc 9 440 10 view .LVU229
 1103 0006 08AC     		add	r4, sp, #32
 1104 0008 9DF84870 		ldrb	r7, [sp, #72]	@ zero_extendqisi2
 1105 000c 0191     		str	r1, [sp, #4]
 1106 000e 04E90C00 		stmdb	r4, {r2, r3}
 441:../../libDaisy//src/hid/disp/display.h ****     {
 442:../../libDaisy//src/hid/disp/display.h ****         // Write until null-byte
 443:../../libDaisy//src/hid/disp/display.h ****         while(*str)
ARM GAS  /var/folders/hl/qgbwny5j0fd895c2c41bk3tw0000gp/T//ccmKeONX.s 			page 48


 1107              		.loc 9 443 9 is_stmt 1 view .LVU230
 1108 0012 0B78     		ldrb	r3, [r1]	@ zero_extendqisi2
 1109 0014 002B     		cmp	r3, #0
 1110 0016 00F0AB80 		beq	.L90
 1111 001a 1A46     		mov	r2, r3
 1112 001c 9DF81880 		ldrb	r8, [sp, #24]	@ zero_extendqisi2
 1113 0020 9DF81930 		ldrb	r3, [sp, #25]	@ zero_extendqisi2
 1114 0024 0646     		mov	r6, r0
 1115 0026 4546     		mov	r5, r8
 1116 0028 9046     		mov	r8, r2
 1117 002a 0393     		str	r3, [sp, #12]
 1118 002c 079B     		ldr	r3, [sp, #28]
 1119 002e 0593     		str	r3, [sp, #20]
 1120              	.LVL81:
 1121              	.L91:
 1122              	.LBB614:
 1123              	.LBI614:
 396:../../libDaisy//src/hid/disp/display.h ****     {
 1124              		.loc 9 396 10 view .LVU231
 1125              	.LBB615:
 401:../../libDaisy//src/hid/disp/display.h ****             return 0;
 1126              		.loc 9 401 20 is_stmt 0 view .LVU232
 1127 0030 A8F12004 		sub	r4, r8, #32
 401:../../libDaisy//src/hid/disp/display.h ****             return 0;
 1128              		.loc 9 401 9 view .LVU233
 1129 0034 E3B2     		uxtb	r3, r4
 1130 0036 5E2B     		cmp	r3, #94
 1131 0038 00F29E80 		bhi	.L72
 405:../../libDaisy//src/hid/disp/display.h ****            || Height() < (currentY_ + font.FontHeight))
 1132              		.loc 9 405 17 view .LVU234
 1133 003c 3368     		ldr	r3, [r6]
 1134 003e 5E4A     		ldr	r2, .L112
 1135 0040 DB68     		ldr	r3, [r3, #12]
 1136 0042 9342     		cmp	r3, r2
 1137 0044 40F09B80 		bne	.L105
 1138 0048 8020     		movs	r0, #128
 1139              	.L71:
 405:../../libDaisy//src/hid/disp/display.h ****            || Height() < (currentY_ + font.FontHeight))
 1140              		.loc 9 405 23 view .LVU235
 1141 004a B388     		ldrh	r3, [r6, #4]
 405:../../libDaisy//src/hid/disp/display.h ****            || Height() < (currentY_ + font.FontHeight))
 1142              		.loc 9 405 33 view .LVU236
 1143 004c 2B44     		add	r3, r3, r5
 406:../../libDaisy//src/hid/disp/display.h ****         {
 1144              		.loc 9 406 12 view .LVU237
 1145 004e 8342     		cmp	r3, r0
 1146 0050 00F39280 		bgt	.L72
 406:../../libDaisy//src/hid/disp/display.h ****         {
 1147              		.loc 9 406 21 view .LVU238
 1148 0054 3368     		ldr	r3, [r6]
 1149 0056 594A     		ldr	r2, .L112+4
 1150 0058 9B68     		ldr	r3, [r3, #8]
 1151 005a 9342     		cmp	r3, r2
 1152 005c 40F09280 		bne	.L106
 1153 0060 4020     		movs	r0, #64
 1154              	.L73:
 406:../../libDaisy//src/hid/disp/display.h ****         {
ARM GAS  /var/folders/hl/qgbwny5j0fd895c2c41bk3tw0000gp/T//ccmKeONX.s 			page 49


 1155              		.loc 9 406 27 view .LVU239
 1156 0062 F188     		ldrh	r1, [r6, #6]
 406:../../libDaisy//src/hid/disp/display.h ****         {
 1157              		.loc 9 406 37 view .LVU240
 1158 0064 039A     		ldr	r2, [sp, #12]
 406:../../libDaisy//src/hid/disp/display.h ****         {
 1159              		.loc 9 406 27 view .LVU241
 1160 0066 0291     		str	r1, [sp, #8]
 406:../../libDaisy//src/hid/disp/display.h ****         {
 1161              		.loc 9 406 37 view .LVU242
 1162 0068 8B18     		adds	r3, r1, r2
 406:../../libDaisy//src/hid/disp/display.h ****         {
 1163              		.loc 9 406 12 view .LVU243
 1164 006a 8342     		cmp	r3, r0
 1165 006c 00F38480 		bgt	.L72
 1166              	.LVL82:
 413:../../libDaisy//src/hid/disp/display.h ****         {
 1167              		.loc 9 413 22 is_stmt 1 view .LVU244
 1168 0070 002A     		cmp	r2, #0
 1169 0072 00F09180 		beq	.L74
 415:../../libDaisy//src/hid/disp/display.h ****             for(j = 0; j < font.FontWidth; j++)
 1170              		.loc 9 415 37 is_stmt 0 view .LVU245
 1171 0076 02FB04F4 		mul	r4, r2, r4
 1172 007a 6FF00049 		mvn	r9, #-2147483648
 1173 007e 059B     		ldr	r3, [sp, #20]
 1174 0080 A144     		add	r9, r9, r4
 1175 0082 1444     		add	r4, r4, r2
 434:../../libDaisy//src/hid/disp/display.h **** 
 1176              		.loc 9 434 19 view .LVU246
 1177 0084 B6F804B0 		ldrh	fp, [r6, #4]
 1178 0088 03EB4909 		add	r9, r3, r9, lsl #1
 1179 008c 023B     		subs	r3, r3, #2
 1180 008e CDF81080 		str	r8, [sp, #16]
 1181 0092 03EB4403 		add	r3, r3, r4, lsl #1
 1182 0096 0C46     		mov	r4, r1
 1183 0098 9A46     		mov	r10, r3
 1184              	.LVL83:
 1185              	.L77:
 415:../../libDaisy//src/hid/disp/display.h ****             for(j = 0; j < font.FontWidth; j++)
 1186              		.loc 9 415 15 view .LVU247
 1187 009a 39F802CF 		ldrh	ip, [r9, #2]!
 1188              	.LVL84:
 416:../../libDaisy//src/hid/disp/display.h ****             {
 1189              		.loc 9 416 26 is_stmt 1 view .LVU248
 1190 009e A5B3     		cbz	r5, .L82
 1191              	.LBB616:
 1192              	.LBB617:
 1193              	.LBB618:
 1194              	.LBB619:
 1195              	.LBB620:
 359:../../libDaisy//src/dev/oled_ssd130x.h ****     }
 1196              		.loc 8 359 55 is_stmt 0 view .LVU249
 1197 00a0 04F00703 		and	r3, r4, #7
 359:../../libDaisy//src/dev/oled_ssd130x.h ****     }
 1198              		.loc 8 359 49 view .LVU250
 1199 00a4 4FF0010E 		mov	lr, #1
 359:../../libDaisy//src/dev/oled_ssd130x.h ****     }
ARM GAS  /var/folders/hl/qgbwny5j0fd895c2c41bk3tw0000gp/T//ccmKeONX.s 			page 50


 1200              		.loc 8 359 28 view .LVU251
 1201 00a8 E208     		lsrs	r2, r4, #3
 1202 00aa 5946     		mov	r1, fp
 359:../../libDaisy//src/dev/oled_ssd130x.h ****     }
 1203              		.loc 8 359 49 view .LVU252
 1204 00ac 0EFA03FE 		lsl	lr, lr, r3
 1205 00b0 0BF11403 		add	r3, fp, #20
 359:../../libDaisy//src/dev/oled_ssd130x.h ****     }
 1206              		.loc 8 359 42 view .LVU253
 1207 00b4 4FFA8EFE 		sxtb	lr, lr
 1208 00b8 03EBC212 		add	r2, r3, r2, lsl #7
 1209              	.LBE620:
 1210              	.LBE619:
 1211              	.LBE618:
 1212              	.LBE617:
 1213              	.LBE616:
 416:../../libDaisy//src/hid/disp/display.h ****             {
 1214              		.loc 9 416 19 view .LVU254
 1215 00bc 0023     		movs	r3, #0
 1216              	.LBB638:
 1217              	.LBB633:
 1218              	.LBB628:
 1219              	.LBB624:
 1220              	.LBB621:
 359:../../libDaisy//src/dev/oled_ssd130x.h ****     }
 1221              		.loc 8 359 42 view .LVU255
 1222 00be 6FEA0E08 		mvn	r8, lr
 1223 00c2 3244     		add	r2, r2, r6
 1224 00c4 0DE0     		b	.L83
 1225              	.LVL85:
 1226              	.L107:
 359:../../libDaisy//src/dev/oled_ssd130x.h ****     }
 1227              		.loc 8 359 42 view .LVU256
 1228              	.LBE621:
 1229              	.LBE624:
 1230              	.LBE628:
 1231              	.LBE633:
 1232              	.LBE638:
 1233              	.LBB639:
 1234              	.LBI639:
  42:../../libDaisy//src/hid/disp/oled_display.h ****     {
 1235              		.loc 7 42 10 is_stmt 1 view .LVU257
 1236              	.LBB640:
 1237              	.LBI640:
 352:../../libDaisy//src/dev/oled_ssd130x.h ****     {
 1238              		.loc 8 352 10 view .LVU258
 1239              	.LBB641:
 354:../../libDaisy//src/dev/oled_ssd130x.h ****             return;
 1240              		.loc 8 354 9 is_stmt 0 view .LVU259
 1241 00c6 7F29     		cmp	r1, #127
 1242 00c8 06D8     		bhi	.L79
 1243 00ca 3F2C     		cmp	r4, #63
 1244 00cc 04D8     		bhi	.L79
 357:../../libDaisy//src/dev/oled_ssd130x.h ****         else
 1245              		.loc 8 357 42 view .LVU260
 1246 00ce 1078     		ldrb	r0, [r2]	@ zero_extendqisi2
 356:../../libDaisy//src/dev/oled_ssd130x.h ****             buffer_[x + (y / 8) * width] |= (1 << (y % 8));
ARM GAS  /var/folders/hl/qgbwny5j0fd895c2c41bk3tw0000gp/T//ccmKeONX.s 			page 51


 1247              		.loc 8 356 9 view .LVU261
 1248 00d0 97B1     		cbz	r7, .L81
 1249              	.L104:
 356:../../libDaisy//src/dev/oled_ssd130x.h ****             buffer_[x + (y / 8) * width] |= (1 << (y % 8));
 1250              		.loc 8 356 9 view .LVU262
 1251              	.LBE641:
 1252              	.LBE640:
 1253              	.LBE639:
 1254              	.LBB642:
 1255              	.LBB634:
 1256              	.LBB629:
 357:../../libDaisy//src/dev/oled_ssd130x.h ****         else
 1257              		.loc 8 357 42 view .LVU263
 1258 00d2 4EEA0000 		orr	r0, lr, r0
 1259 00d6 1070     		strb	r0, [r2]
 1260              	.L79:
 1261              	.LBE629:
 1262              	.LBE634:
 1263              	.LBE642:
 416:../../libDaisy//src/hid/disp/display.h ****             {
 1264              		.loc 9 416 13 is_stmt 1 view .LVU264
 1265 00d8 0133     		adds	r3, r3, #1
 1266              	.LVL86:
 416:../../libDaisy//src/hid/disp/display.h ****             {
 1267              		.loc 9 416 26 view .LVU265
 1268 00da 0132     		adds	r2, r2, #1
 1269 00dc 0131     		adds	r1, r1, #1
 1270 00de AB42     		cmp	r3, r5
 1271 00e0 13D0     		beq	.L82
 1272              	.LVL87:
 1273              	.L83:
 418:../../libDaisy//src/hid/disp/display.h ****                 {
 1274              		.loc 9 418 23 is_stmt 0 view .LVU266
 1275 00e2 0CFA03F0 		lsl	r0, ip, r3
 418:../../libDaisy//src/hid/disp/display.h ****                 {
 1276              		.loc 9 418 17 view .LVU267
 1277 00e6 0004     		lsls	r0, r0, #16
 1278 00e8 EDD4     		bmi	.L107
 1279              	.LVL88:
 1280              	.LBB643:
 1281              	.LBI616:
  42:../../libDaisy//src/hid/disp/oled_display.h ****     {
 1282              		.loc 7 42 10 is_stmt 1 view .LVU268
 1283              	.LBB635:
 1284              	.LBI617:
 352:../../libDaisy//src/dev/oled_ssd130x.h ****     {
 1285              		.loc 8 352 10 view .LVU269
 1286              	.LBB630:
 354:../../libDaisy//src/dev/oled_ssd130x.h ****             return;
 1287              		.loc 8 354 9 is_stmt 0 view .LVU270
 1288 00ea 7F29     		cmp	r1, #127
 1289 00ec F4D8     		bhi	.L79
 1290 00ee 3F2C     		cmp	r4, #63
 1291 00f0 F2D8     		bhi	.L79
 357:../../libDaisy//src/dev/oled_ssd130x.h ****         else
 1292              		.loc 8 357 42 view .LVU271
 1293 00f2 1078     		ldrb	r0, [r2]	@ zero_extendqisi2
ARM GAS  /var/folders/hl/qgbwny5j0fd895c2c41bk3tw0000gp/T//ccmKeONX.s 			page 52


 356:../../libDaisy//src/dev/oled_ssd130x.h ****             buffer_[x + (y / 8) * width] |= (1 << (y % 8));
 1294              		.loc 8 356 9 view .LVU272
 1295 00f4 002F     		cmp	r7, #0
 1296 00f6 ECD0     		beq	.L104
 1297              	.L81:
 1298              	.LVL89:
 1299              	.LBB625:
 1300              	.LBI619:
 352:../../libDaisy//src/dev/oled_ssd130x.h ****     {
 1301              		.loc 8 352 10 is_stmt 1 view .LVU273
 352:../../libDaisy//src/dev/oled_ssd130x.h ****     {
 1302              		.loc 8 352 10 is_stmt 0 view .LVU274
 1303              	.LBE625:
 1304              	.LBE630:
 1305              	.LBE635:
 1306              	.LBE643:
 416:../../libDaisy//src/hid/disp/display.h ****             {
 1307              		.loc 9 416 13 view .LVU275
 1308 00f8 0133     		adds	r3, r3, #1
 1309              	.LVL90:
 1310              	.LBB644:
 1311              	.LBB636:
 1312              	.LBB631:
 1313              	.LBB626:
 1314              	.LBB622:
 359:../../libDaisy//src/dev/oled_ssd130x.h ****     }
 1315              		.loc 8 359 42 view .LVU276
 1316 00fa 08EA0000 		and	r0, r8, r0
 1317              	.LBE622:
 1318              	.LBE626:
 1319              	.LBE631:
 1320              	.LBE636:
 1321              	.LBE644:
 416:../../libDaisy//src/hid/disp/display.h ****             {
 1322              		.loc 9 416 26 view .LVU277
 1323 00fe 0132     		adds	r2, r2, #1
 1324 0100 0131     		adds	r1, r1, #1
 1325 0102 AB42     		cmp	r3, r5
 1326              	.LBB645:
 1327              	.LBB637:
 1328              	.LBB632:
 1329              	.LBB627:
 1330              	.LBB623:
 359:../../libDaisy//src/dev/oled_ssd130x.h ****     }
 1331              		.loc 8 359 42 view .LVU278
 1332 0104 02F8010C 		strb	r0, [r2, #-1]
 359:../../libDaisy//src/dev/oled_ssd130x.h ****     }
 1333              		.loc 8 359 42 view .LVU279
 1334              	.LBE623:
 1335              	.LBE627:
 1336              	.LBE632:
 1337              	.LBE637:
 1338              	.LBE645:
 416:../../libDaisy//src/hid/disp/display.h ****             {
 1339              		.loc 9 416 13 is_stmt 1 view .LVU280
 1340              	.LVL91:
 416:../../libDaisy//src/hid/disp/display.h ****             {
ARM GAS  /var/folders/hl/qgbwny5j0fd895c2c41bk3tw0000gp/T//ccmKeONX.s 			page 53


 1341              		.loc 9 416 26 view .LVU281
 1342 0108 EBD1     		bne	.L83
 1343              	.LVL92:
 1344              	.L82:
 413:../../libDaisy//src/hid/disp/display.h ****         {
 1345              		.loc 9 413 9 view .LVU282
 413:../../libDaisy//src/hid/disp/display.h ****         {
 1346              		.loc 9 413 22 view .LVU283
 1347 010a D145     		cmp	r9, r10
 1348 010c 04F10104 		add	r4, r4, #1
 1349 0110 C3D1     		bne	.L77
 1350 0112 DDF81080 		ldr	r8, [sp, #16]
 1351              	.LVL93:
 1352              	.L76:
 1353              	.LBB646:
 1354              	.LBB647:
 173:../../libDaisy//src/hid/disp/display.h ****         currentY_ = (y >= Height()) ? Height() - 1 : y;
 1355              		.loc 9 173 33 is_stmt 0 view .LVU284
 1356 0116 3268     		ldr	r2, [r6]
 1357              	.LBE647:
 1358              	.LBE646:
 434:../../libDaisy//src/hid/disp/display.h **** 
 1359              		.loc 9 434 18 view .LVU285
 1360 0118 0BEB0504 		add	r4, fp, r5
 1361 011c 2649     		ldr	r1, .L112
 1362              	.LBB652:
 1363              	.LBB648:
 173:../../libDaisy//src/hid/disp/display.h ****         currentY_ = (y >= Height()) ? Height() - 1 : y;
 1364              		.loc 9 173 33 view .LVU286
 1365 011e D368     		ldr	r3, [r2, #12]
 1366              	.LBE648:
 1367              	.LBE652:
 434:../../libDaisy//src/hid/disp/display.h **** 
 1368              		.loc 9 434 18 view .LVU287
 1369 0120 A4B2     		uxth	r4, r4
 1370              	.LVL94:
 1371              	.LBB653:
 1372              	.LBI646:
 171:../../libDaisy//src/hid/disp/display.h ****     {
 1373              		.loc 9 171 10 is_stmt 1 view .LVU288
 1374              	.LBB649:
 173:../../libDaisy//src/hid/disp/display.h ****         currentY_ = (y >= Height()) ? Height() - 1 : y;
 1375              		.loc 9 173 9 view .LVU289
 1376 0122 8B42     		cmp	r3, r1
 1377 0124 34D1     		bne	.L108
 173:../../libDaisy//src/hid/disp/display.h ****         currentY_ = (y >= Height()) ? Height() - 1 : y;
 1378              		.loc 9 173 33 is_stmt 0 view .LVU290
 1379 0126 8020     		movs	r0, #128
 1380              	.L84:
 173:../../libDaisy//src/hid/disp/display.h ****         currentY_ = (y >= Height()) ? Height() - 1 : y;
 1381              		.loc 9 173 19 view .LVU291
 1382 0128 8442     		cmp	r4, r0
 1383 012a 04D3     		bcc	.L85
 173:../../libDaisy//src/hid/disp/display.h ****         currentY_ = (y >= Height()) ? Height() - 1 : y;
 1384              		.loc 9 173 44 view .LVU292
 1385 012c D368     		ldr	r3, [r2, #12]
 1386 012e 2249     		ldr	r1, .L112
ARM GAS  /var/folders/hl/qgbwny5j0fd895c2c41bk3tw0000gp/T//ccmKeONX.s 			page 54


 1387 0130 8B42     		cmp	r3, r1
 1388 0132 3AD1     		bne	.L109
 1389 0134 7F24     		movs	r4, #127
 1390              	.LVL95:
 1391              	.L85:
 174:../../libDaisy//src/hid/disp/display.h ****     }
 1392              		.loc 9 174 34 view .LVU293
 1393 0136 9368     		ldr	r3, [r2, #8]
 1394 0138 204A     		ldr	r2, .L112+4
 173:../../libDaisy//src/hid/disp/display.h ****         currentY_ = (y >= Height()) ? Height() - 1 : y;
 1395              		.loc 9 173 19 view .LVU294
 1396 013a B480     		strh	r4, [r6, #4]	@ movhi
 174:../../libDaisy//src/hid/disp/display.h ****     }
 1397              		.loc 9 174 9 is_stmt 1 view .LVU295
 1398 013c 9342     		cmp	r3, r2
 1399 013e 24D1     		bne	.L110
 174:../../libDaisy//src/hid/disp/display.h ****     }
 1400              		.loc 9 174 34 is_stmt 0 view .LVU296
 1401 0140 4020     		movs	r0, #64
 1402              	.L87:
 174:../../libDaisy//src/hid/disp/display.h ****     }
 1403              		.loc 9 174 19 view .LVU297
 1404 0142 029B     		ldr	r3, [sp, #8]
 1405 0144 8342     		cmp	r3, r0
 1406 0146 06D3     		bcc	.L88
 174:../../libDaisy//src/hid/disp/display.h ****     }
 1407              		.loc 9 174 46 view .LVU298
 1408 0148 3368     		ldr	r3, [r6]
 1409 014a 1C4A     		ldr	r2, .L112+4
 1410 014c 9B68     		ldr	r3, [r3, #8]
 1411 014e 9342     		cmp	r3, r2
 1412 0150 25D1     		bne	.L111
 1413 0152 3F23     		movs	r3, #63
 1414 0154 0293     		str	r3, [sp, #8]
 1415              	.LVL96:
 1416              	.L88:
 174:../../libDaisy//src/hid/disp/display.h ****     }
 1417              		.loc 9 174 19 view .LVU299
 1418 0156 029B     		ldr	r3, [sp, #8]
 1419 0158 F380     		strh	r3, [r6, #6]	@ movhi
 1420              	.LVL97:
 1421              	.L70:
 174:../../libDaisy//src/hid/disp/display.h ****     }
 1422              		.loc 9 174 19 view .LVU300
 1423              	.LBE649:
 1424              	.LBE653:
 1425              	.LBE615:
 1426              	.LBE614:
 444:../../libDaisy//src/hid/disp/display.h ****         {
 445:../../libDaisy//src/hid/disp/display.h ****             if(((ChildType*)(this))->ChildType::WriteChar(*str, font, on)
 446:../../libDaisy//src/hid/disp/display.h ****                != *str)
 1427              		.loc 9 446 16 view .LVU301
 1428 015a 019B     		ldr	r3, [sp, #4]
 1429 015c 1878     		ldrb	r0, [r3]	@ zero_extendqisi2
 445:../../libDaisy//src/hid/disp/display.h ****                != *str)
 1430              		.loc 9 445 13 view .LVU302
 1431 015e 4045     		cmp	r0, r8
ARM GAS  /var/folders/hl/qgbwny5j0fd895c2c41bk3tw0000gp/T//ccmKeONX.s 			page 55


 1432 0160 07D1     		bne	.L68
 1433              	.LVL98:
 443:../../libDaisy//src/hid/disp/display.h ****         {
 1434              		.loc 9 443 9 is_stmt 1 view .LVU303
 1435 0162 13F8018F 		ldrb	r8, [r3, #1]!	@ zero_extendqisi2
 1436              	.LVL99:
 443:../../libDaisy//src/hid/disp/display.h ****         {
 1437              		.loc 9 443 9 is_stmt 0 view .LVU304
 1438 0166 0193     		str	r3, [sp, #4]
 1439 0168 B8F1000F 		cmp	r8, #0
 1440 016c 7FF460AF 		bne	.L91
 1441              	.LVL100:
 1442              	.L90:
 1443              	.LBB658:
 1444              	.LBB656:
 402:../../libDaisy//src/hid/disp/display.h **** 
 1445              		.loc 9 402 20 view .LVU305
 1446 0170 0020     		movs	r0, #0
 1447              	.L68:
 1448              	.LBE656:
 1449              	.LBE658:
 447:../../libDaisy//src/hid/disp/display.h ****             {
 448:../../libDaisy//src/hid/disp/display.h ****                 // Char could not be written
 449:../../libDaisy//src/hid/disp/display.h ****                 return *str;
 450:../../libDaisy//src/hid/disp/display.h ****             }
 451:../../libDaisy//src/hid/disp/display.h **** 
 452:../../libDaisy//src/hid/disp/display.h ****             // Next char
 453:../../libDaisy//src/hid/disp/display.h ****             str++;
 454:../../libDaisy//src/hid/disp/display.h ****         }
 455:../../libDaisy//src/hid/disp/display.h **** 
 456:../../libDaisy//src/hid/disp/display.h ****         // Everything ok
 457:../../libDaisy//src/hid/disp/display.h ****         return *str;
 458:../../libDaisy//src/hid/disp/display.h ****     }
 1450              		.loc 9 458 5 view .LVU306
 1451 0172 09B0     		add	sp, sp, #36
 1452              		.cfi_remember_state
 1453              		.cfi_def_cfa_offset 36
 1454              		@ sp needed
 1455 0174 BDE8F08F 		pop	{r4, r5, r6, r7, r8, r9, r10, fp, pc}
 1456              	.LVL101:
 1457              	.L72:
 1458              		.cfi_restore_state
 1459              	.LBB659:
 1460              	.LBB657:
 402:../../libDaisy//src/hid/disp/display.h **** 
 1461              		.loc 9 402 20 view .LVU307
 1462 0178 4FF00008 		mov	r8, #0
 1463              	.LVL102:
 402:../../libDaisy//src/hid/disp/display.h **** 
 1464              		.loc 9 402 20 view .LVU308
 1465 017c EDE7     		b	.L70
 1466              	.LVL103:
 1467              	.L105:
 405:../../libDaisy//src/hid/disp/display.h ****            || Height() < (currentY_ + font.FontHeight))
 1468              		.loc 9 405 17 view .LVU309
 1469 017e 3046     		mov	r0, r6
 1470 0180 9847     		blx	r3
ARM GAS  /var/folders/hl/qgbwny5j0fd895c2c41bk3tw0000gp/T//ccmKeONX.s 			page 56


 1471              	.LVL104:
 1472 0182 62E7     		b	.L71
 1473              	.L106:
 406:../../libDaisy//src/hid/disp/display.h ****         {
 1474              		.loc 9 406 21 view .LVU310
 1475 0184 3046     		mov	r0, r6
 1476 0186 9847     		blx	r3
 1477              	.LVL105:
 1478 0188 6BE7     		b	.L73
 1479              	.LVL106:
 1480              	.L110:
 1481              	.LBB654:
 1482              	.LBB650:
 174:../../libDaisy//src/hid/disp/display.h ****     }
 1483              		.loc 9 174 33 view .LVU311
 1484 018a 3046     		mov	r0, r6
 1485 018c 9847     		blx	r3
 1486              	.LVL107:
 1487 018e D8E7     		b	.L87
 1488              	.LVL108:
 1489              	.L108:
 173:../../libDaisy//src/hid/disp/display.h ****         currentY_ = (y >= Height()) ? Height() - 1 : y;
 1490              		.loc 9 173 32 view .LVU312
 1491 0190 3046     		mov	r0, r6
 1492 0192 9847     		blx	r3
 1493              	.LVL109:
 173:../../libDaisy//src/hid/disp/display.h ****         currentY_ = (y >= Height()) ? Height() - 1 : y;
 1494              		.loc 9 173 44 view .LVU313
 1495 0194 3268     		ldr	r2, [r6]
 1496 0196 C7E7     		b	.L84
 1497              	.LVL110:
 1498              	.L74:
 173:../../libDaisy//src/hid/disp/display.h ****         currentY_ = (y >= Height()) ? Height() - 1 : y;
 1499              		.loc 9 173 44 view .LVU314
 1500              	.LBE650:
 1501              	.LBE654:
 434:../../libDaisy//src/hid/disp/display.h **** 
 1502              		.loc 9 434 19 view .LVU315
 1503 0198 B6F804B0 		ldrh	fp, [r6, #4]
 1504 019c BBE7     		b	.L76
 1505              	.LVL111:
 1506              	.L111:
 1507              	.LBB655:
 1508              	.LBB651:
 174:../../libDaisy//src/hid/disp/display.h ****     }
 1509              		.loc 9 174 45 view .LVU316
 1510 019e 3046     		mov	r0, r6
 1511 01a0 9847     		blx	r3
 1512              	.LVL112:
 174:../../libDaisy//src/hid/disp/display.h ****     }
 1513              		.loc 9 174 19 view .LVU317
 1514 01a2 431E     		subs	r3, r0, #1
 1515 01a4 9BB2     		uxth	r3, r3
 1516 01a6 0293     		str	r3, [sp, #8]
 1517              	.LVL113:
 174:../../libDaisy//src/hid/disp/display.h ****     }
 1518              		.loc 9 174 19 view .LVU318
ARM GAS  /var/folders/hl/qgbwny5j0fd895c2c41bk3tw0000gp/T//ccmKeONX.s 			page 57


 1519 01a8 D5E7     		b	.L88
 1520              	.LVL114:
 1521              	.L109:
 173:../../libDaisy//src/hid/disp/display.h ****         currentY_ = (y >= Height()) ? Height() - 1 : y;
 1522              		.loc 9 173 43 view .LVU319
 1523 01aa 3046     		mov	r0, r6
 1524 01ac 9847     		blx	r3
 1525              	.LVL115:
 173:../../libDaisy//src/hid/disp/display.h ****         currentY_ = (y >= Height()) ? Height() - 1 : y;
 1526              		.loc 9 173 19 view .LVU320
 1527 01ae 0138     		subs	r0, r0, #1
 174:../../libDaisy//src/hid/disp/display.h ****     }
 1528              		.loc 9 174 34 view .LVU321
 1529 01b0 3268     		ldr	r2, [r6]
 173:../../libDaisy//src/hid/disp/display.h ****         currentY_ = (y >= Height()) ? Height() - 1 : y;
 1530              		.loc 9 173 19 view .LVU322
 1531 01b2 84B2     		uxth	r4, r0
 1532              	.LVL116:
 173:../../libDaisy//src/hid/disp/display.h ****         currentY_ = (y >= Height()) ? Height() - 1 : y;
 1533              		.loc 9 173 19 view .LVU323
 1534 01b4 BFE7     		b	.L85
 1535              	.L113:
 1536 01b6 00BF     		.align	2
 1537              	.L112:
 1538 01b8 00000000 		.word	_ZNK5daisy11OledDisplayINS_13SSD130xDriverILj128ELj64ENS_24SSD130x4WireSpiTransportEEEE5Widt
 1539 01bc 00000000 		.word	_ZNK5daisy11OledDisplayINS_13SSD130xDriverILj128ELj64ENS_24SSD130x4WireSpiTransportEEEE6Heig
 1540              	.LBE651:
 1541              	.LBE655:
 1542              	.LBE657:
 1543              	.LBE659:
 1544              		.cfi_endproc
 1545              	.LFE5152:
 1547              		.section	.text._ZN5daisy11OledDisplayINS_13SSD130xDriverILj128ELj64ENS_24SSD130x4WireSpiTransportE
 1548              		.align	1
 1549              		.p2align 2,,3
 1550              		.weak	_ZN5daisy11OledDisplayINS_13SSD130xDriverILj128ELj64ENS_24SSD130x4WireSpiTransportEEEE9DrawP
 1551              		.syntax unified
 1552              		.thumb
 1553              		.thumb_func
 1554              		.fpu fpv5-d16
 1556              	_ZN5daisy11OledDisplayINS_13SSD130xDriverILj128ELj64ENS_24SSD130x4WireSpiTransportEEEE9DrawPixelEjj
 1557              	.LVL117:
 1558              	.LFB5330:
  42:../../libDaisy//src/hid/disp/oled_display.h ****     {
 1559              		.loc 7 42 10 is_stmt 1 view -0
 1560              		.cfi_startproc
 1561              		@ args = 0, pretend = 0, frame = 0
 1562              		@ frame_needed = 0, uses_anonymous_args = 0
 1563              		@ link register save eliminated.
 1564              	.LBB664:
 1565              	.LBI664:
 352:../../libDaisy//src/dev/oled_ssd130x.h ****     {
 1566              		.loc 8 352 10 view .LVU325
 1567              	.LBB665:
 354:../../libDaisy//src/dev/oled_ssd130x.h ****             return;
 1568              		.loc 8 354 9 is_stmt 0 view .LVU326
 1569 0000 7F29     		cmp	r1, #127
ARM GAS  /var/folders/hl/qgbwny5j0fd895c2c41bk3tw0000gp/T//ccmKeONX.s 			page 58


 1570 0002 1ED8     		bhi	.L114
 1571 0004 3F2A     		cmp	r2, #63
 1572 0006 1CD8     		bhi	.L114
 356:../../libDaisy//src/dev/oled_ssd130x.h ****             buffer_[x + (y / 8) * width] |= (1 << (y % 8));
 1573              		.loc 8 356 9 view .LVU327
 1574 0008 6BB1     		cbz	r3, .L116
 357:../../libDaisy//src/dev/oled_ssd130x.h ****         else
 1575              		.loc 8 357 28 view .LVU328
 1576 000a D308     		lsrs	r3, r2, #3
 1577              	.LVL118:
 357:../../libDaisy//src/dev/oled_ssd130x.h ****         else
 1578              		.loc 8 357 48 view .LVU329
 1579 000c 4FF0010C 		mov	ip, #1
 357:../../libDaisy//src/dev/oled_ssd130x.h ****         else
 1580              		.loc 8 357 54 view .LVU330
 1581 0010 02F00702 		and	r2, r2, #7
 1582              	.LVL119:
 357:../../libDaisy//src/dev/oled_ssd130x.h ****         else
 1583              		.loc 8 357 42 view .LVU331
 1584 0014 01EBC313 		add	r3, r1, r3, lsl #7
 357:../../libDaisy//src/dev/oled_ssd130x.h ****         else
 1585              		.loc 8 357 48 view .LVU332
 1586 0018 0CFA02F2 		lsl	r2, ip, r2
 357:../../libDaisy//src/dev/oled_ssd130x.h ****         else
 1587              		.loc 8 357 42 view .LVU333
 1588 001c C118     		adds	r1, r0, r3
 1589              	.LVL120:
 357:../../libDaisy//src/dev/oled_ssd130x.h ****         else
 1590              		.loc 8 357 42 view .LVU334
 1591 001e 0B7D     		ldrb	r3, [r1, #20]	@ zero_extendqisi2
 1592 0020 1A43     		orrs	r2, r2, r3
 1593 0022 0A75     		strb	r2, [r1, #20]
 1594 0024 7047     		bx	lr
 1595              	.LVL121:
 1596              	.L116:
 1597              	.LBB666:
 1598              	.LBI666:
 352:../../libDaisy//src/dev/oled_ssd130x.h ****     {
 1599              		.loc 8 352 10 is_stmt 1 view .LVU335
 1600              	.LBB667:
 359:../../libDaisy//src/dev/oled_ssd130x.h ****     }
 1601              		.loc 8 359 28 is_stmt 0 view .LVU336
 1602 0026 D308     		lsrs	r3, r2, #3
 1603              	.LVL122:
 359:../../libDaisy//src/dev/oled_ssd130x.h ****     }
 1604              		.loc 8 359 49 view .LVU337
 1605 0028 4FF0010C 		mov	ip, #1
 359:../../libDaisy//src/dev/oled_ssd130x.h ****     }
 1606              		.loc 8 359 55 view .LVU338
 1607 002c 02F00702 		and	r2, r2, #7
 1608              	.LVL123:
 359:../../libDaisy//src/dev/oled_ssd130x.h ****     }
 1609              		.loc 8 359 42 view .LVU339
 1610 0030 01EBC313 		add	r3, r1, r3, lsl #7
 359:../../libDaisy//src/dev/oled_ssd130x.h ****     }
 1611              		.loc 8 359 49 view .LVU340
 1612 0034 0CFA02FC 		lsl	ip, ip, r2
ARM GAS  /var/folders/hl/qgbwny5j0fd895c2c41bk3tw0000gp/T//ccmKeONX.s 			page 59


 359:../../libDaisy//src/dev/oled_ssd130x.h ****     }
 1613              		.loc 8 359 42 view .LVU341
 1614 0038 C118     		adds	r1, r0, r3
 1615              	.LVL124:
 359:../../libDaisy//src/dev/oled_ssd130x.h ****     }
 1616              		.loc 8 359 42 view .LVU342
 1617 003a 0A7D     		ldrb	r2, [r1, #20]	@ zero_extendqisi2
 1618 003c 22EA0C02 		bic	r2, r2, ip
 1619 0040 0A75     		strb	r2, [r1, #20]
 1620              	.LVL125:
 1621              	.L114:
 359:../../libDaisy//src/dev/oled_ssd130x.h ****     }
 1622              		.loc 8 359 42 view .LVU343
 1623              	.LBE667:
 1624              	.LBE666:
 1625              	.LBE665:
 1626              	.LBE664:
  45:../../libDaisy//src/hid/disp/oled_display.h **** 
 1627              		.loc 7 45 5 view .LVU344
 1628 0042 7047     		bx	lr
 1629              		.cfi_endproc
 1630              	.LFE5330:
 1632              		.section	.text._ZN5daisy25OneBitGraphicsDisplayImplINS_11OledDisplayINS_13SSD130xDriverILj128ELj64
 1633              		.align	1
 1634              		.p2align 2,,3
 1635              		.weak	_ZN5daisy25OneBitGraphicsDisplayImplINS_11OledDisplayINS_13SSD130xDriverILj128ELj64ENS_24SSD
 1636              		.syntax unified
 1637              		.thumb
 1638              		.thumb_func
 1639              		.fpu fpv5-d16
 1641              	_ZN5daisy25OneBitGraphicsDisplayImplINS_11OledDisplayINS_13SSD130xDriverILj128ELj64ENS_24SSD130x4Wi
 1642              	.LVL126:
 1643              	.LFB5433:
 221:../../libDaisy//src/hid/disp/display.h ****                   uint_fast8_t y1,
 1644              		.loc 9 221 10 is_stmt 1 view -0
 1645              		.cfi_startproc
 1646              		@ args = 8, pretend = 0, frame = 8
 1647              		@ frame_needed = 0, uses_anonymous_args = 0
 221:../../libDaisy//src/hid/disp/display.h ****                   uint_fast8_t y1,
 1648              		.loc 9 221 10 is_stmt 0 view .LVU346
 1649 0000 2DE9F04F 		push	{r4, r5, r6, r7, r8, r9, r10, fp, lr}
 1650              		.cfi_def_cfa_offset 36
 1651              		.cfi_offset 4, -36
 1652              		.cfi_offset 5, -32
 1653              		.cfi_offset 6, -28
 1654              		.cfi_offset 7, -24
 1655              		.cfi_offset 8, -20
 1656              		.cfi_offset 9, -16
 1657              		.cfi_offset 10, -12
 1658              		.cfi_offset 11, -8
 1659              		.cfi_offset 14, -4
 1660 0004 83B0     		sub	sp, sp, #12
 1661              		.cfi_def_cfa_offset 48
 227:../../libDaisy//src/hid/disp/display.h ****         int_fast16_t deltaY = abs((int_fast16_t)y2 - (int_fast16_t)y1);
 1662              		.loc 9 227 52 view .LVU347
 1663 0006 5C1A     		subs	r4, r3, r1
 221:../../libDaisy//src/hid/disp/display.h ****                   uint_fast8_t y1,
ARM GAS  /var/folders/hl/qgbwny5j0fd895c2c41bk3tw0000gp/T//ccmKeONX.s 			page 60


 1664              		.loc 9 221 10 view .LVU348
 1665 0008 0C9E     		ldr	r6, [sp, #48]
 227:../../libDaisy//src/hid/disp/display.h ****         int_fast16_t deltaY = abs((int_fast16_t)y2 - (int_fast16_t)y1);
 1666              		.loc 9 227 22 view .LVU349
 1667 000a 002C     		cmp	r4, #0
 221:../../libDaisy//src/hid/disp/display.h ****                   uint_fast8_t y1,
 1668              		.loc 9 221 10 view .LVU350
 1669 000c 9DF83490 		ldrb	r9, [sp, #52]	@ zero_extendqisi2
 228:../../libDaisy//src/hid/disp/display.h ****         int_fast16_t signX  = ((x1 < x2) ? 1 : -1);
 1670              		.loc 9 228 52 view .LVU351
 1671 0010 A6EB0208 		sub	r8, r6, r2
 227:../../libDaisy//src/hid/disp/display.h ****         int_fast16_t deltaY = abs((int_fast16_t)y2 - (int_fast16_t)y1);
 1672              		.loc 9 227 22 view .LVU352
 1673 0014 B8BF     		it	lt
 1674 0016 6442     		rsblt	r4, r4, #0
 1675              	.LVL127:
 228:../../libDaisy//src/hid/disp/display.h ****         int_fast16_t signX  = ((x1 < x2) ? 1 : -1);
 1676              		.loc 9 228 22 view .LVU353
 1677 0018 B8F1000F 		cmp	r8, #0
 1678 001c B8BF     		it	lt
 1679 001e C8F10008 		rsblt	r8, r8, #0
 1680              	.LVL128:
 229:../../libDaisy//src/hid/disp/display.h ****         int_fast16_t signY  = ((y1 < y2) ? 1 : -1);
 1681              		.loc 9 229 42 view .LVU354
 1682 0022 8B42     		cmp	r3, r1
 1683 0024 8CBF     		ite	hi
 1684 0026 4FF0010A 		movhi	r10, #1
 1685 002a 4FF0FF3A 		movls	r10, #-1
 1686              	.LVL129:
 230:../../libDaisy//src/hid/disp/display.h ****         int_fast16_t error  = deltaX - deltaY;
 1687              		.loc 9 230 42 view .LVU355
 1688 002e 9642     		cmp	r6, r2
 231:../../libDaisy//src/hid/disp/display.h ****         int_fast16_t error2;
 1689              		.loc 9 231 22 view .LVU356
 1690 0030 A4EB080C 		sub	ip, r4, r8
 230:../../libDaisy//src/hid/disp/display.h ****         int_fast16_t error  = deltaX - deltaY;
 1691              		.loc 9 230 42 view .LVU357
 1692 0034 51D8     		bhi	.L119
 1693              	.LVL130:
 1694              	.LBB684:
 1695              	.LBI684:
  42:../../libDaisy//src/hid/disp/oled_display.h ****     {
 1696              		.loc 7 42 10 is_stmt 1 discriminator 4 view .LVU358
 1697              	.LBB685:
 1698              	.LBI685:
 352:../../libDaisy//src/dev/oled_ssd130x.h ****     {
 1699              		.loc 8 352 10 discriminator 4 view .LVU359
 1700              	.LBE685:
 1701              	.LBE684:
 230:../../libDaisy//src/hid/disp/display.h ****         int_fast16_t error  = deltaX - deltaY;
 1702              		.loc 9 230 42 is_stmt 0 discriminator 4 view .LVU360
 1703 0036 4FF0FF35 		mov	r5, #-1
 1704              	.LBB701:
 1705              	.LBB695:
 1706              	.LBB686:
 354:../../libDaisy//src/dev/oled_ssd130x.h ****             return;
 1707              		.loc 8 354 9 discriminator 4 view .LVU361
ARM GAS  /var/folders/hl/qgbwny5j0fd895c2c41bk3tw0000gp/T//ccmKeONX.s 			page 61


 1708 003a 7F2B     		cmp	r3, #127
 1709              	.LBE686:
 1710              	.LBE695:
 1711              	.LBE701:
 230:../../libDaisy//src/hid/disp/display.h ****         int_fast16_t error  = deltaX - deltaY;
 1712              		.loc 9 230 42 discriminator 4 view .LVU362
 1713 003c 0195     		str	r5, [sp, #4]
 1714              	.LBB702:
 1715              	.LBB696:
 1716              	.LBB691:
 354:../../libDaisy//src/dev/oled_ssd130x.h ****             return;
 1717              		.loc 8 354 9 discriminator 4 view .LVU363
 1718 003e 12D8     		bhi	.L120
 1719 0040 3F2E     		cmp	r6, #63
 1720 0042 10D8     		bhi	.L120
 1721              	.LVL131:
 1722              	.L131:
 357:../../libDaisy//src/dev/oled_ssd130x.h ****         else
 1723              		.loc 8 357 28 view .LVU364
 1724 0044 F508     		lsrs	r5, r6, #3
 357:../../libDaisy//src/dev/oled_ssd130x.h ****         else
 1725              		.loc 8 357 54 view .LVU365
 1726 0046 06F0070E 		and	lr, r6, #7
 357:../../libDaisy//src/dev/oled_ssd130x.h ****         else
 1727              		.loc 8 357 48 view .LVU366
 1728 004a 0127     		movs	r7, #1
 357:../../libDaisy//src/dev/oled_ssd130x.h ****         else
 1729              		.loc 8 357 42 view .LVU367
 1730 004c 03EBC515 		add	r5, r3, r5, lsl #7
 1731 0050 0544     		add	r5, r5, r0
 356:../../libDaisy//src/dev/oled_ssd130x.h ****             buffer_[x + (y / 8) * width] |= (1 << (y % 8));
 1732              		.loc 8 356 9 view .LVU368
 1733 0052 B9F1000F 		cmp	r9, #0
 1734 0056 47D0     		beq	.L121
 357:../../libDaisy//src/dev/oled_ssd130x.h ****         else
 1735              		.loc 8 357 48 view .LVU369
 1736 0058 07FA0EF7 		lsl	r7, r7, lr
 357:../../libDaisy//src/dev/oled_ssd130x.h ****         else
 1737              		.loc 8 357 42 view .LVU370
 1738 005c 95F814E0 		ldrb	lr, [r5, #20]	@ zero_extendqisi2
 1739 0060 47EA0E07 		orr	r7, r7, lr
 1740 0064 2F75     		strb	r7, [r5, #20]
 1741              	.LVL132:
 1742              	.L120:
 357:../../libDaisy//src/dev/oled_ssd130x.h ****         else
 1743              		.loc 8 357 42 view .LVU371
 1744              	.LBE691:
 1745              	.LBE696:
 1746              	.LBE702:
 239:../../libDaisy//src/hid/disp/display.h ****         {
 1747              		.loc 9 239 26 is_stmt 1 view .LVU372
 1748 0066 9642     		cmp	r6, r2
 1749 0068 01D1     		bne	.L124
 1750              	.L143:
 239:../../libDaisy//src/hid/disp/display.h ****         {
 1751              		.loc 9 239 26 is_stmt 0 view .LVU373
 1752 006a 8B42     		cmp	r3, r1
ARM GAS  /var/folders/hl/qgbwny5j0fd895c2c41bk3tw0000gp/T//ccmKeONX.s 			page 62


 1753 006c 29D0     		beq	.L117
 1754              	.L124:
 1755              	.LVL133:
 243:../../libDaisy//src/hid/disp/display.h ****             {
 1756              		.loc 9 243 23 view .LVU374
 1757 006e C8F10007 		rsb	r7, r8, #0
 1758              	.L126:
 1759              	.LVL134:
 1760              	.LBB703:
 1761              	.LBI703:
  42:../../libDaisy//src/hid/disp/oled_display.h ****     {
 1762              		.loc 7 42 10 is_stmt 1 view .LVU375
 1763              	.LBB704:
 1764              	.LBI704:
 352:../../libDaisy//src/dev/oled_ssd130x.h ****     {
 1765              		.loc 8 352 10 view .LVU376
 1766              	.LBB705:
 354:../../libDaisy//src/dev/oled_ssd130x.h ****             return;
 1767              		.loc 8 354 9 is_stmt 0 view .LVU377
 1768 0072 7F29     		cmp	r1, #127
 1769 0074 14D8     		bhi	.L127
 1770 0076 3F2A     		cmp	r2, #63
 1771 0078 12D8     		bhi	.L127
 357:../../libDaisy//src/dev/oled_ssd130x.h ****         else
 1772              		.loc 8 357 28 view .LVU378
 1773 007a D508     		lsrs	r5, r2, #3
 357:../../libDaisy//src/dev/oled_ssd130x.h ****         else
 1774              		.loc 8 357 54 view .LVU379
 1775 007c 02F0070B 		and	fp, r2, #7
 357:../../libDaisy//src/dev/oled_ssd130x.h ****         else
 1776              		.loc 8 357 48 view .LVU380
 1777 0080 4FF0010E 		mov	lr, #1
 357:../../libDaisy//src/dev/oled_ssd130x.h ****         else
 1778              		.loc 8 357 42 view .LVU381
 1779 0084 01EBC515 		add	r5, r1, r5, lsl #7
 1780 0088 0544     		add	r5, r5, r0
 356:../../libDaisy//src/dev/oled_ssd130x.h ****             buffer_[x + (y / 8) * width] |= (1 << (y % 8));
 1781              		.loc 8 356 9 view .LVU382
 1782 008a B9F1000F 		cmp	r9, #0
 1783 008e 1BD0     		beq	.L128
 357:../../libDaisy//src/dev/oled_ssd130x.h ****         else
 1784              		.loc 8 357 48 view .LVU383
 1785 0090 0EFA0BFE 		lsl	lr, lr, fp
 357:../../libDaisy//src/dev/oled_ssd130x.h ****         else
 1786              		.loc 8 357 42 view .LVU384
 1787 0094 95F814B0 		ldrb	fp, [r5, #20]	@ zero_extendqisi2
 1788 0098 4EEA0B0E 		orr	lr, lr, fp
 1789 009c 85F814E0 		strb	lr, [r5, #20]
 1790              	.L127:
 1791              	.LVL135:
 357:../../libDaisy//src/dev/oled_ssd130x.h ****         else
 1792              		.loc 8 357 42 view .LVU385
 1793              	.LBE705:
 1794              	.LBE704:
 1795              	.LBE703:
 243:../../libDaisy//src/hid/disp/display.h ****             {
 1796              		.loc 9 243 13 view .LVU386
ARM GAS  /var/folders/hl/qgbwny5j0fd895c2c41bk3tw0000gp/T//ccmKeONX.s 			page 63


 1797 00a0 B7EB4C0F 		cmp	r7, ip, lsl #1
 242:../../libDaisy//src/hid/disp/display.h ****             if(error2 > -deltaY)
 1798              		.loc 9 242 20 view .LVU387
 1799 00a4 4FEA4C05 		lsl	r5, ip, #1
 1800              	.LVL136:
 243:../../libDaisy//src/hid/disp/display.h ****             {
 1801              		.loc 9 243 13 view .LVU388
 1802 00a8 02DA     		bge	.L129
 245:../../libDaisy//src/hid/disp/display.h ****                 x1 += signX;
 1803              		.loc 9 245 23 view .LVU389
 1804 00aa ACEB080C 		sub	ip, ip, r8
 1805              	.LVL137:
 246:../../libDaisy//src/hid/disp/display.h ****             }
 1806              		.loc 9 246 20 view .LVU390
 1807 00ae 5144     		add	r1, r1, r10
 1808              	.LVL138:
 1809              	.L129:
 249:../../libDaisy//src/hid/disp/display.h ****             {
 1810              		.loc 9 249 13 view .LVU391
 1811 00b0 AC42     		cmp	r4, r5
 1812 00b2 02DD     		ble	.L130
 252:../../libDaisy//src/hid/disp/display.h ****             }
 1813              		.loc 9 252 20 view .LVU392
 1814 00b4 019D     		ldr	r5, [sp, #4]
 1815              	.LVL139:
 251:../../libDaisy//src/hid/disp/display.h ****                 y1 += signY;
 1816              		.loc 9 251 23 view .LVU393
 1817 00b6 A444     		add	ip, ip, r4
 1818              	.LVL140:
 252:../../libDaisy//src/hid/disp/display.h ****             }
 1819              		.loc 9 252 20 view .LVU394
 1820 00b8 2A44     		add	r2, r2, r5
 1821              	.LVL141:
 1822              	.L130:
 239:../../libDaisy//src/hid/disp/display.h ****         {
 1823              		.loc 9 239 26 is_stmt 1 view .LVU395
 1824 00ba 9942     		cmp	r1, r3
 1825 00bc D9D1     		bne	.L126
 239:../../libDaisy//src/hid/disp/display.h ****         {
 1826              		.loc 9 239 26 is_stmt 0 view .LVU396
 1827 00be 9642     		cmp	r6, r2
 1828 00c0 D7D1     		bne	.L126
 1829              	.L117:
 255:../../libDaisy//src/hid/disp/display.h **** 
 1830              		.loc 9 255 5 view .LVU397
 1831 00c2 03B0     		add	sp, sp, #12
 1832              		.cfi_remember_state
 1833              		.cfi_def_cfa_offset 36
 1834              		@ sp needed
 1835 00c4 BDE8F08F 		pop	{r4, r5, r6, r7, r8, r9, r10, fp, pc}
 1836              	.LVL142:
 1837              	.L128:
 1838              		.cfi_restore_state
 1839              	.LBB710:
 1840              	.LBB709:
 1841              	.LBB708:
 1842              	.LBB706:
ARM GAS  /var/folders/hl/qgbwny5j0fd895c2c41bk3tw0000gp/T//ccmKeONX.s 			page 64


 1843              	.LBI706:
 352:../../libDaisy//src/dev/oled_ssd130x.h ****     {
 1844              		.loc 8 352 10 is_stmt 1 view .LVU398
 1845              	.LBB707:
 359:../../libDaisy//src/dev/oled_ssd130x.h ****     }
 1846              		.loc 8 359 49 is_stmt 0 view .LVU399
 1847 00c8 0EFA0BFB 		lsl	fp, lr, fp
 359:../../libDaisy//src/dev/oled_ssd130x.h ****     }
 1848              		.loc 8 359 42 view .LVU400
 1849 00cc 95F814E0 		ldrb	lr, [r5, #20]	@ zero_extendqisi2
 1850 00d0 2EEA0B0E 		bic	lr, lr, fp
 1851 00d4 85F814E0 		strb	lr, [r5, #20]
 1852 00d8 E2E7     		b	.L127
 1853              	.LVL143:
 1854              	.L119:
 359:../../libDaisy//src/dev/oled_ssd130x.h ****     }
 1855              		.loc 8 359 42 view .LVU401
 1856              	.LBE707:
 1857              	.LBE706:
 1858              	.LBE708:
 1859              	.LBE709:
 1860              	.LBE710:
 1861              	.LBB711:
  42:../../libDaisy//src/hid/disp/oled_display.h ****     {
 1862              		.loc 7 42 10 is_stmt 1 view .LVU402
 1863              	.LBB697:
 352:../../libDaisy//src/dev/oled_ssd130x.h ****     {
 1864              		.loc 8 352 10 view .LVU403
 1865              	.LBE697:
 1866              	.LBE711:
 230:../../libDaisy//src/hid/disp/display.h ****         int_fast16_t error  = deltaX - deltaY;
 1867              		.loc 9 230 42 is_stmt 0 view .LVU404
 1868 00da 0125     		movs	r5, #1
 1869              	.LBB712:
 1870              	.LBB698:
 1871              	.LBB692:
 354:../../libDaisy//src/dev/oled_ssd130x.h ****             return;
 1872              		.loc 8 354 9 view .LVU405
 1873 00dc 7F2B     		cmp	r3, #127
 1874              	.LBE692:
 1875              	.LBE698:
 1876              	.LBE712:
 230:../../libDaisy//src/hid/disp/display.h ****         int_fast16_t error  = deltaX - deltaY;
 1877              		.loc 9 230 42 view .LVU406
 1878 00de 0195     		str	r5, [sp, #4]
 1879              	.LBB713:
 1880              	.LBB699:
 1881              	.LBB693:
 354:../../libDaisy//src/dev/oled_ssd130x.h ****             return;
 1882              		.loc 8 354 9 view .LVU407
 1883 00e0 C5D8     		bhi	.L124
 1884 00e2 3F2E     		cmp	r6, #63
 1885 00e4 AED9     		bls	.L131
 1886 00e6 C2E7     		b	.L124
 1887              	.LVL144:
 1888              	.L121:
 1889              	.LBB687:
ARM GAS  /var/folders/hl/qgbwny5j0fd895c2c41bk3tw0000gp/T//ccmKeONX.s 			page 65


 1890              	.LBI687:
 352:../../libDaisy//src/dev/oled_ssd130x.h ****     {
 1891              		.loc 8 352 10 is_stmt 1 view .LVU408
 1892              	.LBB688:
 359:../../libDaisy//src/dev/oled_ssd130x.h ****     }
 1893              		.loc 8 359 49 is_stmt 0 view .LVU409
 1894 00e8 07FA0EFE 		lsl	lr, r7, lr
 359:../../libDaisy//src/dev/oled_ssd130x.h ****     }
 1895              		.loc 8 359 42 view .LVU410
 1896 00ec 2F7D     		ldrb	r7, [r5, #20]	@ zero_extendqisi2
 1897              	.LBE688:
 1898              	.LBE687:
 1899              	.LBE693:
 1900              	.LBE699:
 1901              	.LBE713:
 239:../../libDaisy//src/hid/disp/display.h ****         {
 1902              		.loc 9 239 26 view .LVU411
 1903 00ee 9642     		cmp	r6, r2
 1904              	.LBB714:
 1905              	.LBB700:
 1906              	.LBB694:
 1907              	.LBB690:
 1908              	.LBB689:
 359:../../libDaisy//src/dev/oled_ssd130x.h ****     }
 1909              		.loc 8 359 42 view .LVU412
 1910 00f0 27EA0E07 		bic	r7, r7, lr
 1911 00f4 2F75     		strb	r7, [r5, #20]
 1912              	.LVL145:
 359:../../libDaisy//src/dev/oled_ssd130x.h ****     }
 1913              		.loc 8 359 42 view .LVU413
 1914              	.LBE689:
 1915              	.LBE690:
 1916              	.LBE694:
 1917              	.LBE700:
 1918              	.LBE714:
 239:../../libDaisy//src/hid/disp/display.h ****         {
 1919              		.loc 9 239 26 is_stmt 1 view .LVU414
 1920 00f6 B8D0     		beq	.L143
 1921 00f8 B9E7     		b	.L124
 1922              		.cfi_endproc
 1923              	.LFE5433:
 1925 00fa 00BF     		.section	.text._ZN5daisy25OneBitGraphicsDisplayImplINS_11OledDisplayINS_13SSD130xDriverILj128ELj64
 1926              		.align	1
 1927              		.p2align 2,,3
 1928              		.weak	_ZN5daisy25OneBitGraphicsDisplayImplINS_11OledDisplayINS_13SSD130xDriverILj128ELj64ENS_24SSD
 1929              		.syntax unified
 1930              		.thumb
 1931              		.thumb_func
 1932              		.fpu fpv5-d16
 1934              	_ZN5daisy25OneBitGraphicsDisplayImplINS_11OledDisplayINS_13SSD130xDriverILj128ELj64ENS_24SSD130x4Wi
 1935              	.LVL146:
 1936              	.LFB5435:
 283:../../libDaisy//src/hid/disp/display.h ****                  uint_fast8_t y,
 1937              		.loc 9 283 10 view -0
 1938              		.cfi_startproc
 1939              		@ args = 12, pretend = 0, frame = 8
 1940              		@ frame_needed = 0, uses_anonymous_args = 0
ARM GAS  /var/folders/hl/qgbwny5j0fd895c2c41bk3tw0000gp/T//ccmKeONX.s 			page 66


 283:../../libDaisy//src/hid/disp/display.h ****                  uint_fast8_t y,
 1941              		.loc 9 283 10 is_stmt 0 view .LVU416
 1942 0000 2DE9F04F 		push	{r4, r5, r6, r7, r8, r9, r10, fp, lr}
 1943              		.cfi_def_cfa_offset 36
 1944              		.cfi_offset 4, -36
 1945              		.cfi_offset 5, -32
 1946              		.cfi_offset 6, -28
 1947              		.cfi_offset 7, -24
 1948              		.cfi_offset 8, -20
 1949              		.cfi_offset 9, -16
 1950              		.cfi_offset 10, -12
 1951              		.cfi_offset 11, -8
 1952              		.cfi_offset 14, -4
 1953 0004 2DED068B 		vpush.64	{d8, d9, d10}
 1954              		.cfi_def_cfa_offset 60
 1955              		.cfi_offset 80, -60
 1956              		.cfi_offset 81, -56
 1957              		.cfi_offset 82, -52
 1958              		.cfi_offset 83, -48
 1959              		.cfi_offset 84, -44
 1960              		.cfi_offset 85, -40
 1961 0008 83B0     		sub	sp, sp, #12
 1962              		.cfi_def_cfa_offset 72
 283:../../libDaisy//src/hid/disp/display.h ****                  uint_fast8_t y,
 1963              		.loc 9 283 10 view .LVU417
 1964 000a 1F46     		mov	r7, r3
 1965 000c 8046     		mov	r8, r0
 1966 000e 0D46     		mov	r5, r1
 1967 0010 9DF85030 		ldrb	r3, [sp, #80]	@ zero_extendqisi2
 1968              	.LVL147:
 283:../../libDaisy//src/hid/disp/display.h ****                  uint_fast8_t y,
 1969              		.loc 9 283 10 view .LVU418
 1970 0014 1646     		mov	r6, r2
 1971 0016 0193     		str	r3, [sp, #4]
 306:../../libDaisy//src/hid/disp/display.h ****         {
 1972              		.loc 9 306 9 view .LVU419
 1973 0018 139B     		ldr	r3, [sp, #76]
 1974 001a 002B     		cmp	r3, #0
 1975 001c C0F22182 		blt	.L145
 313:../../libDaisy//src/hid/disp/display.h **** 
 1976              		.loc 9 313 27 view .LVU420
 1977 0020 129A     		ldr	r2, [sp, #72]
 1978              	.LVL148:
 313:../../libDaisy//src/hid/disp/display.h **** 
 1979              		.loc 9 313 27 view .LVU421
 1980 0022 1344     		add	r3, r3, r2
 1981 0024 06EE103A 		vmov	s12, r3	@ int
 1982              	.LVL149:
 1983              	.L146:
 312:../../libDaisy//src/hid/disp/display.h ****         end_angle_rad   = deg2rad(start_angle + sweep);
 1984              		.loc 9 312 27 view .LVU422
 1985 0028 DDED127A 		vldr.32	s15, [sp, #72]	@ int
 313:../../libDaisy//src/hid/disp/display.h **** 
 1986              		.loc 9 313 27 view .LVU423
 1987 002c B8EEC66B 		vcvt.f64.s32	d6, s12
 312:../../libDaisy//src/hid/disp/display.h ****         end_angle_rad   = deg2rad(start_angle + sweep);
 1988              		.loc 9 312 27 view .LVU424
ARM GAS  /var/folders/hl/qgbwny5j0fd895c2c41bk3tw0000gp/T//ccmKeONX.s 			page 67


 1989 0030 9FEDCD4B 		vldr.64	d4, .L221
 1990 0034 B8EEE77B 		vcvt.f64.s32	d7, s15
 1991 0038 9FEDCD5B 		vldr.64	d5, .L221+8
 1992 003c 27EE047B 		vmul.f64	d7, d7, d4
 313:../../libDaisy//src/hid/disp/display.h **** 
 1993              		.loc 9 313 27 view .LVU425
 1994 0040 26EE046B 		vmul.f64	d6, d6, d4
 312:../../libDaisy//src/hid/disp/display.h ****         end_angle_rad   = deg2rad(start_angle + sweep);
 1995              		.loc 9 312 27 view .LVU426
 1996 0044 87EE050B 		vdiv.f64	d0, d7, d5
 313:../../libDaisy//src/hid/disp/display.h **** 
 1997              		.loc 9 313 27 view .LVU427
 1998 0048 86EE05AB 		vdiv.f64	d10, d6, d5
 312:../../libDaisy//src/hid/disp/display.h ****         end_angle_rad   = deg2rad(start_angle + sweep);
 1999              		.loc 9 312 25 view .LVU428
 2000 004c F7EEC08B 		vcvt.f32.f64	s17, d0
 2001              	.LVL150:
 2002              	.LBB747:
 2003              	.LBB748:
 2004              		.file 13 "/opt/homebrew/Cellar/arm-none-eabi-gcc/10.3-2021.07/gcc/arm-none-eabi/include/c++/10.3.1
   1:/opt/homebrew/Cellar/arm-none-eabi-gcc/10.3-2021.07/gcc/arm-none-eabi/include/c++/10.3.1/cmath **** // -*- C++ -*- C forwarding header.
   2:/opt/homebrew/Cellar/arm-none-eabi-gcc/10.3-2021.07/gcc/arm-none-eabi/include/c++/10.3.1/cmath **** 
   3:/opt/homebrew/Cellar/arm-none-eabi-gcc/10.3-2021.07/gcc/arm-none-eabi/include/c++/10.3.1/cmath **** // Copyright (C) 1997-2020 Free Software Foundation, Inc.
   4:/opt/homebrew/Cellar/arm-none-eabi-gcc/10.3-2021.07/gcc/arm-none-eabi/include/c++/10.3.1/cmath **** //
   5:/opt/homebrew/Cellar/arm-none-eabi-gcc/10.3-2021.07/gcc/arm-none-eabi/include/c++/10.3.1/cmath **** // This file is part of the GNU ISO C++ Library.  This library is free
   6:/opt/homebrew/Cellar/arm-none-eabi-gcc/10.3-2021.07/gcc/arm-none-eabi/include/c++/10.3.1/cmath **** // software; you can redistribute it and/or modify it under the
   7:/opt/homebrew/Cellar/arm-none-eabi-gcc/10.3-2021.07/gcc/arm-none-eabi/include/c++/10.3.1/cmath **** // terms of the GNU General Public License as published by the
   8:/opt/homebrew/Cellar/arm-none-eabi-gcc/10.3-2021.07/gcc/arm-none-eabi/include/c++/10.3.1/cmath **** // Free Software Foundation; either version 3, or (at your option)
   9:/opt/homebrew/Cellar/arm-none-eabi-gcc/10.3-2021.07/gcc/arm-none-eabi/include/c++/10.3.1/cmath **** // any later version.
  10:/opt/homebrew/Cellar/arm-none-eabi-gcc/10.3-2021.07/gcc/arm-none-eabi/include/c++/10.3.1/cmath **** 
  11:/opt/homebrew/Cellar/arm-none-eabi-gcc/10.3-2021.07/gcc/arm-none-eabi/include/c++/10.3.1/cmath **** // This library is distributed in the hope that it will be useful,
  12:/opt/homebrew/Cellar/arm-none-eabi-gcc/10.3-2021.07/gcc/arm-none-eabi/include/c++/10.3.1/cmath **** // but WITHOUT ANY WARRANTY; without even the implied warranty of
  13:/opt/homebrew/Cellar/arm-none-eabi-gcc/10.3-2021.07/gcc/arm-none-eabi/include/c++/10.3.1/cmath **** // MERCHANTABILITY or FITNESS FOR A PARTICULAR PURPOSE.  See the
  14:/opt/homebrew/Cellar/arm-none-eabi-gcc/10.3-2021.07/gcc/arm-none-eabi/include/c++/10.3.1/cmath **** // GNU General Public License for more details.
  15:/opt/homebrew/Cellar/arm-none-eabi-gcc/10.3-2021.07/gcc/arm-none-eabi/include/c++/10.3.1/cmath **** 
  16:/opt/homebrew/Cellar/arm-none-eabi-gcc/10.3-2021.07/gcc/arm-none-eabi/include/c++/10.3.1/cmath **** // Under Section 7 of GPL version 3, you are granted additional
  17:/opt/homebrew/Cellar/arm-none-eabi-gcc/10.3-2021.07/gcc/arm-none-eabi/include/c++/10.3.1/cmath **** // permissions described in the GCC Runtime Library Exception, version
  18:/opt/homebrew/Cellar/arm-none-eabi-gcc/10.3-2021.07/gcc/arm-none-eabi/include/c++/10.3.1/cmath **** // 3.1, as published by the Free Software Foundation.
  19:/opt/homebrew/Cellar/arm-none-eabi-gcc/10.3-2021.07/gcc/arm-none-eabi/include/c++/10.3.1/cmath **** 
  20:/opt/homebrew/Cellar/arm-none-eabi-gcc/10.3-2021.07/gcc/arm-none-eabi/include/c++/10.3.1/cmath **** // You should have received a copy of the GNU General Public License and
  21:/opt/homebrew/Cellar/arm-none-eabi-gcc/10.3-2021.07/gcc/arm-none-eabi/include/c++/10.3.1/cmath **** // a copy of the GCC Runtime Library Exception along with this program;
  22:/opt/homebrew/Cellar/arm-none-eabi-gcc/10.3-2021.07/gcc/arm-none-eabi/include/c++/10.3.1/cmath **** // see the files COPYING3 and COPYING.RUNTIME respectively.  If not, see
  23:/opt/homebrew/Cellar/arm-none-eabi-gcc/10.3-2021.07/gcc/arm-none-eabi/include/c++/10.3.1/cmath **** // <http://www.gnu.org/licenses/>.
  24:/opt/homebrew/Cellar/arm-none-eabi-gcc/10.3-2021.07/gcc/arm-none-eabi/include/c++/10.3.1/cmath **** 
  25:/opt/homebrew/Cellar/arm-none-eabi-gcc/10.3-2021.07/gcc/arm-none-eabi/include/c++/10.3.1/cmath **** /** @file include/cmath
  26:/opt/homebrew/Cellar/arm-none-eabi-gcc/10.3-2021.07/gcc/arm-none-eabi/include/c++/10.3.1/cmath ****  *  This is a Standard C++ Library file.  You should @c \#include this file
  27:/opt/homebrew/Cellar/arm-none-eabi-gcc/10.3-2021.07/gcc/arm-none-eabi/include/c++/10.3.1/cmath ****  *  in your programs, rather than any of the @a *.h implementation files.
  28:/opt/homebrew/Cellar/arm-none-eabi-gcc/10.3-2021.07/gcc/arm-none-eabi/include/c++/10.3.1/cmath ****  *
  29:/opt/homebrew/Cellar/arm-none-eabi-gcc/10.3-2021.07/gcc/arm-none-eabi/include/c++/10.3.1/cmath ****  *  This is the C++ version of the Standard C Library header @c math.h,
  30:/opt/homebrew/Cellar/arm-none-eabi-gcc/10.3-2021.07/gcc/arm-none-eabi/include/c++/10.3.1/cmath ****  *  and its contents are (mostly) the same as that header, but are all
  31:/opt/homebrew/Cellar/arm-none-eabi-gcc/10.3-2021.07/gcc/arm-none-eabi/include/c++/10.3.1/cmath ****  *  contained in the namespace @c std (except for names which are defined
  32:/opt/homebrew/Cellar/arm-none-eabi-gcc/10.3-2021.07/gcc/arm-none-eabi/include/c++/10.3.1/cmath ****  *  as macros in C).
  33:/opt/homebrew/Cellar/arm-none-eabi-gcc/10.3-2021.07/gcc/arm-none-eabi/include/c++/10.3.1/cmath ****  */
  34:/opt/homebrew/Cellar/arm-none-eabi-gcc/10.3-2021.07/gcc/arm-none-eabi/include/c++/10.3.1/cmath **** 
  35:/opt/homebrew/Cellar/arm-none-eabi-gcc/10.3-2021.07/gcc/arm-none-eabi/include/c++/10.3.1/cmath **** //
  36:/opt/homebrew/Cellar/arm-none-eabi-gcc/10.3-2021.07/gcc/arm-none-eabi/include/c++/10.3.1/cmath **** // ISO C++ 14882: 26.5  C library
  37:/opt/homebrew/Cellar/arm-none-eabi-gcc/10.3-2021.07/gcc/arm-none-eabi/include/c++/10.3.1/cmath **** //
ARM GAS  /var/folders/hl/qgbwny5j0fd895c2c41bk3tw0000gp/T//ccmKeONX.s 			page 68


  38:/opt/homebrew/Cellar/arm-none-eabi-gcc/10.3-2021.07/gcc/arm-none-eabi/include/c++/10.3.1/cmath **** 
  39:/opt/homebrew/Cellar/arm-none-eabi-gcc/10.3-2021.07/gcc/arm-none-eabi/include/c++/10.3.1/cmath **** #pragma GCC system_header
  40:/opt/homebrew/Cellar/arm-none-eabi-gcc/10.3-2021.07/gcc/arm-none-eabi/include/c++/10.3.1/cmath **** 
  41:/opt/homebrew/Cellar/arm-none-eabi-gcc/10.3-2021.07/gcc/arm-none-eabi/include/c++/10.3.1/cmath **** #include <bits/c++config.h>
  42:/opt/homebrew/Cellar/arm-none-eabi-gcc/10.3-2021.07/gcc/arm-none-eabi/include/c++/10.3.1/cmath **** #include <bits/cpp_type_traits.h>
  43:/opt/homebrew/Cellar/arm-none-eabi-gcc/10.3-2021.07/gcc/arm-none-eabi/include/c++/10.3.1/cmath **** #include <ext/type_traits.h>
  44:/opt/homebrew/Cellar/arm-none-eabi-gcc/10.3-2021.07/gcc/arm-none-eabi/include/c++/10.3.1/cmath **** #define _GLIBCXX_INCLUDE_NEXT_C_HEADERS
  45:/opt/homebrew/Cellar/arm-none-eabi-gcc/10.3-2021.07/gcc/arm-none-eabi/include/c++/10.3.1/cmath **** #include_next <math.h>
  46:/opt/homebrew/Cellar/arm-none-eabi-gcc/10.3-2021.07/gcc/arm-none-eabi/include/c++/10.3.1/cmath **** #undef _GLIBCXX_INCLUDE_NEXT_C_HEADERS
  47:/opt/homebrew/Cellar/arm-none-eabi-gcc/10.3-2021.07/gcc/arm-none-eabi/include/c++/10.3.1/cmath **** #include <bits/std_abs.h>
  48:/opt/homebrew/Cellar/arm-none-eabi-gcc/10.3-2021.07/gcc/arm-none-eabi/include/c++/10.3.1/cmath **** 
  49:/opt/homebrew/Cellar/arm-none-eabi-gcc/10.3-2021.07/gcc/arm-none-eabi/include/c++/10.3.1/cmath **** #ifndef _GLIBCXX_CMATH
  50:/opt/homebrew/Cellar/arm-none-eabi-gcc/10.3-2021.07/gcc/arm-none-eabi/include/c++/10.3.1/cmath **** #define _GLIBCXX_CMATH 1
  51:/opt/homebrew/Cellar/arm-none-eabi-gcc/10.3-2021.07/gcc/arm-none-eabi/include/c++/10.3.1/cmath **** 
  52:/opt/homebrew/Cellar/arm-none-eabi-gcc/10.3-2021.07/gcc/arm-none-eabi/include/c++/10.3.1/cmath **** // Get rid of those macros defined in <math.h> in lieu of real functions.
  53:/opt/homebrew/Cellar/arm-none-eabi-gcc/10.3-2021.07/gcc/arm-none-eabi/include/c++/10.3.1/cmath **** #undef div
  54:/opt/homebrew/Cellar/arm-none-eabi-gcc/10.3-2021.07/gcc/arm-none-eabi/include/c++/10.3.1/cmath **** #undef acos
  55:/opt/homebrew/Cellar/arm-none-eabi-gcc/10.3-2021.07/gcc/arm-none-eabi/include/c++/10.3.1/cmath **** #undef asin
  56:/opt/homebrew/Cellar/arm-none-eabi-gcc/10.3-2021.07/gcc/arm-none-eabi/include/c++/10.3.1/cmath **** #undef atan
  57:/opt/homebrew/Cellar/arm-none-eabi-gcc/10.3-2021.07/gcc/arm-none-eabi/include/c++/10.3.1/cmath **** #undef atan2
  58:/opt/homebrew/Cellar/arm-none-eabi-gcc/10.3-2021.07/gcc/arm-none-eabi/include/c++/10.3.1/cmath **** #undef ceil
  59:/opt/homebrew/Cellar/arm-none-eabi-gcc/10.3-2021.07/gcc/arm-none-eabi/include/c++/10.3.1/cmath **** #undef cos
  60:/opt/homebrew/Cellar/arm-none-eabi-gcc/10.3-2021.07/gcc/arm-none-eabi/include/c++/10.3.1/cmath **** #undef cosh
  61:/opt/homebrew/Cellar/arm-none-eabi-gcc/10.3-2021.07/gcc/arm-none-eabi/include/c++/10.3.1/cmath **** #undef exp
  62:/opt/homebrew/Cellar/arm-none-eabi-gcc/10.3-2021.07/gcc/arm-none-eabi/include/c++/10.3.1/cmath **** #undef fabs
  63:/opt/homebrew/Cellar/arm-none-eabi-gcc/10.3-2021.07/gcc/arm-none-eabi/include/c++/10.3.1/cmath **** #undef floor
  64:/opt/homebrew/Cellar/arm-none-eabi-gcc/10.3-2021.07/gcc/arm-none-eabi/include/c++/10.3.1/cmath **** #undef fmod
  65:/opt/homebrew/Cellar/arm-none-eabi-gcc/10.3-2021.07/gcc/arm-none-eabi/include/c++/10.3.1/cmath **** #undef frexp
  66:/opt/homebrew/Cellar/arm-none-eabi-gcc/10.3-2021.07/gcc/arm-none-eabi/include/c++/10.3.1/cmath **** #undef ldexp
  67:/opt/homebrew/Cellar/arm-none-eabi-gcc/10.3-2021.07/gcc/arm-none-eabi/include/c++/10.3.1/cmath **** #undef log
  68:/opt/homebrew/Cellar/arm-none-eabi-gcc/10.3-2021.07/gcc/arm-none-eabi/include/c++/10.3.1/cmath **** #undef log10
  69:/opt/homebrew/Cellar/arm-none-eabi-gcc/10.3-2021.07/gcc/arm-none-eabi/include/c++/10.3.1/cmath **** #undef modf
  70:/opt/homebrew/Cellar/arm-none-eabi-gcc/10.3-2021.07/gcc/arm-none-eabi/include/c++/10.3.1/cmath **** #undef pow
  71:/opt/homebrew/Cellar/arm-none-eabi-gcc/10.3-2021.07/gcc/arm-none-eabi/include/c++/10.3.1/cmath **** #undef sin
  72:/opt/homebrew/Cellar/arm-none-eabi-gcc/10.3-2021.07/gcc/arm-none-eabi/include/c++/10.3.1/cmath **** #undef sinh
  73:/opt/homebrew/Cellar/arm-none-eabi-gcc/10.3-2021.07/gcc/arm-none-eabi/include/c++/10.3.1/cmath **** #undef sqrt
  74:/opt/homebrew/Cellar/arm-none-eabi-gcc/10.3-2021.07/gcc/arm-none-eabi/include/c++/10.3.1/cmath **** #undef tan
  75:/opt/homebrew/Cellar/arm-none-eabi-gcc/10.3-2021.07/gcc/arm-none-eabi/include/c++/10.3.1/cmath **** #undef tanh
  76:/opt/homebrew/Cellar/arm-none-eabi-gcc/10.3-2021.07/gcc/arm-none-eabi/include/c++/10.3.1/cmath **** 
  77:/opt/homebrew/Cellar/arm-none-eabi-gcc/10.3-2021.07/gcc/arm-none-eabi/include/c++/10.3.1/cmath **** extern "C++"
  78:/opt/homebrew/Cellar/arm-none-eabi-gcc/10.3-2021.07/gcc/arm-none-eabi/include/c++/10.3.1/cmath **** {
  79:/opt/homebrew/Cellar/arm-none-eabi-gcc/10.3-2021.07/gcc/arm-none-eabi/include/c++/10.3.1/cmath **** namespace std _GLIBCXX_VISIBILITY(default)
  80:/opt/homebrew/Cellar/arm-none-eabi-gcc/10.3-2021.07/gcc/arm-none-eabi/include/c++/10.3.1/cmath **** {
  81:/opt/homebrew/Cellar/arm-none-eabi-gcc/10.3-2021.07/gcc/arm-none-eabi/include/c++/10.3.1/cmath **** _GLIBCXX_BEGIN_NAMESPACE_VERSION
  82:/opt/homebrew/Cellar/arm-none-eabi-gcc/10.3-2021.07/gcc/arm-none-eabi/include/c++/10.3.1/cmath **** 
  83:/opt/homebrew/Cellar/arm-none-eabi-gcc/10.3-2021.07/gcc/arm-none-eabi/include/c++/10.3.1/cmath ****   using ::acos;
  84:/opt/homebrew/Cellar/arm-none-eabi-gcc/10.3-2021.07/gcc/arm-none-eabi/include/c++/10.3.1/cmath **** 
  85:/opt/homebrew/Cellar/arm-none-eabi-gcc/10.3-2021.07/gcc/arm-none-eabi/include/c++/10.3.1/cmath **** #ifndef __CORRECT_ISO_CPP_MATH_H_PROTO
  86:/opt/homebrew/Cellar/arm-none-eabi-gcc/10.3-2021.07/gcc/arm-none-eabi/include/c++/10.3.1/cmath ****   inline _GLIBCXX_CONSTEXPR float
  87:/opt/homebrew/Cellar/arm-none-eabi-gcc/10.3-2021.07/gcc/arm-none-eabi/include/c++/10.3.1/cmath ****   acos(float __x)
  88:/opt/homebrew/Cellar/arm-none-eabi-gcc/10.3-2021.07/gcc/arm-none-eabi/include/c++/10.3.1/cmath ****   { return __builtin_acosf(__x); }
  89:/opt/homebrew/Cellar/arm-none-eabi-gcc/10.3-2021.07/gcc/arm-none-eabi/include/c++/10.3.1/cmath **** 
  90:/opt/homebrew/Cellar/arm-none-eabi-gcc/10.3-2021.07/gcc/arm-none-eabi/include/c++/10.3.1/cmath ****   inline _GLIBCXX_CONSTEXPR long double
  91:/opt/homebrew/Cellar/arm-none-eabi-gcc/10.3-2021.07/gcc/arm-none-eabi/include/c++/10.3.1/cmath ****   acos(long double __x)
  92:/opt/homebrew/Cellar/arm-none-eabi-gcc/10.3-2021.07/gcc/arm-none-eabi/include/c++/10.3.1/cmath ****   { return __builtin_acosl(__x); }
  93:/opt/homebrew/Cellar/arm-none-eabi-gcc/10.3-2021.07/gcc/arm-none-eabi/include/c++/10.3.1/cmath **** #endif
  94:/opt/homebrew/Cellar/arm-none-eabi-gcc/10.3-2021.07/gcc/arm-none-eabi/include/c++/10.3.1/cmath **** 
ARM GAS  /var/folders/hl/qgbwny5j0fd895c2c41bk3tw0000gp/T//ccmKeONX.s 			page 69


  95:/opt/homebrew/Cellar/arm-none-eabi-gcc/10.3-2021.07/gcc/arm-none-eabi/include/c++/10.3.1/cmath ****   template<typename _Tp>
  96:/opt/homebrew/Cellar/arm-none-eabi-gcc/10.3-2021.07/gcc/arm-none-eabi/include/c++/10.3.1/cmath ****     inline _GLIBCXX_CONSTEXPR
  97:/opt/homebrew/Cellar/arm-none-eabi-gcc/10.3-2021.07/gcc/arm-none-eabi/include/c++/10.3.1/cmath ****     typename __gnu_cxx::__enable_if<__is_integer<_Tp>::__value, 
  98:/opt/homebrew/Cellar/arm-none-eabi-gcc/10.3-2021.07/gcc/arm-none-eabi/include/c++/10.3.1/cmath ****                                     double>::__type
  99:/opt/homebrew/Cellar/arm-none-eabi-gcc/10.3-2021.07/gcc/arm-none-eabi/include/c++/10.3.1/cmath ****     acos(_Tp __x)
 100:/opt/homebrew/Cellar/arm-none-eabi-gcc/10.3-2021.07/gcc/arm-none-eabi/include/c++/10.3.1/cmath ****     { return __builtin_acos(__x); }
 101:/opt/homebrew/Cellar/arm-none-eabi-gcc/10.3-2021.07/gcc/arm-none-eabi/include/c++/10.3.1/cmath **** 
 102:/opt/homebrew/Cellar/arm-none-eabi-gcc/10.3-2021.07/gcc/arm-none-eabi/include/c++/10.3.1/cmath ****   using ::asin;
 103:/opt/homebrew/Cellar/arm-none-eabi-gcc/10.3-2021.07/gcc/arm-none-eabi/include/c++/10.3.1/cmath **** 
 104:/opt/homebrew/Cellar/arm-none-eabi-gcc/10.3-2021.07/gcc/arm-none-eabi/include/c++/10.3.1/cmath **** #ifndef __CORRECT_ISO_CPP_MATH_H_PROTO
 105:/opt/homebrew/Cellar/arm-none-eabi-gcc/10.3-2021.07/gcc/arm-none-eabi/include/c++/10.3.1/cmath ****   inline _GLIBCXX_CONSTEXPR float
 106:/opt/homebrew/Cellar/arm-none-eabi-gcc/10.3-2021.07/gcc/arm-none-eabi/include/c++/10.3.1/cmath ****   asin(float __x)
 107:/opt/homebrew/Cellar/arm-none-eabi-gcc/10.3-2021.07/gcc/arm-none-eabi/include/c++/10.3.1/cmath ****   { return __builtin_asinf(__x); }
 108:/opt/homebrew/Cellar/arm-none-eabi-gcc/10.3-2021.07/gcc/arm-none-eabi/include/c++/10.3.1/cmath **** 
 109:/opt/homebrew/Cellar/arm-none-eabi-gcc/10.3-2021.07/gcc/arm-none-eabi/include/c++/10.3.1/cmath ****   inline _GLIBCXX_CONSTEXPR long double
 110:/opt/homebrew/Cellar/arm-none-eabi-gcc/10.3-2021.07/gcc/arm-none-eabi/include/c++/10.3.1/cmath ****   asin(long double __x)
 111:/opt/homebrew/Cellar/arm-none-eabi-gcc/10.3-2021.07/gcc/arm-none-eabi/include/c++/10.3.1/cmath ****   { return __builtin_asinl(__x); }
 112:/opt/homebrew/Cellar/arm-none-eabi-gcc/10.3-2021.07/gcc/arm-none-eabi/include/c++/10.3.1/cmath **** #endif
 113:/opt/homebrew/Cellar/arm-none-eabi-gcc/10.3-2021.07/gcc/arm-none-eabi/include/c++/10.3.1/cmath **** 
 114:/opt/homebrew/Cellar/arm-none-eabi-gcc/10.3-2021.07/gcc/arm-none-eabi/include/c++/10.3.1/cmath ****   template<typename _Tp>
 115:/opt/homebrew/Cellar/arm-none-eabi-gcc/10.3-2021.07/gcc/arm-none-eabi/include/c++/10.3.1/cmath ****     inline _GLIBCXX_CONSTEXPR
 116:/opt/homebrew/Cellar/arm-none-eabi-gcc/10.3-2021.07/gcc/arm-none-eabi/include/c++/10.3.1/cmath ****     typename __gnu_cxx::__enable_if<__is_integer<_Tp>::__value,
 117:/opt/homebrew/Cellar/arm-none-eabi-gcc/10.3-2021.07/gcc/arm-none-eabi/include/c++/10.3.1/cmath ****                                     double>::__type
 118:/opt/homebrew/Cellar/arm-none-eabi-gcc/10.3-2021.07/gcc/arm-none-eabi/include/c++/10.3.1/cmath ****     asin(_Tp __x)
 119:/opt/homebrew/Cellar/arm-none-eabi-gcc/10.3-2021.07/gcc/arm-none-eabi/include/c++/10.3.1/cmath ****     { return __builtin_asin(__x); }
 120:/opt/homebrew/Cellar/arm-none-eabi-gcc/10.3-2021.07/gcc/arm-none-eabi/include/c++/10.3.1/cmath **** 
 121:/opt/homebrew/Cellar/arm-none-eabi-gcc/10.3-2021.07/gcc/arm-none-eabi/include/c++/10.3.1/cmath ****   using ::atan;
 122:/opt/homebrew/Cellar/arm-none-eabi-gcc/10.3-2021.07/gcc/arm-none-eabi/include/c++/10.3.1/cmath **** 
 123:/opt/homebrew/Cellar/arm-none-eabi-gcc/10.3-2021.07/gcc/arm-none-eabi/include/c++/10.3.1/cmath **** #ifndef __CORRECT_ISO_CPP_MATH_H_PROTO
 124:/opt/homebrew/Cellar/arm-none-eabi-gcc/10.3-2021.07/gcc/arm-none-eabi/include/c++/10.3.1/cmath ****   inline _GLIBCXX_CONSTEXPR float
 125:/opt/homebrew/Cellar/arm-none-eabi-gcc/10.3-2021.07/gcc/arm-none-eabi/include/c++/10.3.1/cmath ****   atan(float __x)
 126:/opt/homebrew/Cellar/arm-none-eabi-gcc/10.3-2021.07/gcc/arm-none-eabi/include/c++/10.3.1/cmath ****   { return __builtin_atanf(__x); }
 127:/opt/homebrew/Cellar/arm-none-eabi-gcc/10.3-2021.07/gcc/arm-none-eabi/include/c++/10.3.1/cmath **** 
 128:/opt/homebrew/Cellar/arm-none-eabi-gcc/10.3-2021.07/gcc/arm-none-eabi/include/c++/10.3.1/cmath ****   inline _GLIBCXX_CONSTEXPR long double
 129:/opt/homebrew/Cellar/arm-none-eabi-gcc/10.3-2021.07/gcc/arm-none-eabi/include/c++/10.3.1/cmath ****   atan(long double __x)
 130:/opt/homebrew/Cellar/arm-none-eabi-gcc/10.3-2021.07/gcc/arm-none-eabi/include/c++/10.3.1/cmath ****   { return __builtin_atanl(__x); }
 131:/opt/homebrew/Cellar/arm-none-eabi-gcc/10.3-2021.07/gcc/arm-none-eabi/include/c++/10.3.1/cmath **** #endif
 132:/opt/homebrew/Cellar/arm-none-eabi-gcc/10.3-2021.07/gcc/arm-none-eabi/include/c++/10.3.1/cmath **** 
 133:/opt/homebrew/Cellar/arm-none-eabi-gcc/10.3-2021.07/gcc/arm-none-eabi/include/c++/10.3.1/cmath ****   template<typename _Tp>
 134:/opt/homebrew/Cellar/arm-none-eabi-gcc/10.3-2021.07/gcc/arm-none-eabi/include/c++/10.3.1/cmath ****     inline _GLIBCXX_CONSTEXPR
 135:/opt/homebrew/Cellar/arm-none-eabi-gcc/10.3-2021.07/gcc/arm-none-eabi/include/c++/10.3.1/cmath ****     typename __gnu_cxx::__enable_if<__is_integer<_Tp>::__value,
 136:/opt/homebrew/Cellar/arm-none-eabi-gcc/10.3-2021.07/gcc/arm-none-eabi/include/c++/10.3.1/cmath ****                                     double>::__type
 137:/opt/homebrew/Cellar/arm-none-eabi-gcc/10.3-2021.07/gcc/arm-none-eabi/include/c++/10.3.1/cmath ****     atan(_Tp __x)
 138:/opt/homebrew/Cellar/arm-none-eabi-gcc/10.3-2021.07/gcc/arm-none-eabi/include/c++/10.3.1/cmath ****     { return __builtin_atan(__x); }
 139:/opt/homebrew/Cellar/arm-none-eabi-gcc/10.3-2021.07/gcc/arm-none-eabi/include/c++/10.3.1/cmath **** 
 140:/opt/homebrew/Cellar/arm-none-eabi-gcc/10.3-2021.07/gcc/arm-none-eabi/include/c++/10.3.1/cmath ****   using ::atan2;
 141:/opt/homebrew/Cellar/arm-none-eabi-gcc/10.3-2021.07/gcc/arm-none-eabi/include/c++/10.3.1/cmath **** 
 142:/opt/homebrew/Cellar/arm-none-eabi-gcc/10.3-2021.07/gcc/arm-none-eabi/include/c++/10.3.1/cmath **** #ifndef __CORRECT_ISO_CPP_MATH_H_PROTO
 143:/opt/homebrew/Cellar/arm-none-eabi-gcc/10.3-2021.07/gcc/arm-none-eabi/include/c++/10.3.1/cmath ****   inline _GLIBCXX_CONSTEXPR float
 144:/opt/homebrew/Cellar/arm-none-eabi-gcc/10.3-2021.07/gcc/arm-none-eabi/include/c++/10.3.1/cmath ****   atan2(float __y, float __x)
 145:/opt/homebrew/Cellar/arm-none-eabi-gcc/10.3-2021.07/gcc/arm-none-eabi/include/c++/10.3.1/cmath ****   { return __builtin_atan2f(__y, __x); }
 146:/opt/homebrew/Cellar/arm-none-eabi-gcc/10.3-2021.07/gcc/arm-none-eabi/include/c++/10.3.1/cmath **** 
 147:/opt/homebrew/Cellar/arm-none-eabi-gcc/10.3-2021.07/gcc/arm-none-eabi/include/c++/10.3.1/cmath ****   inline _GLIBCXX_CONSTEXPR long double
 148:/opt/homebrew/Cellar/arm-none-eabi-gcc/10.3-2021.07/gcc/arm-none-eabi/include/c++/10.3.1/cmath ****   atan2(long double __y, long double __x)
 149:/opt/homebrew/Cellar/arm-none-eabi-gcc/10.3-2021.07/gcc/arm-none-eabi/include/c++/10.3.1/cmath ****   { return __builtin_atan2l(__y, __x); }
 150:/opt/homebrew/Cellar/arm-none-eabi-gcc/10.3-2021.07/gcc/arm-none-eabi/include/c++/10.3.1/cmath **** #endif
 151:/opt/homebrew/Cellar/arm-none-eabi-gcc/10.3-2021.07/gcc/arm-none-eabi/include/c++/10.3.1/cmath **** 
ARM GAS  /var/folders/hl/qgbwny5j0fd895c2c41bk3tw0000gp/T//ccmKeONX.s 			page 70


 152:/opt/homebrew/Cellar/arm-none-eabi-gcc/10.3-2021.07/gcc/arm-none-eabi/include/c++/10.3.1/cmath ****   template<typename _Tp, typename _Up>
 153:/opt/homebrew/Cellar/arm-none-eabi-gcc/10.3-2021.07/gcc/arm-none-eabi/include/c++/10.3.1/cmath ****     inline _GLIBCXX_CONSTEXPR
 154:/opt/homebrew/Cellar/arm-none-eabi-gcc/10.3-2021.07/gcc/arm-none-eabi/include/c++/10.3.1/cmath ****     typename __gnu_cxx::__promote_2<_Tp, _Up>::__type
 155:/opt/homebrew/Cellar/arm-none-eabi-gcc/10.3-2021.07/gcc/arm-none-eabi/include/c++/10.3.1/cmath ****     atan2(_Tp __y, _Up __x)
 156:/opt/homebrew/Cellar/arm-none-eabi-gcc/10.3-2021.07/gcc/arm-none-eabi/include/c++/10.3.1/cmath ****     {
 157:/opt/homebrew/Cellar/arm-none-eabi-gcc/10.3-2021.07/gcc/arm-none-eabi/include/c++/10.3.1/cmath ****       typedef typename __gnu_cxx::__promote_2<_Tp, _Up>::__type __type;
 158:/opt/homebrew/Cellar/arm-none-eabi-gcc/10.3-2021.07/gcc/arm-none-eabi/include/c++/10.3.1/cmath ****       return atan2(__type(__y), __type(__x));
 159:/opt/homebrew/Cellar/arm-none-eabi-gcc/10.3-2021.07/gcc/arm-none-eabi/include/c++/10.3.1/cmath ****     }
 160:/opt/homebrew/Cellar/arm-none-eabi-gcc/10.3-2021.07/gcc/arm-none-eabi/include/c++/10.3.1/cmath **** 
 161:/opt/homebrew/Cellar/arm-none-eabi-gcc/10.3-2021.07/gcc/arm-none-eabi/include/c++/10.3.1/cmath ****   using ::ceil;
 162:/opt/homebrew/Cellar/arm-none-eabi-gcc/10.3-2021.07/gcc/arm-none-eabi/include/c++/10.3.1/cmath **** 
 163:/opt/homebrew/Cellar/arm-none-eabi-gcc/10.3-2021.07/gcc/arm-none-eabi/include/c++/10.3.1/cmath **** #ifndef __CORRECT_ISO_CPP_MATH_H_PROTO
 164:/opt/homebrew/Cellar/arm-none-eabi-gcc/10.3-2021.07/gcc/arm-none-eabi/include/c++/10.3.1/cmath ****   inline _GLIBCXX_CONSTEXPR float
 165:/opt/homebrew/Cellar/arm-none-eabi-gcc/10.3-2021.07/gcc/arm-none-eabi/include/c++/10.3.1/cmath ****   ceil(float __x)
 166:/opt/homebrew/Cellar/arm-none-eabi-gcc/10.3-2021.07/gcc/arm-none-eabi/include/c++/10.3.1/cmath ****   { return __builtin_ceilf(__x); }
 167:/opt/homebrew/Cellar/arm-none-eabi-gcc/10.3-2021.07/gcc/arm-none-eabi/include/c++/10.3.1/cmath **** 
 168:/opt/homebrew/Cellar/arm-none-eabi-gcc/10.3-2021.07/gcc/arm-none-eabi/include/c++/10.3.1/cmath ****   inline _GLIBCXX_CONSTEXPR long double
 169:/opt/homebrew/Cellar/arm-none-eabi-gcc/10.3-2021.07/gcc/arm-none-eabi/include/c++/10.3.1/cmath ****   ceil(long double __x)
 170:/opt/homebrew/Cellar/arm-none-eabi-gcc/10.3-2021.07/gcc/arm-none-eabi/include/c++/10.3.1/cmath ****   { return __builtin_ceill(__x); }
 171:/opt/homebrew/Cellar/arm-none-eabi-gcc/10.3-2021.07/gcc/arm-none-eabi/include/c++/10.3.1/cmath **** #endif
 172:/opt/homebrew/Cellar/arm-none-eabi-gcc/10.3-2021.07/gcc/arm-none-eabi/include/c++/10.3.1/cmath **** 
 173:/opt/homebrew/Cellar/arm-none-eabi-gcc/10.3-2021.07/gcc/arm-none-eabi/include/c++/10.3.1/cmath ****   template<typename _Tp>
 174:/opt/homebrew/Cellar/arm-none-eabi-gcc/10.3-2021.07/gcc/arm-none-eabi/include/c++/10.3.1/cmath ****     inline _GLIBCXX_CONSTEXPR
 175:/opt/homebrew/Cellar/arm-none-eabi-gcc/10.3-2021.07/gcc/arm-none-eabi/include/c++/10.3.1/cmath ****     typename __gnu_cxx::__enable_if<__is_integer<_Tp>::__value, 
 176:/opt/homebrew/Cellar/arm-none-eabi-gcc/10.3-2021.07/gcc/arm-none-eabi/include/c++/10.3.1/cmath ****                                     double>::__type
 177:/opt/homebrew/Cellar/arm-none-eabi-gcc/10.3-2021.07/gcc/arm-none-eabi/include/c++/10.3.1/cmath ****     ceil(_Tp __x)
 178:/opt/homebrew/Cellar/arm-none-eabi-gcc/10.3-2021.07/gcc/arm-none-eabi/include/c++/10.3.1/cmath ****     { return __builtin_ceil(__x); }
 179:/opt/homebrew/Cellar/arm-none-eabi-gcc/10.3-2021.07/gcc/arm-none-eabi/include/c++/10.3.1/cmath **** 
 180:/opt/homebrew/Cellar/arm-none-eabi-gcc/10.3-2021.07/gcc/arm-none-eabi/include/c++/10.3.1/cmath ****   using ::cos;
 181:/opt/homebrew/Cellar/arm-none-eabi-gcc/10.3-2021.07/gcc/arm-none-eabi/include/c++/10.3.1/cmath **** 
 182:/opt/homebrew/Cellar/arm-none-eabi-gcc/10.3-2021.07/gcc/arm-none-eabi/include/c++/10.3.1/cmath **** #ifndef __CORRECT_ISO_CPP_MATH_H_PROTO
 183:/opt/homebrew/Cellar/arm-none-eabi-gcc/10.3-2021.07/gcc/arm-none-eabi/include/c++/10.3.1/cmath ****   inline _GLIBCXX_CONSTEXPR float
 184:/opt/homebrew/Cellar/arm-none-eabi-gcc/10.3-2021.07/gcc/arm-none-eabi/include/c++/10.3.1/cmath ****   cos(float __x)
 185:/opt/homebrew/Cellar/arm-none-eabi-gcc/10.3-2021.07/gcc/arm-none-eabi/include/c++/10.3.1/cmath ****   { return __builtin_cosf(__x); }
 2005              		.loc 13 185 26 view .LVU429
 2006 0050 B0EE680A 		vmov.f32	s0, s17
 2007 0054 FFF7FEFF 		bl	cosf
 2008              	.LVL151:
 2009              		.loc 13 185 26 view .LVU430
 2010              	.LBE748:
 2011              	.LBE747:
 315:../../libDaisy//src/hid/disp/display.h ****         start_y = -sin(start_angle_rad) * radius;
 2012              		.loc 9 315 17 view .LVU431
 2013 0058 07EE907A 		vmov	s15, r7	@ int
 313:../../libDaisy//src/hid/disp/display.h **** 
 2014              		.loc 9 313 25 view .LVU432
 2015 005c B7EECAAB 		vcvt.f32.f64	s20, d10
 2016              	.LVL152:
 2017              	.LBB751:
 2018              	.LBI747:
 184:/opt/homebrew/Cellar/arm-none-eabi-gcc/10.3-2021.07/gcc/arm-none-eabi/include/c++/10.3.1/cmath ****   { return __builtin_cosf(__x); }
 2019              		.loc 13 184 3 is_stmt 1 view .LVU433
 2020              	.LBB749:
 2021              		.loc 13 185 5 view .LVU434
 2022              		.loc 13 185 5 is_stmt 0 view .LVU435
 2023              	.LBE749:
 2024              	.LBE751:
ARM GAS  /var/folders/hl/qgbwny5j0fd895c2c41bk3tw0000gp/T//ccmKeONX.s 			page 71


 315:../../libDaisy//src/hid/disp/display.h ****         start_y = -sin(start_angle_rad) * radius;
 2025              		.loc 9 315 17 view .LVU436
 2026 0060 F8EE679A 		vcvt.f32.u32	s19, s15
 2027              	.LBB752:
 2028              	.LBB750:
 2029              		.loc 13 185 26 view .LVU437
 2030 0064 B0EE408A 		vmov.f32	s16, s0
 2031              	.LBE750:
 2032              	.LBE752:
 2033              	.LBB753:
 2034              	.LBB754:
 186:/opt/homebrew/Cellar/arm-none-eabi-gcc/10.3-2021.07/gcc/arm-none-eabi/include/c++/10.3.1/cmath **** 
 187:/opt/homebrew/Cellar/arm-none-eabi-gcc/10.3-2021.07/gcc/arm-none-eabi/include/c++/10.3.1/cmath ****   inline _GLIBCXX_CONSTEXPR long double
 188:/opt/homebrew/Cellar/arm-none-eabi-gcc/10.3-2021.07/gcc/arm-none-eabi/include/c++/10.3.1/cmath ****   cos(long double __x)
 189:/opt/homebrew/Cellar/arm-none-eabi-gcc/10.3-2021.07/gcc/arm-none-eabi/include/c++/10.3.1/cmath ****   { return __builtin_cosl(__x); }
 190:/opt/homebrew/Cellar/arm-none-eabi-gcc/10.3-2021.07/gcc/arm-none-eabi/include/c++/10.3.1/cmath **** #endif
 191:/opt/homebrew/Cellar/arm-none-eabi-gcc/10.3-2021.07/gcc/arm-none-eabi/include/c++/10.3.1/cmath **** 
 192:/opt/homebrew/Cellar/arm-none-eabi-gcc/10.3-2021.07/gcc/arm-none-eabi/include/c++/10.3.1/cmath ****   template<typename _Tp>
 193:/opt/homebrew/Cellar/arm-none-eabi-gcc/10.3-2021.07/gcc/arm-none-eabi/include/c++/10.3.1/cmath ****     inline _GLIBCXX_CONSTEXPR
 194:/opt/homebrew/Cellar/arm-none-eabi-gcc/10.3-2021.07/gcc/arm-none-eabi/include/c++/10.3.1/cmath ****     typename __gnu_cxx::__enable_if<__is_integer<_Tp>::__value,
 195:/opt/homebrew/Cellar/arm-none-eabi-gcc/10.3-2021.07/gcc/arm-none-eabi/include/c++/10.3.1/cmath ****                                     double>::__type
 196:/opt/homebrew/Cellar/arm-none-eabi-gcc/10.3-2021.07/gcc/arm-none-eabi/include/c++/10.3.1/cmath ****     cos(_Tp __x)
 197:/opt/homebrew/Cellar/arm-none-eabi-gcc/10.3-2021.07/gcc/arm-none-eabi/include/c++/10.3.1/cmath ****     { return __builtin_cos(__x); }
 198:/opt/homebrew/Cellar/arm-none-eabi-gcc/10.3-2021.07/gcc/arm-none-eabi/include/c++/10.3.1/cmath **** 
 199:/opt/homebrew/Cellar/arm-none-eabi-gcc/10.3-2021.07/gcc/arm-none-eabi/include/c++/10.3.1/cmath ****   using ::cosh;
 200:/opt/homebrew/Cellar/arm-none-eabi-gcc/10.3-2021.07/gcc/arm-none-eabi/include/c++/10.3.1/cmath **** 
 201:/opt/homebrew/Cellar/arm-none-eabi-gcc/10.3-2021.07/gcc/arm-none-eabi/include/c++/10.3.1/cmath **** #ifndef __CORRECT_ISO_CPP_MATH_H_PROTO
 202:/opt/homebrew/Cellar/arm-none-eabi-gcc/10.3-2021.07/gcc/arm-none-eabi/include/c++/10.3.1/cmath ****   inline _GLIBCXX_CONSTEXPR float
 203:/opt/homebrew/Cellar/arm-none-eabi-gcc/10.3-2021.07/gcc/arm-none-eabi/include/c++/10.3.1/cmath ****   cosh(float __x)
 204:/opt/homebrew/Cellar/arm-none-eabi-gcc/10.3-2021.07/gcc/arm-none-eabi/include/c++/10.3.1/cmath ****   { return __builtin_coshf(__x); }
 205:/opt/homebrew/Cellar/arm-none-eabi-gcc/10.3-2021.07/gcc/arm-none-eabi/include/c++/10.3.1/cmath **** 
 206:/opt/homebrew/Cellar/arm-none-eabi-gcc/10.3-2021.07/gcc/arm-none-eabi/include/c++/10.3.1/cmath ****   inline _GLIBCXX_CONSTEXPR long double
 207:/opt/homebrew/Cellar/arm-none-eabi-gcc/10.3-2021.07/gcc/arm-none-eabi/include/c++/10.3.1/cmath ****   cosh(long double __x)
 208:/opt/homebrew/Cellar/arm-none-eabi-gcc/10.3-2021.07/gcc/arm-none-eabi/include/c++/10.3.1/cmath ****   { return __builtin_coshl(__x); }
 209:/opt/homebrew/Cellar/arm-none-eabi-gcc/10.3-2021.07/gcc/arm-none-eabi/include/c++/10.3.1/cmath **** #endif
 210:/opt/homebrew/Cellar/arm-none-eabi-gcc/10.3-2021.07/gcc/arm-none-eabi/include/c++/10.3.1/cmath **** 
 211:/opt/homebrew/Cellar/arm-none-eabi-gcc/10.3-2021.07/gcc/arm-none-eabi/include/c++/10.3.1/cmath ****   template<typename _Tp>
 212:/opt/homebrew/Cellar/arm-none-eabi-gcc/10.3-2021.07/gcc/arm-none-eabi/include/c++/10.3.1/cmath ****     inline _GLIBCXX_CONSTEXPR
 213:/opt/homebrew/Cellar/arm-none-eabi-gcc/10.3-2021.07/gcc/arm-none-eabi/include/c++/10.3.1/cmath ****     typename __gnu_cxx::__enable_if<__is_integer<_Tp>::__value,
 214:/opt/homebrew/Cellar/arm-none-eabi-gcc/10.3-2021.07/gcc/arm-none-eabi/include/c++/10.3.1/cmath ****                                     double>::__type
 215:/opt/homebrew/Cellar/arm-none-eabi-gcc/10.3-2021.07/gcc/arm-none-eabi/include/c++/10.3.1/cmath ****     cosh(_Tp __x)
 216:/opt/homebrew/Cellar/arm-none-eabi-gcc/10.3-2021.07/gcc/arm-none-eabi/include/c++/10.3.1/cmath ****     { return __builtin_cosh(__x); }
 217:/opt/homebrew/Cellar/arm-none-eabi-gcc/10.3-2021.07/gcc/arm-none-eabi/include/c++/10.3.1/cmath **** 
 218:/opt/homebrew/Cellar/arm-none-eabi-gcc/10.3-2021.07/gcc/arm-none-eabi/include/c++/10.3.1/cmath ****   using ::exp;
 219:/opt/homebrew/Cellar/arm-none-eabi-gcc/10.3-2021.07/gcc/arm-none-eabi/include/c++/10.3.1/cmath **** 
 220:/opt/homebrew/Cellar/arm-none-eabi-gcc/10.3-2021.07/gcc/arm-none-eabi/include/c++/10.3.1/cmath **** #ifndef __CORRECT_ISO_CPP_MATH_H_PROTO
 221:/opt/homebrew/Cellar/arm-none-eabi-gcc/10.3-2021.07/gcc/arm-none-eabi/include/c++/10.3.1/cmath ****   inline _GLIBCXX_CONSTEXPR float
 222:/opt/homebrew/Cellar/arm-none-eabi-gcc/10.3-2021.07/gcc/arm-none-eabi/include/c++/10.3.1/cmath ****   exp(float __x)
 223:/opt/homebrew/Cellar/arm-none-eabi-gcc/10.3-2021.07/gcc/arm-none-eabi/include/c++/10.3.1/cmath ****   { return __builtin_expf(__x); }
 224:/opt/homebrew/Cellar/arm-none-eabi-gcc/10.3-2021.07/gcc/arm-none-eabi/include/c++/10.3.1/cmath **** 
 225:/opt/homebrew/Cellar/arm-none-eabi-gcc/10.3-2021.07/gcc/arm-none-eabi/include/c++/10.3.1/cmath ****   inline _GLIBCXX_CONSTEXPR long double
 226:/opt/homebrew/Cellar/arm-none-eabi-gcc/10.3-2021.07/gcc/arm-none-eabi/include/c++/10.3.1/cmath ****   exp(long double __x)
 227:/opt/homebrew/Cellar/arm-none-eabi-gcc/10.3-2021.07/gcc/arm-none-eabi/include/c++/10.3.1/cmath ****   { return __builtin_expl(__x); }
 228:/opt/homebrew/Cellar/arm-none-eabi-gcc/10.3-2021.07/gcc/arm-none-eabi/include/c++/10.3.1/cmath **** #endif
 229:/opt/homebrew/Cellar/arm-none-eabi-gcc/10.3-2021.07/gcc/arm-none-eabi/include/c++/10.3.1/cmath **** 
 230:/opt/homebrew/Cellar/arm-none-eabi-gcc/10.3-2021.07/gcc/arm-none-eabi/include/c++/10.3.1/cmath ****   template<typename _Tp>
 231:/opt/homebrew/Cellar/arm-none-eabi-gcc/10.3-2021.07/gcc/arm-none-eabi/include/c++/10.3.1/cmath ****     inline _GLIBCXX_CONSTEXPR
ARM GAS  /var/folders/hl/qgbwny5j0fd895c2c41bk3tw0000gp/T//ccmKeONX.s 			page 72


 232:/opt/homebrew/Cellar/arm-none-eabi-gcc/10.3-2021.07/gcc/arm-none-eabi/include/c++/10.3.1/cmath ****     typename __gnu_cxx::__enable_if<__is_integer<_Tp>::__value,
 233:/opt/homebrew/Cellar/arm-none-eabi-gcc/10.3-2021.07/gcc/arm-none-eabi/include/c++/10.3.1/cmath ****                                     double>::__type
 234:/opt/homebrew/Cellar/arm-none-eabi-gcc/10.3-2021.07/gcc/arm-none-eabi/include/c++/10.3.1/cmath ****     exp(_Tp __x)
 235:/opt/homebrew/Cellar/arm-none-eabi-gcc/10.3-2021.07/gcc/arm-none-eabi/include/c++/10.3.1/cmath ****     { return __builtin_exp(__x); }
 236:/opt/homebrew/Cellar/arm-none-eabi-gcc/10.3-2021.07/gcc/arm-none-eabi/include/c++/10.3.1/cmath **** 
 237:/opt/homebrew/Cellar/arm-none-eabi-gcc/10.3-2021.07/gcc/arm-none-eabi/include/c++/10.3.1/cmath ****   using ::fabs;
 238:/opt/homebrew/Cellar/arm-none-eabi-gcc/10.3-2021.07/gcc/arm-none-eabi/include/c++/10.3.1/cmath **** 
 239:/opt/homebrew/Cellar/arm-none-eabi-gcc/10.3-2021.07/gcc/arm-none-eabi/include/c++/10.3.1/cmath **** #ifndef __CORRECT_ISO_CPP_MATH_H_PROTO
 240:/opt/homebrew/Cellar/arm-none-eabi-gcc/10.3-2021.07/gcc/arm-none-eabi/include/c++/10.3.1/cmath ****   inline _GLIBCXX_CONSTEXPR float
 241:/opt/homebrew/Cellar/arm-none-eabi-gcc/10.3-2021.07/gcc/arm-none-eabi/include/c++/10.3.1/cmath ****   fabs(float __x)
 242:/opt/homebrew/Cellar/arm-none-eabi-gcc/10.3-2021.07/gcc/arm-none-eabi/include/c++/10.3.1/cmath ****   { return __builtin_fabsf(__x); }
 243:/opt/homebrew/Cellar/arm-none-eabi-gcc/10.3-2021.07/gcc/arm-none-eabi/include/c++/10.3.1/cmath **** 
 244:/opt/homebrew/Cellar/arm-none-eabi-gcc/10.3-2021.07/gcc/arm-none-eabi/include/c++/10.3.1/cmath ****   inline _GLIBCXX_CONSTEXPR long double
