ARM GAS  /var/folders/hl/qgbwny5j0fd895c2c41bk3tw0000gp/T//cctD4vl2.s 			page 1


   1              		.cpu cortex-m7
   2              		.eabi_attribute 28, 1
   3              		.eabi_attribute 20, 1
   4              		.eabi_attribute 21, 1
   5              		.eabi_attribute 23, 3
   6              		.eabi_attribute 24, 1
   7              		.eabi_attribute 25, 1
   8              		.eabi_attribute 26, 1
   9              		.eabi_attribute 30, 2
  10              		.eabi_attribute 34, 1
  11              		.eabi_attribute 18, 4
  12              		.file	"test.cpp"
  13              		.text
  14              	.Ltext0:
  15              		.cfi_sections	.debug_frame
  16              		.section	.text._ZN5daisy9DaisySeedD2Ev,"axG",%progbits,_ZN5daisy9DaisySeedD5Ev,comdat
  17              		.align	1
  18              		.p2align 2,,3
  19              		.weak	_ZN5daisy9DaisySeedD2Ev
  20              		.arch armv7e-m
  21              		.syntax unified
  22              		.thumb
  23              		.thumb_func
  24              		.fpu fpv5-d16
  26              	_ZN5daisy9DaisySeedD2Ev:
  27              	.LVL0:
  28              	.LFB2529:
  29              		.file 1 "../../libDaisy//src/daisy_seed.h"
   1:../../libDaisy//src/daisy_seed.h **** #pragma once
   2:../../libDaisy//src/daisy_seed.h **** #ifndef DSY_SEED_H
   3:../../libDaisy//src/daisy_seed.h **** #define DSY_SEED_H
   4:../../libDaisy//src/daisy_seed.h **** 
   5:../../libDaisy//src/daisy_seed.h **** #include "daisy.h"
   6:../../libDaisy//src/daisy_seed.h **** 
   7:../../libDaisy//src/daisy_seed.h **** //Uncomment this out if you're still using the rev2 hardware
   8:../../libDaisy//src/daisy_seed.h **** //#define SEED_REV2
   9:../../libDaisy//src/daisy_seed.h **** 
  10:../../libDaisy//src/daisy_seed.h **** namespace daisy
  11:../../libDaisy//src/daisy_seed.h **** {
  12:../../libDaisy//src/daisy_seed.h **** /**
  13:../../libDaisy//src/daisy_seed.h ****    @brief This is the higher-level interface for the Daisy board. \n 
  14:../../libDaisy//src/daisy_seed.h ****     All basic peripheral configuration/initialization is setup here. \n
  15:../../libDaisy//src/daisy_seed.h **** 
  16:../../libDaisy//src/daisy_seed.h ****    @ingroup boards
  17:../../libDaisy//src/daisy_seed.h **** */
  18:../../libDaisy//src/daisy_seed.h **** class DaisySeed
  19:../../libDaisy//src/daisy_seed.h **** {
  20:../../libDaisy//src/daisy_seed.h ****   public:
  21:../../libDaisy//src/daisy_seed.h ****     DaisySeed() {}
  22:../../libDaisy//src/daisy_seed.h ****     ~DaisySeed() {}
  30              		.loc 1 22 5 view -0
  31              		.cfi_startproc
  32              		@ args = 0, pretend = 0, frame = 0
  33              		@ frame_needed = 0, uses_anonymous_args = 0
  34              		@ link register save eliminated.
  35              	.LBB231:
  36              	.LBI231:
ARM GAS  /var/folders/hl/qgbwny5j0fd895c2c41bk3tw0000gp/T//cctD4vl2.s 			page 2


  37              		.file 2 "../../libDaisy//src/sys/system.h"
   1:../../libDaisy//src/sys/system.h **** #ifndef DSY_SYSTEM_H
   2:../../libDaisy//src/sys/system.h **** #define DSY_SYSTEM_H
   3:../../libDaisy//src/sys/system.h **** 
   4:../../libDaisy//src/sys/system.h **** #ifndef UNIT_TEST // for unit tests, a dummy implementation is provided below
   5:../../libDaisy//src/sys/system.h **** 
   6:../../libDaisy//src/sys/system.h **** #include <cstdint>
   7:../../libDaisy//src/sys/system.h **** #include "per/tim.h"
   8:../../libDaisy//src/sys/system.h **** 
   9:../../libDaisy//src/sys/system.h **** namespace daisy
  10:../../libDaisy//src/sys/system.h **** {
  11:../../libDaisy//src/sys/system.h **** /** A handle for interacting with the Core System. 
  12:../../libDaisy//src/sys/system.h ****  ** This includes the Clock tree, MPU, global DMA initialization,
  13:../../libDaisy//src/sys/system.h ****  ** cache handling, and any other necessary global initiailzation
  14:../../libDaisy//src/sys/system.h ****  **
  15:../../libDaisy//src/sys/system.h ****  ** @author shensley
  16:../../libDaisy//src/sys/system.h ****  ** @ingroup system
  17:../../libDaisy//src/sys/system.h ****  */
  18:../../libDaisy//src/sys/system.h **** class System
  19:../../libDaisy//src/sys/system.h **** {
  20:../../libDaisy//src/sys/system.h ****   public:
  21:../../libDaisy//src/sys/system.h ****     /** Contains settings for initializing the System */
  22:../../libDaisy//src/sys/system.h ****     struct Config
  23:../../libDaisy//src/sys/system.h ****     {
  24:../../libDaisy//src/sys/system.h ****         /** Specifies the system clock frequency that feeds APB/AHB clocks, etc. */
  25:../../libDaisy//src/sys/system.h ****         enum class SysClkFreq
  26:../../libDaisy//src/sys/system.h ****         {
  27:../../libDaisy//src/sys/system.h ****             FREQ_400MHZ,
  28:../../libDaisy//src/sys/system.h ****             FREQ_480MHZ,
  29:../../libDaisy//src/sys/system.h ****         };
  30:../../libDaisy//src/sys/system.h **** 
  31:../../libDaisy//src/sys/system.h ****         /** Method to call on the struct to set to defaults
  32:../../libDaisy//src/sys/system.h ****          ** CPU Freq set to 400MHz
  33:../../libDaisy//src/sys/system.h ****          ** Cache Enabled 
  34:../../libDaisy//src/sys/system.h ****          ** */
  35:../../libDaisy//src/sys/system.h ****         void Defaults()
  36:../../libDaisy//src/sys/system.h ****         {
  37:../../libDaisy//src/sys/system.h ****             cpu_freq    = SysClkFreq::FREQ_400MHZ;
  38:../../libDaisy//src/sys/system.h ****             use_dcache  = true;
  39:../../libDaisy//src/sys/system.h ****             use_icache  = true;
  40:../../libDaisy//src/sys/system.h ****             skip_clocks = false;
  41:../../libDaisy//src/sys/system.h ****         }
  42:../../libDaisy//src/sys/system.h **** 
  43:../../libDaisy//src/sys/system.h ****         /** Method to call on the struct to set to boost mode:
  44:../../libDaisy//src/sys/system.h ****          ** CPU Freq set to 480MHz
  45:../../libDaisy//src/sys/system.h ****          ** Cache Enabled 
  46:../../libDaisy//src/sys/system.h ****          ** */
  47:../../libDaisy//src/sys/system.h ****         void Boost()
  48:../../libDaisy//src/sys/system.h ****         {
  49:../../libDaisy//src/sys/system.h ****             cpu_freq    = SysClkFreq::FREQ_480MHZ;
  50:../../libDaisy//src/sys/system.h ****             use_dcache  = true;
  51:../../libDaisy//src/sys/system.h ****             use_icache  = true;
  52:../../libDaisy//src/sys/system.h ****             skip_clocks = false;
  53:../../libDaisy//src/sys/system.h ****         }
  54:../../libDaisy//src/sys/system.h **** 
  55:../../libDaisy//src/sys/system.h ****         SysClkFreq cpu_freq;
  56:../../libDaisy//src/sys/system.h ****         bool       use_dcache;
ARM GAS  /var/folders/hl/qgbwny5j0fd895c2c41bk3tw0000gp/T//cctD4vl2.s 			page 3


  57:../../libDaisy//src/sys/system.h ****         bool       use_icache;
  58:../../libDaisy//src/sys/system.h ****         bool       skip_clocks;
  59:../../libDaisy//src/sys/system.h ****     };
  60:../../libDaisy//src/sys/system.h **** 
  61:../../libDaisy//src/sys/system.h ****     /** Describes the different regions of memory available to the Daisy
  62:../../libDaisy//src/sys/system.h ****      * 
  63:../../libDaisy//src/sys/system.h ****      */
  64:../../libDaisy//src/sys/system.h ****     enum MemoryRegion
  65:../../libDaisy//src/sys/system.h ****     {
  66:../../libDaisy//src/sys/system.h ****         INTERNAL_FLASH = 0,
  67:../../libDaisy//src/sys/system.h ****         ITCMRAM,
  68:../../libDaisy//src/sys/system.h ****         DTCMRAM,
  69:../../libDaisy//src/sys/system.h ****         SRAM_D1,
  70:../../libDaisy//src/sys/system.h ****         SRAM_D2,
  71:../../libDaisy//src/sys/system.h ****         SRAM_D3,
  72:../../libDaisy//src/sys/system.h ****         SDRAM,
  73:../../libDaisy//src/sys/system.h ****         QSPI,
  74:../../libDaisy//src/sys/system.h ****         INVALID_ADDRESS,
  75:../../libDaisy//src/sys/system.h ****     };
  76:../../libDaisy//src/sys/system.h **** 
  77:../../libDaisy//src/sys/system.h ****     System() {}
  78:../../libDaisy//src/sys/system.h ****     ~System() {}
  38              		.loc 2 78 5 view .LVU1
  39              		.loc 2 78 5 is_stmt 0 view .LVU2
  40              	.LBE231:
  41              	.LBB232:
  42              	.LBI232:
  43              		.file 3 "../../libDaisy//src/hid/usb.h"
   1:../../libDaisy//src/hid/usb.h **** #pragma once
   2:../../libDaisy//src/hid/usb.h **** #ifndef DSY_HID_USB_H
   3:../../libDaisy//src/hid/usb.h **** #define DSY_HID_USB_H
   4:../../libDaisy//src/hid/usb.h **** #include <stdint.h>
   5:../../libDaisy//src/hid/usb.h **** #include <stdlib.h>
   6:../../libDaisy//src/hid/usb.h **** 
   7:../../libDaisy//src/hid/usb.h **** namespace daisy
   8:../../libDaisy//src/hid/usb.h **** /** @addtogroup human_interface
   9:../../libDaisy//src/hid/usb.h ****     @{
  10:../../libDaisy//src/hid/usb.h **** */
  11:../../libDaisy//src/hid/usb.h **** 
  12:../../libDaisy//src/hid/usb.h **** {
  13:../../libDaisy//src/hid/usb.h **** /** 
  14:../../libDaisy//src/hid/usb.h ****     @brief Interface for initializing and using the USB Peripherals on the daisy
  15:../../libDaisy//src/hid/usb.h ****     @author Stephen Hensley
  16:../../libDaisy//src/hid/usb.h ****     @date December 2019
  17:../../libDaisy//src/hid/usb.h **** */
  18:../../libDaisy//src/hid/usb.h **** class UsbHandle
  19:../../libDaisy//src/hid/usb.h **** {
  20:../../libDaisy//src/hid/usb.h ****   public:
  21:../../libDaisy//src/hid/usb.h ****     /** Return values for USBHandle Functions */
  22:../../libDaisy//src/hid/usb.h ****     enum class Result
  23:../../libDaisy//src/hid/usb.h ****     {
  24:../../libDaisy//src/hid/usb.h ****         OK,
  25:../../libDaisy//src/hid/usb.h ****         ERR,
  26:../../libDaisy//src/hid/usb.h ****     };
  27:../../libDaisy//src/hid/usb.h **** 
  28:../../libDaisy//src/hid/usb.h ****     /** Specified which of the two USB Peripherals to initialize. */
  29:../../libDaisy//src/hid/usb.h ****     enum UsbPeriph
ARM GAS  /var/folders/hl/qgbwny5j0fd895c2c41bk3tw0000gp/T//cctD4vl2.s 			page 4


  30:../../libDaisy//src/hid/usb.h ****     {
  31:../../libDaisy//src/hid/usb.h ****         FS_INTERNAL, /**< Internal pin */
  32:../../libDaisy//src/hid/usb.h ****         FS_EXTERNAL, /**< FS External D+ pin is Pin 38 (GPIO32). FS External D- pin is Pin 37 (GPIO
  33:../../libDaisy//src/hid/usb.h ****         FS_BOTH,     /**< Both */
  34:../../libDaisy//src/hid/usb.h ****     };
  35:../../libDaisy//src/hid/usb.h **** 
  36:../../libDaisy//src/hid/usb.h **** 
  37:../../libDaisy//src/hid/usb.h ****     /** Function called upon reception of a buffer */
  38:../../libDaisy//src/hid/usb.h ****     typedef void (*ReceiveCallback)(uint8_t* buff, uint32_t* len);
  39:../../libDaisy//src/hid/usb.h **** 
  40:../../libDaisy//src/hid/usb.h ****     UsbHandle() {}
  41:../../libDaisy//src/hid/usb.h **** 
  42:../../libDaisy//src/hid/usb.h ****     ~UsbHandle() {}
  44              		.loc 3 42 5 is_stmt 1 view .LVU3
  45              		.loc 3 42 5 is_stmt 0 view .LVU4
  46              	.LBE232:
  47              	.LBB233:
  48              	.LBI233:
  49              		.file 4 "../../libDaisy//src/per/adc.h"
   1:../../libDaisy//src/per/adc.h **** #pragma once
   2:../../libDaisy//src/per/adc.h **** #ifndef DSY_ADC_H
   3:../../libDaisy//src/per/adc.h **** #define DSY_ADC_H /**< Macro */
   4:../../libDaisy//src/per/adc.h **** #include <stdint.h>
   5:../../libDaisy//src/per/adc.h **** #include <stdlib.h>
   6:../../libDaisy//src/per/adc.h **** #include "daisy_core.h"
   7:../../libDaisy//src/per/adc.h **** #include "per/gpio.h"
   8:../../libDaisy//src/per/adc.h **** 
   9:../../libDaisy//src/per/adc.h **** #define DSY_ADC_MAX_CHANNELS 16 /**< Maximum number of ADC channels */
  10:../../libDaisy//src/per/adc.h **** 
  11:../../libDaisy//src/per/adc.h **** namespace daisy
  12:../../libDaisy//src/per/adc.h **** {
  13:../../libDaisy//src/per/adc.h **** /** @addtogroup per_analog
  14:../../libDaisy//src/per/adc.h ****     @{
  15:../../libDaisy//src/per/adc.h **** */
  16:../../libDaisy//src/per/adc.h **** 
  17:../../libDaisy//src/per/adc.h **** /* While there may not be many configuration options here,
  18:../../libDaisy//src/per/adc.h **** using a struct like this allows us to add more configuration
  19:../../libDaisy//src/per/adc.h **** later without breaking existing functionality.
  20:../../libDaisy//src/per/adc.h **** */
  21:../../libDaisy//src/per/adc.h **** 
  22:../../libDaisy//src/per/adc.h **** /** @brief   Configuration Structure for an ADC Channel 
  23:../../libDaisy//src/per/adc.h ****  *  @details This can be used to configure a a single input, 
  24:../../libDaisy//src/per/adc.h ****  *           or a multiplexed input, allowing up to 8 inputs on 
  25:../../libDaisy//src/per/adc.h ****  *           one channel.
  26:../../libDaisy//src/per/adc.h ****  *  @note    Sharing data lines to multiple muxes _is_ possible, but
  27:../../libDaisy//src/per/adc.h ****  *           each channel sharing data lines must be set to the maximum
  28:../../libDaisy//src/per/adc.h ****  *           number of channels, even if some multiplexers have fewer
  29:../../libDaisy//src/per/adc.h ****  *           inputs connected.
  30:../../libDaisy//src/per/adc.h **** */
  31:../../libDaisy//src/per/adc.h **** struct AdcChannelConfig
  32:../../libDaisy//src/per/adc.h **** {
  33:../../libDaisy//src/per/adc.h ****     /** Which pin to use for multiplexing */
  34:../../libDaisy//src/per/adc.h ****     enum MuxPin
  35:../../libDaisy//src/per/adc.h ****     {
  36:../../libDaisy//src/per/adc.h ****         MUX_SEL_0,    /**< & */
  37:../../libDaisy//src/per/adc.h ****         MUX_SEL_1,    /**< & */
  38:../../libDaisy//src/per/adc.h ****         MUX_SEL_2,    /**< & */
ARM GAS  /var/folders/hl/qgbwny5j0fd895c2c41bk3tw0000gp/T//cctD4vl2.s 			page 5


  39:../../libDaisy//src/per/adc.h ****         MUX_SEL_LAST, /**< & */
  40:../../libDaisy//src/per/adc.h ****     };
  41:../../libDaisy//src/per/adc.h **** 
  42:../../libDaisy//src/per/adc.h ****     /** Initializes a single ADC pin as an ADC. 
  43:../../libDaisy//src/per/adc.h ****     \param pin Pin to init.
  44:../../libDaisy//src/per/adc.h ****      */
  45:../../libDaisy//src/per/adc.h ****     void InitSingle(dsy_gpio_pin pin);
  46:../../libDaisy//src/per/adc.h **** 
  47:../../libDaisy//src/per/adc.h ****     /** 
  48:../../libDaisy//src/per/adc.h ****     Initializes a single ADC pin as a Multiplexed ADC.
  49:../../libDaisy//src/per/adc.h ****     Requires a CD405X Multiplexer connected to the pin.
  50:../../libDaisy//src/per/adc.h ****     You only need to supply the mux pins that are required,
  51:../../libDaisy//src/per/adc.h ****     e.g. a 4052 mux would only require mux_0 and mux_1.
  52:../../libDaisy//src/per/adc.h ****     Internal Callbacks handle the pin addressing.
  53:../../libDaisy//src/per/adc.h ****     \param mux_channels must be 1-8
  54:../../libDaisy//src/per/adc.h ****     \param mux_0 First mux pin
  55:../../libDaisy//src/per/adc.h ****     \param mux_1 Second mux pin
  56:../../libDaisy//src/per/adc.h ****     \param mux_2 Third mux pin
  57:../../libDaisy//src/per/adc.h ****     \param adc_pin &
  58:../../libDaisy//src/per/adc.h ****     */
  59:../../libDaisy//src/per/adc.h ****     void InitMux(dsy_gpio_pin adc_pin,
  60:../../libDaisy//src/per/adc.h ****                  size_t       mux_channels,
  61:../../libDaisy//src/per/adc.h ****                  dsy_gpio_pin mux_0,
  62:../../libDaisy//src/per/adc.h ****                  dsy_gpio_pin mux_1 = {DSY_GPIOX, 0},
  63:../../libDaisy//src/per/adc.h ****                  dsy_gpio_pin mux_2 = {DSY_GPIOX, 0});
  64:../../libDaisy//src/per/adc.h **** 
  65:../../libDaisy//src/per/adc.h ****     dsy_gpio pin_;                   /**< & */
  66:../../libDaisy//src/per/adc.h ****     dsy_gpio mux_pin_[MUX_SEL_LAST]; /**< & */
  67:../../libDaisy//src/per/adc.h ****     uint8_t  mux_channels_;          /**< & */
  68:../../libDaisy//src/per/adc.h **** };
  69:../../libDaisy//src/per/adc.h **** 
  70:../../libDaisy//src/per/adc.h **** /**
  71:../../libDaisy//src/per/adc.h ****    @brief Handler for analog to digital conversion
  72:../../libDaisy//src/per/adc.h **** */
  73:../../libDaisy//src/per/adc.h **** class AdcHandle
  74:../../libDaisy//src/per/adc.h **** {
  75:../../libDaisy//src/per/adc.h ****   public:
  76:../../libDaisy//src/per/adc.h ****     /** Supported oversampling amounts */
  77:../../libDaisy//src/per/adc.h ****     enum OverSampling
  78:../../libDaisy//src/per/adc.h ****     {
  79:../../libDaisy//src/per/adc.h ****         OVS_NONE, /**< & */
  80:../../libDaisy//src/per/adc.h ****         OVS_4,    /**< & */
  81:../../libDaisy//src/per/adc.h ****         OVS_8,    /**< & */
  82:../../libDaisy//src/per/adc.h ****         OVS_16,   /**< & */
  83:../../libDaisy//src/per/adc.h ****         OVS_32,   /**< & */
  84:../../libDaisy//src/per/adc.h ****         OVS_64,   /**< & */
  85:../../libDaisy//src/per/adc.h ****         OVS_128,  /**< & */
  86:../../libDaisy//src/per/adc.h ****         OVS_256,  /**< & */
  87:../../libDaisy//src/per/adc.h ****         OVS_512,  /**< & */
  88:../../libDaisy//src/per/adc.h ****         OVS_1024, /**< & */
  89:../../libDaisy//src/per/adc.h ****         OVS_LAST, /**< & */
  90:../../libDaisy//src/per/adc.h ****     };
  91:../../libDaisy//src/per/adc.h **** 
  92:../../libDaisy//src/per/adc.h ****     AdcHandle() {}
  93:../../libDaisy//src/per/adc.h ****     ~AdcHandle() {}
  50              		.loc 4 93 5 is_stmt 1 view .LVU5
  51              		.loc 4 93 5 is_stmt 0 view .LVU6
ARM GAS  /var/folders/hl/qgbwny5j0fd895c2c41bk3tw0000gp/T//cctD4vl2.s 			page 6


  52              	.LBE233:
  53              	.LBB234:
  54              	.LBI234:
  55              		.file 5 "../../libDaisy//src/hid/audio.h"
   1:../../libDaisy//src/hid/audio.h **** #ifndef DSY_AUDIO_H
   2:../../libDaisy//src/hid/audio.h **** #define DSY_AUDIO_H /**< & */
   3:../../libDaisy//src/hid/audio.h **** 
   4:../../libDaisy//src/hid/audio.h **** #include "per/sai.h"
   5:../../libDaisy//src/hid/audio.h **** 
   6:../../libDaisy//src/hid/audio.h **** namespace daisy
   7:../../libDaisy//src/hid/audio.h **** {
   8:../../libDaisy//src/hid/audio.h **** /** @brief Audio Engine Handle
   9:../../libDaisy//src/hid/audio.h ****  *  @ingroup audio 
  10:../../libDaisy//src/hid/audio.h ****  *  @details This class allows for higher level access to an audio engine.
  11:../../libDaisy//src/hid/audio.h ****  *           If you're using a SOM like the DaisySeed or DaisyPatchSM (or any 
  12:../../libDaisy//src/hid/audio.h ****  *            board that includes one of those objects) then the intialization
  13:../../libDaisy//src/hid/audio.h ****  *            is already taken  care of.
  14:../../libDaisy//src/hid/audio.h ****  *           If you're setting up your own custom hardware, or need to make changes
  15:../../libDaisy//src/hid/audio.h ****  *           you will have to take the following steps:
  16:../../libDaisy//src/hid/audio.h ****  *             1. Create and Initialize an SaiHandle or two depending on your requirements
  17:../../libDaisy//src/hid/audio.h ****  *             2. Initialize the Audio Handle with the desired settings and the Initialized SaiHand
  18:../../libDaisy//src/hid/audio.h ****  *             3. If the connected codec requires special configuration or initialization, do so
  19:../../libDaisy//src/hid/audio.h ****  *             4. Write a callback method using either the AudioCallback or the InterleavingAudioCa
  20:../../libDaisy//src/hid/audio.h ****  *             5. Start the Audio using one of the StartAudio function
  21:../../libDaisy//src/hid/audio.h ****  */
  22:../../libDaisy//src/hid/audio.h **** class AudioHandle
  23:../../libDaisy//src/hid/audio.h **** {
  24:../../libDaisy//src/hid/audio.h ****   public:
  25:../../libDaisy//src/hid/audio.h ****     /** Manually configurable details about the Audio Engine */
  26:../../libDaisy//src/hid/audio.h ****     /** TODO: Figure out how to get samplerate in here. */
  27:../../libDaisy//src/hid/audio.h ****     struct Config
  28:../../libDaisy//src/hid/audio.h ****     {
  29:../../libDaisy//src/hid/audio.h ****         /** number of samples to process per callback */
  30:../../libDaisy//src/hid/audio.h ****         size_t blocksize;
  31:../../libDaisy//src/hid/audio.h **** 
  32:../../libDaisy//src/hid/audio.h ****         /**< Sample rate of audio */
  33:../../libDaisy//src/hid/audio.h ****         SaiHandle::Config::SampleRate samplerate;
  34:../../libDaisy//src/hid/audio.h **** 
  35:../../libDaisy//src/hid/audio.h ****         /** factor for adjustment before and after callback for hardware that may have extra headro
  36:../../libDaisy//src/hid/audio.h ****         float postgain;
  37:../../libDaisy//src/hid/audio.h **** 
  38:../../libDaisy//src/hid/audio.h ****         /** factor for additional one-sided compensation to audio path for hardware that may
  39:../../libDaisy//src/hid/audio.h ****          *  have unequal input/output ranges
  40:../../libDaisy//src/hid/audio.h ****          */
  41:../../libDaisy//src/hid/audio.h ****         float output_compensation;
  42:../../libDaisy//src/hid/audio.h **** 
  43:../../libDaisy//src/hid/audio.h ****         /** Sets default values for config struct */
  44:../../libDaisy//src/hid/audio.h ****         Config()
  45:../../libDaisy//src/hid/audio.h ****         : blocksize(48),
  46:../../libDaisy//src/hid/audio.h ****           samplerate(SaiHandle::Config::SampleRate::SAI_48KHZ),
  47:../../libDaisy//src/hid/audio.h ****           postgain(1.f),
  48:../../libDaisy//src/hid/audio.h ****           output_compensation(1.f)
  49:../../libDaisy//src/hid/audio.h ****         {
  50:../../libDaisy//src/hid/audio.h ****         }
  51:../../libDaisy//src/hid/audio.h ****     };
  52:../../libDaisy//src/hid/audio.h **** 
  53:../../libDaisy//src/hid/audio.h ****     enum class Result
ARM GAS  /var/folders/hl/qgbwny5j0fd895c2c41bk3tw0000gp/T//cctD4vl2.s 			page 7


  54:../../libDaisy//src/hid/audio.h ****     {
  55:../../libDaisy//src/hid/audio.h ****         OK,
  56:../../libDaisy//src/hid/audio.h ****         ERR,
  57:../../libDaisy//src/hid/audio.h ****     };
  58:../../libDaisy//src/hid/audio.h **** 
  59:../../libDaisy//src/hid/audio.h ****     /** Non-Interleaving input buffer
  60:../../libDaisy//src/hid/audio.h ****      * Buffer arranged by float[chn][sample] 
  61:../../libDaisy//src/hid/audio.h ****      * const so that the user can't modify the input
  62:../../libDaisy//src/hid/audio.h ****      */
  63:../../libDaisy//src/hid/audio.h ****     typedef const float* const* InputBuffer;
  64:../../libDaisy//src/hid/audio.h **** 
  65:../../libDaisy//src/hid/audio.h ****     /** Non-Interleaving output buffer
  66:../../libDaisy//src/hid/audio.h ****      * Arranged by float[chn][sample] 
  67:../../libDaisy//src/hid/audio.h ****      */
  68:../../libDaisy//src/hid/audio.h ****     typedef float** OutputBuffer;
  69:../../libDaisy//src/hid/audio.h **** 
  70:../../libDaisy//src/hid/audio.h ****     /** Type for a Non-Interleaving audio callback 
  71:../../libDaisy//src/hid/audio.h ****      * Non-Interleaving audio callbacks in daisy will be of this type
  72:../../libDaisy//src/hid/audio.h ****      */
  73:../../libDaisy//src/hid/audio.h ****     typedef void (*AudioCallback)(InputBuffer  in,
  74:../../libDaisy//src/hid/audio.h ****                                   OutputBuffer out,
  75:../../libDaisy//src/hid/audio.h ****                                   size_t       size);
  76:../../libDaisy//src/hid/audio.h **** 
  77:../../libDaisy//src/hid/audio.h ****     /** Interleaving Input buffer
  78:../../libDaisy//src/hid/audio.h ****      ** audio is prepared as { L0, R0, L1, R1, . . . LN, RN }]
  79:../../libDaisy//src/hid/audio.h ****      ** this is const, as the user shouldn't modify it
  80:../../libDaisy//src/hid/audio.h ****     */
  81:../../libDaisy//src/hid/audio.h ****     typedef const float* InterleavingInputBuffer;
  82:../../libDaisy//src/hid/audio.h **** 
  83:../../libDaisy//src/hid/audio.h ****     /** Interleaving Output buffer 
  84:../../libDaisy//src/hid/audio.h ****      ** audio is prepared as { L0, R0, L1, R1, . . . LN, RN }
  85:../../libDaisy//src/hid/audio.h ****     */
  86:../../libDaisy//src/hid/audio.h ****     typedef float* InterleavingOutputBuffer;
  87:../../libDaisy//src/hid/audio.h **** 
  88:../../libDaisy//src/hid/audio.h ****     /** Interleaving Audio Callback 
  89:../../libDaisy//src/hid/audio.h ****      * Interleaving audio callbacks in daisy must be of this type
  90:../../libDaisy//src/hid/audio.h ****      */
  91:../../libDaisy//src/hid/audio.h ****     typedef void (*InterleavingAudioCallback)(InterleavingInputBuffer  in,
  92:../../libDaisy//src/hid/audio.h ****                                               InterleavingOutputBuffer out,
  93:../../libDaisy//src/hid/audio.h ****                                               size_t                   size);
  94:../../libDaisy//src/hid/audio.h **** 
  95:../../libDaisy//src/hid/audio.h ****     AudioHandle() : pimpl_(nullptr) {}
  96:../../libDaisy//src/hid/audio.h ****     ~AudioHandle() {}
  56              		.loc 5 96 5 is_stmt 1 view .LVU7
  57              		.loc 5 96 5 is_stmt 0 view .LVU8
  58              	.LBE234:
  59              		.loc 1 22 19 view .LVU9
  60 0000 7047     		bx	lr
  61              		.cfi_endproc
  62              	.LFE2529:
  64              		.weak	_ZN5daisy9DaisySeedD1Ev
  65              		.thumb_set _ZN5daisy9DaisySeedD1Ev,_ZN5daisy9DaisySeedD2Ev
  66 0002 00BF     		.section	.text._ZN7daisysp10OscillatorD2Ev,"axG",%progbits,_ZN7daisysp10OscillatorD5Ev,comdat
  67              		.align	1
  68              		.p2align 2,,3
  69              		.weak	_ZN7daisysp10OscillatorD2Ev
  70              		.syntax unified
ARM GAS  /var/folders/hl/qgbwny5j0fd895c2c41bk3tw0000gp/T//cctD4vl2.s 			page 8


  71              		.thumb
  72              		.thumb_func
  73              		.fpu fpv5-d16
  75              	_ZN7daisysp10OscillatorD2Ev:
  76              	.LVL1:
  77              	.LFB4219:
  78              		.file 6 "../../DaisySP//Source/Synthesis/oscillator.h"
   1:../../DaisySP//Source/Synthesis/oscillator.h **** #pragma once
   2:../../DaisySP//Source/Synthesis/oscillator.h **** #ifndef DSY_OSCILLATOR_H
   3:../../DaisySP//Source/Synthesis/oscillator.h **** #define DSY_OSCILLATOR_H
   4:../../DaisySP//Source/Synthesis/oscillator.h **** #include <stdint.h>
   5:../../DaisySP//Source/Synthesis/oscillator.h **** #include "Utility/dsp.h"
   6:../../DaisySP//Source/Synthesis/oscillator.h **** #ifdef __cplusplus
   7:../../DaisySP//Source/Synthesis/oscillator.h **** 
   8:../../DaisySP//Source/Synthesis/oscillator.h **** namespace daisysp
   9:../../DaisySP//Source/Synthesis/oscillator.h **** {
  10:../../DaisySP//Source/Synthesis/oscillator.h **** /** Synthesis of several waveforms, including polyBLEP bandlimited waveforms.
  11:../../DaisySP//Source/Synthesis/oscillator.h **** */
  12:../../DaisySP//Source/Synthesis/oscillator.h **** class Oscillator
  13:../../DaisySP//Source/Synthesis/oscillator.h **** {
  14:../../DaisySP//Source/Synthesis/oscillator.h ****   public:
  15:../../DaisySP//Source/Synthesis/oscillator.h ****     Oscillator() {}
  16:../../DaisySP//Source/Synthesis/oscillator.h ****     ~Oscillator() {}
  79              		.loc 6 16 5 is_stmt 1 view -0
  80              		.cfi_startproc
  81              		@ args = 0, pretend = 0, frame = 0
  82              		@ frame_needed = 0, uses_anonymous_args = 0
  83              		@ link register save eliminated.
  84              		.loc 6 16 20 is_stmt 0 view .LVU11
  85 0000 7047     		bx	lr
  86              		.cfi_endproc
  87              	.LFE4219:
  89              		.weak	_ZN7daisysp10OscillatorD1Ev
  90              		.thumb_set _ZN7daisysp10OscillatorD1Ev,_ZN7daisysp10OscillatorD2Ev
  91 0002 00BF     		.section	.text._ZN7daisysp8EnsembleD2Ev,"axG",%progbits,_ZN7daisysp8EnsembleD5Ev,comdat
  92              		.align	1
  93              		.p2align 2,,3
  94              		.weak	_ZN7daisysp8EnsembleD2Ev
  95              		.syntax unified
  96              		.thumb
  97              		.thumb_func
  98              		.fpu fpv5-d16
 100              	_ZN7daisysp8EnsembleD2Ev:
 101              	.LVL2:
 102              	.LFB4824:
 103              		.file 7 "ensemble.h"
   1:ensemble.h    **** // Copyright 2014 Emilie Gillet.
   2:ensemble.h    **** //
   3:ensemble.h    **** // Author: Emilie Gillet (emilie.o.gillet@gmail.com)
   4:ensemble.h    **** //
   5:ensemble.h    **** // Permission is hereby granted, free of charge, to any person obtaining a copy
   6:ensemble.h    **** // of this software and associated documentation files (the "Software"), to deal
   7:ensemble.h    **** // in the Software without restriction, including without limitation the rights
   8:ensemble.h    **** // to use, copy, modify, merge, publish, distribute, sublicense, and/or sell
   9:ensemble.h    **** // copies of the Software, and to permit persons to whom the Software is
  10:ensemble.h    **** // furnished to do so, subject to the following conditions:
  11:ensemble.h    **** // 
ARM GAS  /var/folders/hl/qgbwny5j0fd895c2c41bk3tw0000gp/T//cctD4vl2.s 			page 9


  12:ensemble.h    **** // The above copyright notice and this permission notice shall be included in
  13:ensemble.h    **** // all copies or substantial portions of the Software.
  14:ensemble.h    **** // 
  15:ensemble.h    **** // THE SOFTWARE IS PROVIDED "AS IS", WITHOUT WARRANTY OF ANY KIND, EXPRESS OR
  16:ensemble.h    **** // IMPLIED, INCLUDING BUT NOT LIMITED TO THE WARRANTIES OF MERCHANTABILITY,
  17:ensemble.h    **** // FITNESS FOR A PARTICULAR PURPOSE AND NONINFRINGEMENT. IN NO EVENT SHALL THE
  18:ensemble.h    **** // AUTHORS OR COPYRIGHT HOLDERS BE LIABLE FOR ANY CLAIM, DAMAGES OR OTHER
  19:ensemble.h    **** // LIABILITY, WHETHER IN AN ACTION OF CONTRACT, TORT OR OTHERWISE, ARISING FROM,
  20:ensemble.h    **** // OUT OF OR IN CONNECTION WITH THE SOFTWARE OR THE USE OR OTHER DEALINGS IN
  21:ensemble.h    **** // THE SOFTWARE.
  22:ensemble.h    **** // 
  23:ensemble.h    **** // See http://creativecommons.org/licenses/MIT/ for more information.
  24:ensemble.h    **** //
  25:ensemble.h    **** // -----------------------------------------------------------------------------
  26:ensemble.h    **** //
  27:ensemble.h    **** // Ensemble FX.
  28:ensemble.h    **** 
  29:ensemble.h    **** #ifndef RINGS_DSP_FX_ENSEMBLE_H_
  30:ensemble.h    **** #define RINGS_DSP_FX_ENSEMBLE_H_
  31:ensemble.h    **** 
  32:ensemble.h    **** //#include "../stmlib/stmlib.h"
  33:ensemble.h    **** #include "../../stmlib/stmlib.h"
  34:ensemble.h    **** #include "../../DaisySP/Source/Utility/dsp.h"
  35:ensemble.h    **** #include "fx_engine.h"
  36:ensemble.h    **** #include "resources.h"
  37:ensemble.h    **** 
  38:ensemble.h    **** namespace daisysp {
  39:ensemble.h    **** 
  40:ensemble.h    **** class Ensemble {
  41:ensemble.h    ****  public:
  42:ensemble.h    ****   Ensemble() { }
  43:ensemble.h    ****   ~Ensemble() { }
 104              		.loc 7 43 3 is_stmt 1 view -0
 105              		.cfi_startproc
 106              		@ args = 0, pretend = 0, frame = 0
 107              		@ frame_needed = 0, uses_anonymous_args = 0
 108              		@ link register save eliminated.
 109              	.LBB235:
 110              	.LBI235:
 111              		.file 8 "fx_engine.h"
   1:fx_engine.h   **** #pragma once
   2:fx_engine.h   **** #ifndef DSY_FX_ENGINE_H
   3:fx_engine.h   **** #define DSY_FX_ENGINE_H
   4:fx_engine.h   **** 
   5:fx_engine.h   **** #include <algorithm>
   6:fx_engine.h   **** #include <stdint.h>
   7:fx_engine.h   **** #include "../../DaisySP/Source/Utility/dsp.h"
   8:fx_engine.h   **** 
   9:fx_engine.h   **** #ifdef __cplusplus
  10:fx_engine.h   **** 
  11:fx_engine.h   **** #define JOIN(lhs, rhs) JOIN_1(lhs, rhs)
  12:fx_engine.h   **** #define JOIN_1(lhs, rhs) JOIN_2(lhs, rhs)
  13:fx_engine.h   **** #define JOIN_2(lhs, rhs) lhs##rhs
  14:fx_engine.h   **** 
  15:fx_engine.h   **** //#define STATIC_ASSERT(expression, message)                                  \
  16:fx_engine.h   **** //    struct JOIN(__static_assertion_at_line_, __LINE__)                      \
  17:fx_engine.h   **** //    {                                                                       \
ARM GAS  /var/folders/hl/qgbwny5j0fd895c2c41bk3tw0000gp/T//cctD4vl2.s 			page 10


  18:fx_engine.h   **** //        impl::StaticAssertion<static_cast<bool>((expression))>              \
  19:fx_engine.h   **** //            JOIN(JOIN(JOIN(STATIC_ASSERTION_FAILED_AT_LINE_, __LINE__), _), \
  20:fx_engine.h   **** //                 message);                                                  \
  21:fx_engine.h   **** //    };
  22:fx_engine.h   **** //
  23:fx_engine.h   **** ///** @file fx_engine.h */
  24:fx_engine.h   **** //namespace impl
  25:fx_engine.h   **** //{
  26:fx_engine.h   **** //template <bool>
  27:fx_engine.h   **** //struct StaticAssertion;
  28:fx_engine.h   **** //
  29:fx_engine.h   **** //template <>
  30:fx_engine.h   **** //struct StaticAssertion<true>
  31:fx_engine.h   **** //{
  32:fx_engine.h   **** //}; // StaticAssertion<true>
  33:fx_engine.h   **** //
  34:fx_engine.h   **** //template <int i>
  35:fx_engine.h   **** //struct StaticAssertionTest
  36:fx_engine.h   **** //{
  37:fx_engine.h   **** //}; // StaticAssertionTest<int>
  38:fx_engine.h   **** //
  39:fx_engine.h   **** //} // namespace impl
  40:fx_engine.h   **** 
  41:fx_engine.h   **** namespace daisysp
  42:fx_engine.h   **** {
  43:fx_engine.h   **** #define TAIL , -1
  44:fx_engine.h   **** 
  45:fx_engine.h   **** enum Format
  46:fx_engine.h   **** {
  47:fx_engine.h   ****     FORMAT_12_BIT,
  48:fx_engine.h   ****     FORMAT_16_BIT,
  49:fx_engine.h   ****     FORMAT_32_BIT
  50:fx_engine.h   **** };
  51:fx_engine.h   **** 
  52:fx_engine.h   **** enum LFOIndex
  53:fx_engine.h   **** {
  54:fx_engine.h   ****     LFO_1,
  55:fx_engine.h   ****     LFO_2
  56:fx_engine.h   **** };
  57:fx_engine.h   **** 
  58:fx_engine.h   **** static inline int32_t Clip16(int32_t x)
  59:fx_engine.h   **** {
  60:fx_engine.h   ****     if(x < -32768)
  61:fx_engine.h   ****     {
  62:fx_engine.h   ****         return -32768;
  63:fx_engine.h   ****     }
  64:fx_engine.h   ****     else if(x > 32767)
  65:fx_engine.h   ****     {
  66:fx_engine.h   ****         return 32767;
  67:fx_engine.h   ****     }
  68:fx_engine.h   ****     else
  69:fx_engine.h   ****     {
  70:fx_engine.h   ****         return x;
  71:fx_engine.h   ****     }
  72:fx_engine.h   **** }
  73:fx_engine.h   **** 
  74:fx_engine.h   **** template <Format format>
ARM GAS  /var/folders/hl/qgbwny5j0fd895c2c41bk3tw0000gp/T//cctD4vl2.s 			page 11


  75:fx_engine.h   **** struct DataType
  76:fx_engine.h   **** {
  77:fx_engine.h   **** };
  78:fx_engine.h   **** 
  79:fx_engine.h   **** template <>
  80:fx_engine.h   **** struct DataType<FORMAT_12_BIT>
  81:fx_engine.h   **** {
  82:fx_engine.h   ****     typedef uint16_t T;
  83:fx_engine.h   **** 
  84:fx_engine.h   ****     static inline float Decompress(T value)
  85:fx_engine.h   ****     {
  86:fx_engine.h   ****         return static_cast<float>(static_cast<int16_t>(value)) / 4096.0f;
  87:fx_engine.h   ****     }
  88:fx_engine.h   **** 
  89:fx_engine.h   ****     static inline T Compress(float value)
  90:fx_engine.h   ****     {
  91:fx_engine.h   ****         return static_cast<uint16_t>(
  92:fx_engine.h   ****             Clip16(static_cast<int32_t>(value * 4096.0f)));
  93:fx_engine.h   ****     }
  94:fx_engine.h   **** };
  95:fx_engine.h   **** 
  96:fx_engine.h   **** template <>
  97:fx_engine.h   **** struct DataType<FORMAT_16_BIT>
  98:fx_engine.h   **** {
  99:fx_engine.h   ****     typedef uint16_t T;
 100:fx_engine.h   **** 
 101:fx_engine.h   ****     static inline float Decompress(T value)
 102:fx_engine.h   ****     {
 103:fx_engine.h   ****         return static_cast<float>(static_cast<int16_t>(value)) / 32768.0f;
 104:fx_engine.h   ****     }
 105:fx_engine.h   **** 
 106:fx_engine.h   ****     static inline T Compress(float value)
 107:fx_engine.h   ****     {
 108:fx_engine.h   ****         return static_cast<uint16_t>(
 109:fx_engine.h   ****             Clip16(static_cast<int32_t>(value * 32768.0f)));
 110:fx_engine.h   ****     }
 111:fx_engine.h   **** };
 112:fx_engine.h   **** 
 113:fx_engine.h   **** template <>
 114:fx_engine.h   **** struct DataType<FORMAT_32_BIT>
 115:fx_engine.h   **** {
 116:fx_engine.h   ****     typedef float T;
 117:fx_engine.h   **** 
 118:fx_engine.h   ****     static inline float Decompress(T value)
 119:fx_engine.h   ****     {
 120:fx_engine.h   ****         return value;
 121:fx_engine.h   ****         ;
 122:fx_engine.h   ****     }
 123:fx_engine.h   **** 
 124:fx_engine.h   ****     static inline T Compress(float value) { return value; }
 125:fx_engine.h   **** };
 126:fx_engine.h   **** 
 127:fx_engine.h   **** /**  
 128:fx_engine.h   ****        @brief Base Class for building reverbs
 129:fx_engine.h   **** 	   @author Ben Sergentanis
 130:fx_engine.h   **** 	   @date Jan 2021
 131:fx_engine.h   **** 	   Ported from pichenettes/eurorack/plaits/dsp/fx/fx_engine.h \n
ARM GAS  /var/folders/hl/qgbwny5j0fd895c2c41bk3tw0000gp/T//cctD4vl2.s 			page 12


 132:fx_engine.h   **** 	   to an independent module. \n
 133:fx_engine.h   **** 	   Original code written by Emilie Gillet in 2014. \n
 134:fx_engine.h   **** */
 135:fx_engine.h   **** template <size_t size, Format format = FORMAT_12_BIT>
 136:fx_engine.h   **** class FxEngine
 137:fx_engine.h   **** {
 138:fx_engine.h   ****   public:
 139:fx_engine.h   ****     typedef typename DataType<format>::T T;
 140:fx_engine.h   ****     FxEngine() {}
 141:fx_engine.h   ****     ~FxEngine() {}
 112              		.loc 8 141 5 view .LVU13
 113              		.loc 8 141 5 is_stmt 0 view .LVU14
 114              	.LBE235:
 115              		.loc 7 43 17 view .LVU15
 116 0000 7047     		bx	lr
 117              		.cfi_endproc
 118              	.LFE4824:
 120              		.weak	_ZN7daisysp8EnsembleD1Ev
 121              		.thumb_set _ZN7daisysp8EnsembleD1Ev,_ZN7daisysp8EnsembleD2Ev
 122 0002 00BF     		.section	.text._ZN7daisysp10Oscillator4InitEf,"axG",%progbits,_ZN7daisysp10Oscillator4InitEf,comda
 123              		.align	1
 124              		.p2align 2,,3
 125              		.weak	_ZN7daisysp10Oscillator4InitEf
 126              		.syntax unified
 127              		.thumb
 128              		.thumb_func
 129              		.fpu fpv5-d16
 131              	_ZN7daisysp10Oscillator4InitEf:
 132              	.LVL3:
 133              	.LFB4221:
  17:../../DaisySP//Source/Synthesis/oscillator.h ****     /** Choices for output waveforms, POLYBLEP are appropriately labeled. Others are naive forms.
  18:../../DaisySP//Source/Synthesis/oscillator.h ****     */
  19:../../DaisySP//Source/Synthesis/oscillator.h ****     enum
  20:../../DaisySP//Source/Synthesis/oscillator.h ****     {
  21:../../DaisySP//Source/Synthesis/oscillator.h ****         WAVE_SIN,
  22:../../DaisySP//Source/Synthesis/oscillator.h ****         WAVE_TRI,
  23:../../DaisySP//Source/Synthesis/oscillator.h ****         WAVE_SAW,
  24:../../DaisySP//Source/Synthesis/oscillator.h ****         WAVE_RAMP,
  25:../../DaisySP//Source/Synthesis/oscillator.h ****         WAVE_SQUARE,
  26:../../DaisySP//Source/Synthesis/oscillator.h ****         WAVE_POLYBLEP_TRI,
  27:../../DaisySP//Source/Synthesis/oscillator.h ****         WAVE_POLYBLEP_SAW,
  28:../../DaisySP//Source/Synthesis/oscillator.h ****         WAVE_POLYBLEP_SQUARE,
  29:../../DaisySP//Source/Synthesis/oscillator.h ****         WAVE_LAST,
  30:../../DaisySP//Source/Synthesis/oscillator.h ****     };
  31:../../DaisySP//Source/Synthesis/oscillator.h **** 
  32:../../DaisySP//Source/Synthesis/oscillator.h **** 
  33:../../DaisySP//Source/Synthesis/oscillator.h ****     /** Initializes the Oscillator
  34:../../DaisySP//Source/Synthesis/oscillator.h **** 
  35:../../DaisySP//Source/Synthesis/oscillator.h ****         \param sample_rate - sample rate of the audio engine being run, and the frequency that the 
  36:../../DaisySP//Source/Synthesis/oscillator.h **** 
  37:../../DaisySP//Source/Synthesis/oscillator.h ****         Defaults:
  38:../../DaisySP//Source/Synthesis/oscillator.h ****         - freq_ = 100 Hz
  39:../../DaisySP//Source/Synthesis/oscillator.h ****         - amp_ = 0.5
  40:../../DaisySP//Source/Synthesis/oscillator.h ****         - waveform_ = sine wave.
  41:../../DaisySP//Source/Synthesis/oscillator.h ****     */
  42:../../DaisySP//Source/Synthesis/oscillator.h ****     void Init(float sample_rate)
 134              		.loc 6 42 10 is_stmt 1 view -0
ARM GAS  /var/folders/hl/qgbwny5j0fd895c2c41bk3tw0000gp/T//cctD4vl2.s 			page 13


 135              		.cfi_startproc
 136              		@ args = 0, pretend = 0, frame = 0
 137              		@ frame_needed = 0, uses_anonymous_args = 0
  43:../../DaisySP//Source/Synthesis/oscillator.h ****     {
  44:../../DaisySP//Source/Synthesis/oscillator.h ****         sr_        = sample_rate;
 138              		.loc 6 44 9 view .LVU17
  42:../../DaisySP//Source/Synthesis/oscillator.h ****     {
 139              		.loc 6 42 10 is_stmt 0 view .LVU18
 140 0000 F0EE407A 		vmov.f32	s15, s0
  45:../../DaisySP//Source/Synthesis/oscillator.h ****         sr_recip_  = 1.0f / sample_rate;
  46:../../DaisySP//Source/Synthesis/oscillator.h ****         freq_      = 100.0f;
  47:../../DaisySP//Source/Synthesis/oscillator.h ****         amp_       = 0.5f;
 141              		.loc 6 47 20 view .LVU19
 142 0004 4FF07C53 		mov	r3, #1056964608
  45:../../DaisySP//Source/Synthesis/oscillator.h ****         sr_recip_  = 1.0f / sample_rate;
 143              		.loc 6 45 27 view .LVU20
 144 0008 F7EE006A 		vmov.f32	s13, #1.0e+0
  48:../../DaisySP//Source/Synthesis/oscillator.h ****         pw_        = 0.5f;
  49:../../DaisySP//Source/Synthesis/oscillator.h ****         pw_rad_    = pw_ * TWOPI_F;
  50:../../DaisySP//Source/Synthesis/oscillator.h ****         phase_     = 0.0f;
 145              		.loc 6 50 20 view .LVU21
 146 000c 0022     		movs	r2, #0
  46:../../DaisySP//Source/Synthesis/oscillator.h ****         amp_       = 0.5f;
 147              		.loc 6 46 20 view .LVU22
 148 000e 9FED0D0A 		vldr.32	s0, .L7
 149              	.LVL4:
  49:../../DaisySP//Source/Synthesis/oscillator.h ****         phase_     = 0.0f;
 150              		.loc 6 49 20 view .LVU23
 151 0012 0D49     		ldr	r1, .L7+4
  45:../../DaisySP//Source/Synthesis/oscillator.h ****         freq_      = 100.0f;
 152              		.loc 6 45 27 view .LVU24
 153 0014 86EEA77A 		vdiv.f32	s14, s13, s15
  47:../../DaisySP//Source/Synthesis/oscillator.h ****         pw_        = 0.5f;
 154              		.loc 6 47 20 view .LVU25
 155 0018 4360     		str	r3, [r0, #4]	@ float
  48:../../DaisySP//Source/Synthesis/oscillator.h ****         pw_rad_    = pw_ * TWOPI_F;
 156              		.loc 6 48 20 view .LVU26
 157 001a C360     		str	r3, [r0, #12]	@ float
 158              		.loc 6 50 20 view .LVU27
 159 001c C261     		str	r2, [r0, #28]	@ float
  44:../../DaisySP//Source/Synthesis/oscillator.h ****         sr_recip_  = 1.0f / sample_rate;
 160              		.loc 6 44 20 view .LVU28
 161 001e C0ED057A 		vstr.32	s15, [r0, #20]
  45:../../DaisySP//Source/Synthesis/oscillator.h ****         freq_      = 100.0f;
 162              		.loc 6 45 9 is_stmt 1 view .LVU29
  46:../../DaisySP//Source/Synthesis/oscillator.h ****         amp_       = 0.5f;
 163              		.loc 6 46 20 is_stmt 0 view .LVU30
 164 0022 80ED020A 		vstr.32	s0, [r0, #8]
  49:../../DaisySP//Source/Synthesis/oscillator.h ****         phase_     = 0.0f;
 165              		.loc 6 49 20 view .LVU31
 166 0026 0161     		str	r1, [r0, #16]	@ float
  42:../../DaisySP//Source/Synthesis/oscillator.h ****     {
 167              		.loc 6 42 10 view .LVU32
 168 0028 10B5     		push	{r4, lr}
 169              		.cfi_def_cfa_offset 8
 170              		.cfi_offset 4, -8
 171              		.cfi_offset 14, -4
ARM GAS  /var/folders/hl/qgbwny5j0fd895c2c41bk3tw0000gp/T//cctD4vl2.s 			page 14


  42:../../DaisySP//Source/Synthesis/oscillator.h ****     {
 172              		.loc 6 42 10 view .LVU33
 173 002a 0446     		mov	r4, r0
  45:../../DaisySP//Source/Synthesis/oscillator.h ****         freq_      = 100.0f;
 174              		.loc 6 45 20 view .LVU34
 175 002c 80ED067A 		vstr.32	s14, [r0, #24]
  46:../../DaisySP//Source/Synthesis/oscillator.h ****         amp_       = 0.5f;
 176              		.loc 6 46 9 is_stmt 1 view .LVU35
  47:../../DaisySP//Source/Synthesis/oscillator.h ****         pw_        = 0.5f;
 177              		.loc 6 47 9 view .LVU36
  48:../../DaisySP//Source/Synthesis/oscillator.h ****         pw_rad_    = pw_ * TWOPI_F;
 178              		.loc 6 48 9 view .LVU37
  49:../../DaisySP//Source/Synthesis/oscillator.h ****         phase_     = 0.0f;
 179              		.loc 6 49 9 view .LVU38
 180              		.loc 6 50 9 view .LVU39
  51:../../DaisySP//Source/Synthesis/oscillator.h ****         phase_inc_ = CalcPhaseInc(freq_);
 181              		.loc 6 51 9 view .LVU40
 182              		.loc 6 51 34 is_stmt 0 view .LVU41
 183 0030 FFF7FEFF 		bl	_ZN7daisysp10Oscillator12CalcPhaseIncEf
 184              	.LVL5:
  52:../../DaisySP//Source/Synthesis/oscillator.h ****         waveform_  = WAVE_SIN;
 185              		.loc 6 52 20 view .LVU42
 186 0034 0022     		movs	r2, #0
  53:../../DaisySP//Source/Synthesis/oscillator.h ****         eoc_       = true;
  54:../../DaisySP//Source/Synthesis/oscillator.h ****         eor_       = true;
 187              		.loc 6 54 20 view .LVU43
 188 0036 40F20113 		movw	r3, #257
  51:../../DaisySP//Source/Synthesis/oscillator.h ****         waveform_  = WAVE_SIN;
 189              		.loc 6 51 20 view .LVU44
 190 003a 84ED080A 		vstr.32	s0, [r4, #32]
  52:../../DaisySP//Source/Synthesis/oscillator.h ****         waveform_  = WAVE_SIN;
 191              		.loc 6 52 9 is_stmt 1 view .LVU45
  52:../../DaisySP//Source/Synthesis/oscillator.h ****         waveform_  = WAVE_SIN;
 192              		.loc 6 52 20 is_stmt 0 view .LVU46
 193 003e 2270     		strb	r2, [r4]
  53:../../DaisySP//Source/Synthesis/oscillator.h ****         eoc_       = true;
 194              		.loc 6 53 9 is_stmt 1 view .LVU47
 195              		.loc 6 54 9 view .LVU48
 196              		.loc 6 54 20 is_stmt 0 view .LVU49
 197 0040 A385     		strh	r3, [r4, #44]	@ movhi
  55:../../DaisySP//Source/Synthesis/oscillator.h ****     }
 198              		.loc 6 55 5 view .LVU50
 199 0042 10BD     		pop	{r4, pc}
 200              	.LVL6:
 201              	.L8:
 202              		.loc 6 55 5 view .LVU51
 203              		.align	2
 204              	.L7:
 205 0044 0000C842 		.word	1120403456
 206 0048 DB0F4940 		.word	1078530011
 207              		.cfi_endproc
 208              	.LFE4221:
 210              		.section	.text._ZN7daisysp8Ensemble7ProcessEPfS1_j,"axG",%progbits,_ZN7daisysp8Ensemble7ProcessEPf
 211              		.align	1
 212              		.p2align 2,,3
 213              		.weak	_ZN7daisysp8Ensemble7ProcessEPfS1_j
 214              		.syntax unified
ARM GAS  /var/folders/hl/qgbwny5j0fd895c2c41bk3tw0000gp/T//cctD4vl2.s 			page 15


 215              		.thumb
 216              		.thumb_func
 217              		.fpu fpv5-d16
 219              	_ZN7daisysp8Ensemble7ProcessEPfS1_j:
 220              	.LVL7:
 221              	.LFB4827:
  44:ensemble.h    ****   
  45:ensemble.h    ****   void Init(uint16_t* buffer) {
  46:ensemble.h    ****     engine_.Init(buffer);
  47:ensemble.h    ****     phase_1_ = 0;
  48:ensemble.h    ****     phase_2_ = 0;
  49:ensemble.h    ****   }
  50:ensemble.h    ****   
  51:ensemble.h    ****   void Process(float* left, float* right, size_t size) {
 222              		.loc 7 51 8 is_stmt 1 view -0
 223              		.cfi_startproc
 224              		@ args = 0, pretend = 0, frame = 0
 225              		@ frame_needed = 0, uses_anonymous_args = 0
  52:ensemble.h    ****     typedef E::Reserve<2047, E::Reserve<2047> > Memory;
 226              		.loc 7 52 5 view .LVU53
  53:ensemble.h    ****     E::DelayLine<Memory, 0> line_l;
 227              		.loc 7 53 5 view .LVU54
  54:ensemble.h    ****     E::DelayLine<Memory, 1> line_r;
 228              		.loc 7 54 5 view .LVU55
  55:ensemble.h    ****     E::Context c;
 229              		.loc 7 55 5 view .LVU56
 230              	.LBB301:
 231              	.LBI301:
 142:fx_engine.h   **** 
 143:fx_engine.h   ****     void Init(T* buffer)
 144:fx_engine.h   ****     {
 145:fx_engine.h   ****         buffer_       = buffer;
 146:fx_engine.h   ****         lfo_phase_[0] = 0.f;
 147:fx_engine.h   ****         lfo_phase_[1] = 0.f;
 148:fx_engine.h   **** 
 149:fx_engine.h   ****         lfo_freq_[0] = 0.f;
 150:fx_engine.h   ****         lfo_freq_[1] = 0.f;
 151:fx_engine.h   ****     }
 152:fx_engine.h   **** 
 153:fx_engine.h   ****     void Clear()
 154:fx_engine.h   ****     {
 155:fx_engine.h   ****         std::fill(&buffer_[0], &buffer_[size], 0);
 156:fx_engine.h   ****         write_ptr_ = 0;
 157:fx_engine.h   ****     }
 158:fx_engine.h   **** 
 159:fx_engine.h   ****     struct Empty
 160:fx_engine.h   ****     {
 161:fx_engine.h   ****     };
 162:fx_engine.h   **** 
 163:fx_engine.h   ****     template <int32_t l, typename T = Empty>
 164:fx_engine.h   ****     struct Reserve
 165:fx_engine.h   ****     {
 166:fx_engine.h   ****         typedef T Tail;
 167:fx_engine.h   ****         enum
 168:fx_engine.h   ****         {
 169:fx_engine.h   ****             length = l
 170:fx_engine.h   ****         };
ARM GAS  /var/folders/hl/qgbwny5j0fd895c2c41bk3tw0000gp/T//cctD4vl2.s 			page 16


 171:fx_engine.h   ****     };
 172:fx_engine.h   **** 
 173:fx_engine.h   ****     template <typename Memory, int32_t index>
 174:fx_engine.h   ****     struct DelayLine
 175:fx_engine.h   ****     {
 176:fx_engine.h   ****         enum
 177:fx_engine.h   ****         {
 178:fx_engine.h   ****             length = DelayLine<typename Memory::Tail, index - 1>::length,
 179:fx_engine.h   ****             base   = DelayLine<Memory, index - 1>::base
 180:fx_engine.h   ****                    + DelayLine<Memory, index - 1>::length + 1
 181:fx_engine.h   ****         };
 182:fx_engine.h   ****     };
 183:fx_engine.h   **** 
 184:fx_engine.h   ****     template <typename Memory>
 185:fx_engine.h   ****     struct DelayLine<Memory, 0>
 186:fx_engine.h   ****     {
 187:fx_engine.h   ****         enum
 188:fx_engine.h   ****         {
 189:fx_engine.h   ****             length = Memory::length,
 190:fx_engine.h   ****             base   = 0
 191:fx_engine.h   ****         };
 192:fx_engine.h   ****     };
 193:fx_engine.h   **** 
 194:fx_engine.h   ****     class Context
 195:fx_engine.h   ****     {
 196:fx_engine.h   ****         friend class FxEngine;
 197:fx_engine.h   **** 
 198:fx_engine.h   ****       public:
 199:fx_engine.h   ****         Context() {}
 232              		.loc 8 199 9 view .LVU57
 233              		.loc 8 199 9 is_stmt 0 view .LVU58
 234              	.LBE301:
  56:ensemble.h    ****     
  57:ensemble.h    ****     while (size--) {
 235              		.loc 7 57 5 is_stmt 1 view .LVU59
 236              		.loc 7 57 16 view .LVU60
 237              		.loc 7 57 16 is_stmt 0 view .LVU61
 238 0000 002B     		cmp	r3, #0
 239 0002 00F0CE81 		beq	.L30
 240 0006 8C46     		mov	ip, r1
 241              	.LBB302:
 242              	.LBB303:
 243              	.LBB304:
 200:fx_engine.h   ****         ~Context() {}
 201:fx_engine.h   **** 
 202:fx_engine.h   ****         inline void Load(float value) { accumulator_ = value; }
 203:fx_engine.h   **** 
 204:fx_engine.h   ****         inline void Read(float value, float scale)
 205:fx_engine.h   ****         {
 206:fx_engine.h   ****             accumulator_ += value * scale;
 207:fx_engine.h   ****         }
 208:fx_engine.h   **** 
 209:fx_engine.h   ****         inline void Read(float value) { accumulator_ += value; }
 210:fx_engine.h   **** 
 211:fx_engine.h   ****         inline void Write(float& value) { value = accumulator_; }
 212:fx_engine.h   **** 
 213:fx_engine.h   ****         inline void Write(float& value, float scale)
ARM GAS  /var/folders/hl/qgbwny5j0fd895c2c41bk3tw0000gp/T//cctD4vl2.s 			page 17


 214:fx_engine.h   ****         {
 215:fx_engine.h   ****             value = accumulator_;
 216:fx_engine.h   ****             accumulator_ *= scale;
 217:fx_engine.h   ****         }
 218:fx_engine.h   **** 
 219:fx_engine.h   ****         template <typename D>
 220:fx_engine.h   ****         inline void Write(D& d, int32_t offset, float scale)
 221:fx_engine.h   ****         {
 222:fx_engine.h   ****             STATIC_ASSERT(D::base + D::length <= size, delay_memory_full);
 223:fx_engine.h   ****             T w = DataType<format>::Compress(accumulator_);
 224:fx_engine.h   ****             if(offset == -1)
 225:fx_engine.h   ****             {
 226:fx_engine.h   ****                 buffer_[(write_ptr_ + D::base + D::length - 1) & MASK] = w;
 227:fx_engine.h   ****             }
 228:fx_engine.h   ****             else
 229:fx_engine.h   ****             {
 230:fx_engine.h   ****                 buffer_[(write_ptr_ + D::base + offset) & MASK] = w;
 231:fx_engine.h   ****             }
 232:fx_engine.h   ****             accumulator_ *= scale;
 233:fx_engine.h   ****         }
 234:fx_engine.h   **** 
 235:fx_engine.h   ****         template <typename D>
 236:fx_engine.h   ****         inline void Write(D& d, float scale)
 237:fx_engine.h   ****         {
 238:fx_engine.h   ****             Write(d, 0, scale);
 239:fx_engine.h   ****         }
 240:fx_engine.h   **** 
 241:fx_engine.h   ****         template <typename D>
 242:fx_engine.h   ****         inline void WriteAllPass(D& d, int32_t offset, float scale)
 243:fx_engine.h   ****         {
 244:fx_engine.h   ****             Write(d, offset, scale);
 245:fx_engine.h   ****             accumulator_ += previous_read_;
 246:fx_engine.h   ****         }
 247:fx_engine.h   **** 
 248:fx_engine.h   ****         template <typename D>
 249:fx_engine.h   ****         inline void WriteAllPass(D& d, float scale)
 250:fx_engine.h   ****         {
 251:fx_engine.h   ****             WriteAllPass(d, 0, scale);
 252:fx_engine.h   ****         }
 253:fx_engine.h   **** 
 254:fx_engine.h   ****         template <typename D>
 255:fx_engine.h   ****         inline void Read(D& d, int32_t offset, float scale)
 256:fx_engine.h   ****         {
 257:fx_engine.h   ****             STATIC_ASSERT(D::base + D::length <= size, delay_memory_full);
 258:fx_engine.h   ****             T r;
 259:fx_engine.h   ****             if(offset == -1)
 260:fx_engine.h   ****             {
 261:fx_engine.h   ****                 r = buffer_[(write_ptr_ + D::base + D::length - 1) & MASK];
 262:fx_engine.h   ****             }
 263:fx_engine.h   ****             else
 264:fx_engine.h   ****             {
 265:fx_engine.h   ****                 r = buffer_[(write_ptr_ + D::base + offset) & MASK];
 266:fx_engine.h   ****             }
 267:fx_engine.h   ****             float r_f      = DataType<format>::Decompress(r);
 268:fx_engine.h   ****             previous_read_ = r_f;
 269:fx_engine.h   ****             accumulator_ += r_f * scale;
 270:fx_engine.h   ****         }
ARM GAS  /var/folders/hl/qgbwny5j0fd895c2c41bk3tw0000gp/T//cctD4vl2.s 			page 18


 271:fx_engine.h   **** 
 272:fx_engine.h   ****         template <typename D>
 273:fx_engine.h   ****         inline void Read(D& d, float scale)
 274:fx_engine.h   ****         {
 275:fx_engine.h   ****             Read(d, 0, scale);
 276:fx_engine.h   ****         }
 277:fx_engine.h   **** 
 278:fx_engine.h   ****         inline void Lp(float& state, float coefficient)
 279:fx_engine.h   ****         {
 280:fx_engine.h   ****             state += coefficient * (accumulator_ - state);
 281:fx_engine.h   ****             accumulator_ = state;
 282:fx_engine.h   ****         }
 283:fx_engine.h   **** 
 284:fx_engine.h   ****         inline void Hp(float& state, float coefficient)
 285:fx_engine.h   ****         {
 286:fx_engine.h   ****             state += coefficient * (accumulator_ - state);
 287:fx_engine.h   ****             accumulator_ -= state;
 288:fx_engine.h   ****         }
 289:fx_engine.h   **** 
 290:fx_engine.h   ****         template <typename D>
 291:fx_engine.h   ****         inline void Interpolate(D& d, float offset, float scale)
 292:fx_engine.h   ****         {
 293:fx_engine.h   ****             STATIC_ASSERT(D::base + D::length <= size, delay_memory_full);
 294:fx_engine.h   **** 
 295:fx_engine.h   ****             int32_t offset_integral = static_cast<int32_t>(offset);
 296:fx_engine.h   ****             float   offset_fractional
 297:fx_engine.h   ****                 = offset - static_cast<float>(offset_integral);
 298:fx_engine.h   **** 
 299:fx_engine.h   ****             float a = DataType<format>::Decompress(
 300:fx_engine.h   ****                 buffer_[(write_ptr_ + offset_integral + D::base) & MASK]);
 301:fx_engine.h   ****             float b = DataType<format>::Decompress(
 302:fx_engine.h   ****                 buffer_[(write_ptr_ + offset_integral + D::base + 1) & MASK]);
 303:fx_engine.h   ****             float x        = a + (b - a) * offset_fractional;
 304:fx_engine.h   ****             previous_read_ = x;
 305:fx_engine.h   ****             accumulator_ += x * scale;
 306:fx_engine.h   ****         }
 307:fx_engine.h   **** 
 308:fx_engine.h   ****         template <typename D>
 309:fx_engine.h   ****         inline void Interpolate(D&       d,
 310:fx_engine.h   ****                                 float    offset,
 311:fx_engine.h   ****                                 LFOIndex index,
 312:fx_engine.h   ****                                 float    amplitude,
 313:fx_engine.h   ****                                 float    scale)
 314:fx_engine.h   ****         {
 315:fx_engine.h   ****             STATIC_ASSERT(D::base + D::length <= size, delay_memory_full);
 316:fx_engine.h   ****             lfo_phase_[index] += lfo_freq_[index];
 317:fx_engine.h   ****             lfo_phase_[index] = lfo_phase_[index] >= 1.f
 318:fx_engine.h   ****                                     ? lfo_phase_[index] - 1.f
 319:fx_engine.h   ****                                     : lfo_phase_[index];
 320:fx_engine.h   **** 
 321:fx_engine.h   ****             offset += amplitude * cosf(lfo_phase_[index] * TWOPI_F);
 322:fx_engine.h   **** 
 323:fx_engine.h   ****             int32_t offset_integral = static_cast<int32_t>(offset);
 324:fx_engine.h   ****             float   offset_fractional
 325:fx_engine.h   ****                 = offset - static_cast<float>(offset_integral);
 326:fx_engine.h   **** 
 327:fx_engine.h   ****             float a = DataType<format>::Decompress(
ARM GAS  /var/folders/hl/qgbwny5j0fd895c2c41bk3tw0000gp/T//cctD4vl2.s 			page 19


 328:fx_engine.h   ****                 buffer_[(write_ptr_ + offset_integral + D::base) & MASK]);
 329:fx_engine.h   ****             float b = DataType<format>::Decompress(
 330:fx_engine.h   ****                 buffer_[(write_ptr_ + offset_integral + D::base + 1) & MASK]);
 331:fx_engine.h   ****             float x        = a + (b - a) * offset_fractional;
 332:fx_engine.h   ****             previous_read_ = x;
 333:fx_engine.h   ****             accumulator_ += x * scale;
 334:fx_engine.h   ****         }
 335:fx_engine.h   **** 
 336:fx_engine.h   ****       private:
 337:fx_engine.h   ****         float   accumulator_;
 338:fx_engine.h   ****         float   previous_read_;
 339:fx_engine.h   ****         float   lfo_value_[2];
 340:fx_engine.h   ****         T*      buffer_;
 341:fx_engine.h   ****         int32_t write_ptr_;
 342:fx_engine.h   **** 
 343:fx_engine.h   ****         float* lfo_phase_;
 344:fx_engine.h   ****         float* lfo_freq_;
 345:fx_engine.h   ****     };
 346:fx_engine.h   **** 
 347:fx_engine.h   ****     inline void SetLFOFrequency(LFOIndex index, float frequency)
 348:fx_engine.h   ****     {
 349:fx_engine.h   ****         lfo_freq_[index] = frequency; //* 32.f ?
 350:fx_engine.h   ****     }
 351:fx_engine.h   **** 
 352:fx_engine.h   ****     inline void Start(Context* c)
 353:fx_engine.h   ****     {
 354:fx_engine.h   ****         --write_ptr_;
 355:fx_engine.h   ****         if(write_ptr_ < 0)
 356:fx_engine.h   ****         {
 357:fx_engine.h   ****             write_ptr_ += size;
 358:fx_engine.h   ****         }
 359:fx_engine.h   ****         c->accumulator_   = 0.0f;
 360:fx_engine.h   ****         c->previous_read_ = 0.0f;
 361:fx_engine.h   ****         c->buffer_        = buffer_;
 244              		.loc 8 361 29 view .LVU62
 245 0008 4168     		ldr	r1, [r0, #4]
 246              	.LVL8:
 247              		.loc 8 361 29 view .LVU63
 248              	.LBE304:
 249              	.LBE303:
 250              	.LBE302:
  51:ensemble.h    ****     typedef E::Reserve<2047, E::Reserve<2047> > Memory;
 251              		.loc 7 51 8 view .LVU64
 252 000a 2DE9F04F 		push	{r4, r5, r6, r7, r8, r9, r10, fp, lr}
 253              		.cfi_def_cfa_offset 36
 254              		.cfi_offset 4, -36
 255              		.cfi_offset 5, -32
 256              		.cfi_offset 6, -28
 257              		.cfi_offset 7, -24
 258              		.cfi_offset 8, -20
 259              		.cfi_offset 9, -16
 260              		.cfi_offset 10, -12
 261              		.cfi_offset 11, -8
 262              		.cfi_offset 14, -4
 263 000e 03F1FF3E 		add	lr, r3, #-1
 264              	.LVL9:
  51:ensemble.h    ****     typedef E::Reserve<2047, E::Reserve<2047> > Memory;
ARM GAS  /var/folders/hl/qgbwny5j0fd895c2c41bk3tw0000gp/T//cctD4vl2.s 			page 20


 265              		.loc 7 51 8 view .LVU65
 266 0012 0468     		ldr	r4, [r0]
 267 0014 E34D     		ldr	r5, .L35
 268 0016 2DED048B 		vpush.64	{d8, d9}
 269              		.cfi_def_cfa_offset 52
 270              		.cfi_offset 80, -52
 271              		.cfi_offset 81, -48
 272              		.cfi_offset 82, -44
 273              		.cfi_offset 83, -40
 274              	.LVL10:
 275              	.L22:
 276              	.LBB737:
  58:ensemble.h    ****       engine_.Start(&c);
 277              		.loc 7 58 7 is_stmt 1 view .LVU66
 278              	.LBB309:
 279              	.LBI303:
 352:fx_engine.h   ****     {
 280              		.loc 8 352 17 view .LVU67
 281              	.LBB307:
 355:fx_engine.h   ****         {
 282              		.loc 8 355 9 is_stmt 0 view .LVU68
 283 001a 631E     		subs	r3, r4, #1
 284              	.LBE307:
 285              	.LBE309:
 286              	.LBB310:
 287              	.LBB311:
 288              	.LBB312:
 230:fx_engine.h   ****             }
 289              		.loc 8 230 57 view .LVU69
 290 001c 54BF     		ite	pl
 291 001e 1C46     		movpl	r4, r3
 292              	.LBE312:
 293              	.LBE311:
 294              	.LBE310:
 295              	.LBB359:
 296              	.LBB308:
 357:fx_engine.h   ****         }
 297              		.loc 8 357 24 view .LVU70
 298 0020 04F6FF74 		addwmi	r4, r4, #4095
 362:fx_engine.h   ****         c->write_ptr_     = write_ptr_;
 363:fx_engine.h   **** 
 364:fx_engine.h   ****         c->lfo_phase_ = lfo_phase_;
 365:fx_engine.h   ****         c->lfo_freq_  = lfo_freq_;
 366:fx_engine.h   **** 
 367:fx_engine.h   ****         if((write_ptr_ & 31) == 0)
 299              		.loc 8 367 9 view .LVU71
 300 0024 E306     		lsls	r3, r4, #27
 357:fx_engine.h   ****         }
 301              		.loc 8 357 24 view .LVU72
 302 0026 2746     		mov	r7, r4
 303              		.loc 8 367 9 view .LVU73
 304 0028 21D1     		bne	.L13
 305              	.LVL11:
 306              	.LBB305:
 307              	.LBI305:
 352:fx_engine.h   ****     {
 308              		.loc 8 352 17 is_stmt 1 view .LVU74
ARM GAS  /var/folders/hl/qgbwny5j0fd895c2c41bk3tw0000gp/T//cctD4vl2.s 			page 21


 309              	.LBB306:
 368:fx_engine.h   ****         {
 369:fx_engine.h   ****             lfo_phase_[0] += lfo_freq_[0];
 310              		.loc 8 369 27 is_stmt 0 view .LVU75
 311 002a 90ED027A 		vldr.32	s14, [r0, #8]
 370:fx_engine.h   ****             lfo_phase_[0]
 371:fx_engine.h   ****                 = lfo_phase_[0] >= 1.f ? lfo_phase_[0] - 1.f : lfo_phase_[0];
 312              		.loc 8 371 40 view .LVU76
 313 002e F7EE007A 		vmov.f32	s15, #1.0e+0
 369:fx_engine.h   ****             lfo_phase_[0]
 314              		.loc 8 369 27 view .LVU77
 315 0032 D0ED046A 		vldr.32	s13, [r0, #16]
 372:fx_engine.h   **** 
 373:fx_engine.h   ****             lfo_phase_[1] += lfo_freq_[1];
 316              		.loc 8 373 27 view .LVU78
 317 0036 90ED056A 		vldr.32	s12, [r0, #20]
 369:fx_engine.h   ****             lfo_phase_[0]
 318              		.loc 8 369 27 view .LVU79
 319 003a 37EE267A 		vadd.f32	s14, s14, s13
 374:fx_engine.h   ****             lfo_phase_[1]
 375:fx_engine.h   ****                 = lfo_phase_[1] >= 1.f ? lfo_phase_[1] - 1.f : lfo_phase_[1];
 320              		.loc 8 375 40 view .LVU80
 321 003e F7EE006A 		vmov.f32	s13, #1.0e+0
 371:fx_engine.h   **** 
 322              		.loc 8 371 40 view .LVU81
 323 0042 B4EEE77A 		vcmpe.f32	s14, s15
 324 0046 F1EE10FA 		vmrs	APSR_nzcv, FPSCR
 325 004a A8BF     		it	ge
 326 004c 37EE677A 		vsubge.f32	s14, s14, s15
 373:fx_engine.h   ****             lfo_phase_[1]
 327              		.loc 8 373 27 view .LVU82
 328 0050 D0ED037A 		vldr.32	s15, [r0, #12]
 329 0054 77EE867A 		vadd.f32	s15, s15, s12
 371:fx_engine.h   **** 
 330              		.loc 8 371 17 view .LVU83
 331 0058 80ED027A 		vstr.32	s14, [r0, #8]
 332              		.loc 8 375 40 view .LVU84
 333 005c F4EEE67A 		vcmpe.f32	s15, s13
 334 0060 F1EE10FA 		vmrs	APSR_nzcv, FPSCR
 335 0064 A8BF     		it	ge
 336 0066 77EEE67A 		vsubge.f32	s15, s15, s13
 337              		.loc 8 375 17 view .LVU85
 338 006a C0ED037A 		vstr.32	s15, [r0, #12]
 339              	.LVL12:
 340              	.L13:
 341              		.loc 8 375 17 view .LVU86
 342              	.LBE306:
 343              	.LBE305:
 344              	.LBE308:
 345              	.LBE359:
  59:ensemble.h    ****       float dry_amount = 1.0f - amount_ * 0.5f;
 346              		.loc 7 59 7 is_stmt 1 view .LVU87
  60:ensemble.h    ****     
  61:ensemble.h    ****       // Update LFO.
  62:ensemble.h    ****       phase_1_ += 1.57e-05f;
 347              		.loc 7 62 16 is_stmt 0 view .LVU88
 348 006e D0ED087A 		vldr.32	s15, [r0, #32]
ARM GAS  /var/folders/hl/qgbwny5j0fd895c2c41bk3tw0000gp/T//cctD4vl2.s 			page 22


  59:ensemble.h    ****       float dry_amount = 1.0f - amount_ * 0.5f;
 349              		.loc 7 59 13 view .LVU89
 350 0072 B7EE007A 		vmov.f32	s14, #1.0e+0
 351              		.loc 7 62 16 view .LVU90
 352 0076 9FEDCC6A 		vldr.32	s12, .L35+4
  59:ensemble.h    ****       float dry_amount = 1.0f - amount_ * 0.5f;
 353              		.loc 7 59 13 view .LVU91
 354 007a F6EE006A 		vmov.f32	s13, #5.0e-1
  59:ensemble.h    ****       float dry_amount = 1.0f - amount_ * 0.5f;
 355              		.loc 7 59 33 view .LVU92
 356 007e 90ED063A 		vldr.32	s6, [r0, #24]
 357              	.LBB360:
 358              	.LBB347:
 359              	.LBB335:
 230:fx_engine.h   ****             }
 360              		.loc 8 230 57 view .LVU93
 361 0082 C7F30B07 		ubfx	r7, r7, #0, #12
 362              	.LBE335:
 363              	.LBE347:
 364              	.LBE360:
 365              		.loc 7 62 16 view .LVU94
 366 0086 77EE867A 		vadd.f32	s15, s15, s12
  63:ensemble.h    ****       if (phase_1_ >= 1.0f) {
  64:ensemble.h    ****         phase_1_ -= 1.0f;
  65:ensemble.h    ****       }
  66:ensemble.h    ****       phase_2_ += 1.37e-04f;
 367              		.loc 7 66 16 view .LVU95
 368 008a 9FEDC86A 		vldr.32	s12, .L35+8
  59:ensemble.h    ****     
 369              		.loc 7 59 13 view .LVU96
 370 008e F0EE474A 		vmov.f32	s9, s14
 371              	.LBB361:
 372              	.LBB362:
 206:fx_engine.h   ****         }
 373              		.loc 8 206 26 view .LVU97
 374 0092 DFEDC73A 		vldr.32	s7, .L35+12
 375              	.LBE362:
 376              	.LBE361:
  67:ensemble.h    ****       if (phase_2_ >= 1.0f) {
  68:ensemble.h    ****         phase_2_ -= 1.0f;
  69:ensemble.h    ****       }
  70:ensemble.h    ****       int32_t phi_1 = (phase_1_ * 4096.0f);
  71:ensemble.h    ****       float slow_0 = lut_sine[phi_1 & 4095];
  72:ensemble.h    ****       float slow_120 = lut_sine[(phi_1 + 1365) & 4095];
  73:ensemble.h    ****       float slow_240 = lut_sine[(phi_1 + 2730) & 4095];
  74:ensemble.h    ****       int32_t phi_2 = (phase_2_ * 4096.0f);
  75:ensemble.h    ****       float fast_0 = lut_sine[phi_2 & 4095];
  76:ensemble.h    ****       float fast_120 = lut_sine[(phi_2 + 1365) & 4095];
  77:ensemble.h    ****       float fast_240 = lut_sine[(phi_2 + 2730) & 4095];
  78:ensemble.h    ****       
  79:ensemble.h    ****       float a = depth_ * 1.0f;
  80:ensemble.h    ****       float b = depth_ * 0.1f;
  81:ensemble.h    ****       
  82:ensemble.h    ****       float mod_1 = slow_0 * a + fast_0 * b;
  83:ensemble.h    ****       float mod_2 = slow_120 * a + fast_120 * b;
  84:ensemble.h    ****       float mod_3 = slow_240 * a + fast_240 * b;
  85:ensemble.h    ****     
ARM GAS  /var/folders/hl/qgbwny5j0fd895c2c41bk3tw0000gp/T//cctD4vl2.s 			page 23


  86:ensemble.h    ****       float wet = 0.0f;
  87:ensemble.h    ****     
  88:ensemble.h    ****       // Sum L & R channel to send to chorus line.
  89:ensemble.h    ****       c.Read(*left, 1.0f);
  90:ensemble.h    ****       c.Write(line_l, 0.0f);
  91:ensemble.h    ****       c.Read(*right, 1.0f);
  92:ensemble.h    ****       c.Write(line_r, 0.0f);
  93:ensemble.h    ****     
  94:ensemble.h    ****       c.Interpolate(line_l, mod_1 + 1024, 0.33f);
 377              		.loc 7 94 20 view .LVU98
 378 0096 9FEDC72A 		vldr.32	s4, .L35+16
 379              	.LBE737:
  57:ensemble.h    ****       engine_.Start(&c);
 380              		.loc 7 57 16 view .LVU99
 381 009a 0EF1FF3E 		add	lr, lr, #-1
 382              	.LVL13:
 383              	.LBB738:
  63:ensemble.h    ****         phase_1_ -= 1.0f;
 384              		.loc 7 63 7 view .LVU100
 385 009e F4EEC77A 		vcmpe.f32	s15, s14
  59:ensemble.h    ****     
 386              		.loc 7 59 13 view .LVU101
 387 00a2 E3EE664A 		vfms.f32	s9, s6, s13
 388              	.LVL14:
  62:ensemble.h    ****       if (phase_1_ >= 1.0f) {
 389              		.loc 7 62 7 is_stmt 1 view .LVU102
  63:ensemble.h    ****         phase_1_ -= 1.0f;
 390              		.loc 7 63 7 view .LVU103
  67:ensemble.h    ****         phase_2_ -= 1.0f;
 391              		.loc 7 67 7 is_stmt 0 view .LVU104
 392 00a6 F7EE006A 		vmov.f32	s13, #1.0e+0
  63:ensemble.h    ****         phase_1_ -= 1.0f;
 393              		.loc 7 63 7 view .LVU105
 394 00aa F1EE10FA 		vmrs	APSR_nzcv, FPSCR
  64:ensemble.h    ****       }
 395              		.loc 7 64 9 is_stmt 1 view .LVU106
  64:ensemble.h    ****       }
 396              		.loc 7 64 18 is_stmt 0 view .LVU107
 397 00ae A8BF     		it	ge
 398 00b0 77EEC77A 		vsubge.f32	s15, s15, s14
  66:ensemble.h    ****       if (phase_2_ >= 1.0f) {
 399              		.loc 7 66 16 view .LVU108
 400 00b4 90ED097A 		vldr.32	s14, [r0, #36]
 401 00b8 37EE067A 		vadd.f32	s14, s14, s12
  64:ensemble.h    ****       }
 402              		.loc 7 64 18 view .LVU109
 403 00bc C0ED087A 		vstr.32	s15, [r0, #32]
  66:ensemble.h    ****       if (phase_2_ >= 1.0f) {
 404              		.loc 7 66 7 is_stmt 1 view .LVU110
  67:ensemble.h    ****         phase_2_ -= 1.0f;
 405              		.loc 7 67 7 view .LVU111
 406 00c0 B4EEE67A 		vcmpe.f32	s14, s13
 407 00c4 F1EE10FA 		vmrs	APSR_nzcv, FPSCR
  68:ensemble.h    ****       }
 408              		.loc 7 68 9 view .LVU112
  70:ensemble.h    ****       float slow_0 = lut_sine[phi_1 & 4095];
 409              		.loc 7 70 7 view .LVU113
ARM GAS  /var/folders/hl/qgbwny5j0fd895c2c41bk3tw0000gp/T//cctD4vl2.s 			page 24


  68:ensemble.h    ****       }
 410              		.loc 7 68 18 is_stmt 0 view .LVU114
 411 00c8 A8BF     		it	ge
 412 00ca 37EE667A 		vsubge.f32	s14, s14, s13
  74:ensemble.h    ****       float fast_0 = lut_sine[phi_2 & 4095];
 413              		.loc 7 74 15 view .LVU115
 414 00ce F0EE476A 		vmov.f32	s13, s14
  68:ensemble.h    ****       }
 415              		.loc 7 68 18 view .LVU116
 416 00d2 80ED097A 		vstr.32	s14, [r0, #36]
  70:ensemble.h    ****       float slow_0 = lut_sine[phi_1 & 4095];
 417              		.loc 7 70 15 view .LVU117
 418 00d6 B0EE677A 		vmov.f32	s14, s15
  89:ensemble.h    ****       c.Write(line_l, 0.0f);
 419              		.loc 7 89 13 view .LVU118
 420 00da DCED001A 		vldr.32	s3, [ip]
  80:ensemble.h    ****       
 421              		.loc 7 80 13 view .LVU119
 422 00de DFEDB67A 		vldr.32	s15, .L35+20
  74:ensemble.h    ****       float fast_0 = lut_sine[phi_2 & 4095];
 423              		.loc 7 74 15 view .LVU120
 424 00e2 FEEECA6A 		vcvt.s32.f32	s13, s13, #12
 425              	.LBB364:
 426              	.LBB365:
 206:fx_engine.h   ****         }
 427              		.loc 8 206 26 view .LVU121
 428 00e6 D2ED000A 		vldr.32	s1, [r2]
 429              	.LBE365:
 430              	.LBE364:
  70:ensemble.h    ****       float slow_0 = lut_sine[phi_1 & 4095];
 431              		.loc 7 70 15 view .LVU122
 432 00ea BEEECA7A 		vcvt.s32.f32	s14, s14, #12
 433              	.LBB367:
 434              	.LBB363:
 206:fx_engine.h   ****         }
 435              		.loc 8 206 26 view .LVU123
 436 00ee 31EEA36A 		vadd.f32	s12, s3, s7
 437              	.LBE363:
 438              	.LBE367:
  74:ensemble.h    ****       float fast_0 = lut_sine[phi_2 & 4095];
 439              		.loc 7 74 15 view .LVU124
 440 00f2 16EE906A 		vmov	r6, s13	@ int
  79:ensemble.h    ****       float b = depth_ * 0.1f;
 441              		.loc 7 79 13 view .LVU125
 442 00f6 D0ED076A 		vldr.32	s13, [r0, #28]
  70:ensemble.h    ****       float slow_0 = lut_sine[phi_1 & 4095];
 443              		.loc 7 70 15 view .LVU126
 444 00fa 17EE103A 		vmov	r3, s14	@ int
 445              	.LVL15:
  71:ensemble.h    ****       float slow_120 = lut_sine[(phi_1 + 1365) & 4095];
 446              		.loc 7 71 7 is_stmt 1 view .LVU127
  72:ensemble.h    ****       float slow_240 = lut_sine[(phi_1 + 2730) & 4095];
 447              		.loc 7 72 7 view .LVU128
  73:ensemble.h    ****       int32_t phi_2 = (phase_2_ * 4096.0f);
 448              		.loc 7 73 7 view .LVU129
  74:ensemble.h    ****       float fast_0 = lut_sine[phi_2 & 4095];
 449              		.loc 7 74 7 view .LVU130
ARM GAS  /var/folders/hl/qgbwny5j0fd895c2c41bk3tw0000gp/T//cctD4vl2.s 			page 25


  75:ensemble.h    ****       float fast_120 = lut_sine[(phi_2 + 1365) & 4095];
 450              		.loc 7 75 7 view .LVU131
  76:ensemble.h    ****       float fast_240 = lut_sine[(phi_2 + 2730) & 4095];
 451              		.loc 7 76 7 view .LVU132
  77:ensemble.h    ****       
 452              		.loc 7 77 7 view .LVU133
  79:ensemble.h    ****       float b = depth_ * 0.1f;
 453              		.loc 7 79 7 view .LVU134
  80:ensemble.h    ****       
 454              		.loc 7 80 7 view .LVU135
  95:ensemble.h    ****       c.Interpolate(line_l, mod_2 + 1024, 0.33f);
  96:ensemble.h    ****       c.Interpolate(line_r, mod_3 + 1024, 0.33f);
  97:ensemble.h    ****       c.Write(wet, 0.0f);
  98:ensemble.h    ****       *left = wet * amount_ + *left * dry_amount;
 455              		.loc 7 98 37 is_stmt 0 view .LVU136
 456 00fe 61EEA41A 		vmul.f32	s3, s3, s9
  75:ensemble.h    ****       float fast_120 = lut_sine[(phi_2 + 1365) & 4095];
 457              		.loc 7 75 37 view .LVU137
 458 0102 C6F30B0B 		ubfx	fp, r6, #0, #12
  76:ensemble.h    ****       float fast_240 = lut_sine[(phi_2 + 2730) & 4095];
 459              		.loc 7 76 40 view .LVU138
 460 0106 06F25559 		addw	r9, r6, #1365
 461              	.LVL16:
  80:ensemble.h    ****       
 462              		.loc 7 80 13 view .LVU139
 463 010a 66EEA77A 		vmul.f32	s15, s13, s15
 464              	.LVL17:
  82:ensemble.h    ****       float mod_2 = slow_120 * a + fast_120 * b;
 465              		.loc 7 82 7 is_stmt 1 view .LVU140
  71:ensemble.h    ****       float slow_120 = lut_sine[(phi_1 + 1365) & 4095];
 466              		.loc 7 71 37 is_stmt 0 view .LVU141
 467 010e C3F30B0A 		ubfx	r10, r3, #0, #12
  75:ensemble.h    ****       float fast_120 = lut_sine[(phi_2 + 1365) & 4095];
 468              		.loc 7 75 13 view .LVU142
 469 0112 05EB8B0B 		add	fp, r5, fp, lsl #2
  76:ensemble.h    ****       float fast_240 = lut_sine[(phi_2 + 2730) & 4095];
 470              		.loc 7 76 48 view .LVU143
 471 0116 C9F30B09 		ubfx	r9, r9, #0, #12
 472              	.LVL18:
  72:ensemble.h    ****       float slow_240 = lut_sine[(phi_1 + 2730) & 4095];
 473              		.loc 7 72 40 view .LVU144
 474 011a 03F25558 		addw	r8, r3, #1365
 475              	.LVL19:
 476              	.LBB368:
 477              	.LBB366:
 206:fx_engine.h   ****         }
 478              		.loc 8 206 26 view .LVU145
 479 011e E6EE230A 		vfma.f32	s1, s12, s7
 480              	.LBE366:
 481              	.LBE368:
  82:ensemble.h    ****       float mod_2 = slow_120 * a + fast_120 * b;
 482              		.loc 7 82 41 view .LVU146
 483 0122 9BED007A 		vldr.32	s14, [fp]
  76:ensemble.h    ****       float fast_240 = lut_sine[(phi_2 + 2730) & 4095];
 484              		.loc 7 76 13 view .LVU147
 485 0126 05EB8909 		add	r9, r5, r9, lsl #2
  71:ensemble.h    ****       float slow_120 = lut_sine[(phi_1 + 1365) & 4095];
ARM GAS  /var/folders/hl/qgbwny5j0fd895c2c41bk3tw0000gp/T//cctD4vl2.s 			page 26


 486              		.loc 7 71 13 view .LVU148
 487 012a 05EB8A0A 		add	r10, r5, r10, lsl #2
  72:ensemble.h    ****       float slow_240 = lut_sine[(phi_1 + 2730) & 4095];
 488              		.loc 7 72 48 view .LVU149
 489 012e C8F30B08 		ubfx	r8, r8, #0, #12
 490              	.LVL20:
  83:ensemble.h    ****       float mod_3 = slow_240 * a + fast_240 * b;
 491              		.loc 7 83 45 view .LVU150
 492 0132 99ED005A 		vldr.32	s10, [r9]
  82:ensemble.h    ****       float mod_2 = slow_120 * a + fast_120 * b;
 493              		.loc 7 82 41 view .LVU151
 494 0136 27EE877A 		vmul.f32	s14, s15, s14
  82:ensemble.h    ****       float mod_2 = slow_120 * a + fast_120 * b;
 495              		.loc 7 82 13 view .LVU152
 496 013a DAED005A 		vldr.32	s11, [r10]
  72:ensemble.h    ****       float slow_240 = lut_sine[(phi_1 + 2730) & 4095];
 497              		.loc 7 72 13 view .LVU153
 498 013e 05EB8808 		add	r8, r5, r8, lsl #2
  83:ensemble.h    ****       float mod_3 = slow_240 * a + fast_240 * b;
 499              		.loc 7 83 45 view .LVU154
 500 0142 27EE855A 		vmul.f32	s10, s15, s10
 501              	.LBB369:
 502              	.LBB348:
 503              	.LBB336:
 504              	.LBB313:
 505              	.LBB314:
 109:fx_engine.h   ****     }
 506              		.loc 8 109 59 view .LVU155
 507 0146 47F6FF7A 		movw	r10, #32767
 508              	.LBE314:
 509              	.LBE313:
 510              	.LBE336:
 511              	.LBE348:
 512              	.LBE369:
  82:ensemble.h    ****       float mod_2 = slow_120 * a + fast_120 * b;
 513              		.loc 7 82 13 view .LVU156
 514 014a A5EEA67A 		vfma.f32	s14, s11, s13
 515              	.LVL21:
  83:ensemble.h    ****       float mod_3 = slow_240 * a + fast_240 * b;
 516              		.loc 7 83 7 is_stmt 1 view .LVU157
  83:ensemble.h    ****       float mod_3 = slow_240 * a + fast_240 * b;
 517              		.loc 7 83 13 is_stmt 0 view .LVU158
 518 014e D8ED005A 		vldr.32	s11, [r8]
 519              	.LBB370:
 520              	.LBB349:
 521              	.LBB337:
 522              	.LBB325:
 523              	.LBB315:
 109:fx_engine.h   ****     }
 524              		.loc 8 109 19 view .LVU159
 525 0152 B0EE464A 		vmov.f32	s8, s12
 526              	.LBE315:
 527              	.LBE325:
 528              	.LBE337:
 529              	.LBE349:
 530              	.LBE370:
  77:ensemble.h    ****       
ARM GAS  /var/folders/hl/qgbwny5j0fd895c2c41bk3tw0000gp/T//cctD4vl2.s 			page 27


 531              		.loc 7 77 40 view .LVU160
 532 0156 06F6AA26 		addw	r6, r6, #2730
 533              	.LVL22:
  83:ensemble.h    ****       float mod_3 = slow_240 * a + fast_240 * b;
 534              		.loc 7 83 13 view .LVU161
 535 015a A5EEA65A 		vfma.f32	s10, s11, s13
 536              	.LVL23:
  84:ensemble.h    ****     
 537              		.loc 7 84 7 is_stmt 1 view .LVU162
 538              	.LBB371:
 539              	.LBB350:
 540              	.LBB338:
 541              	.LBB326:
 542              	.LBB316:
 109:fx_engine.h   ****     }
 543              		.loc 8 109 59 is_stmt 0 view .LVU163
 544 015e DFF864B2 		ldr	fp, .L35+32
 545              	.LBE316:
 546              	.LBE326:
 547              	.LBE338:
 548              	.LBE350:
 549              	.LBE371:
 550              	.LBB372:
 551              	.LBB373:
 552              	.LBB374:
 553              	.LBB375:
 554              	.LBB376:
 109:fx_engine.h   ****     }
 555              		.loc 8 109 19 view .LVU164
 556 0162 F0EE605A 		vmov.f32	s11, s1
 557              	.LBE376:
 558              	.LBE375:
 559              	.LBE374:
 560              	.LBE373:
 561              	.LBE372:
  77:ensemble.h    ****       
 562              		.loc 7 77 48 view .LVU165
 563 0166 C6F30B06 		ubfx	r6, r6, #0, #12
 564              	.LVL24:
 565              	.LBB409:
 566              	.LBB351:
 567              	.LBB339:
 568              	.LBB327:
 569              	.LBB317:
 109:fx_engine.h   ****     }
 570              		.loc 8 109 19 view .LVU166
 571 016a BEEEE84A 		vcvt.s32.f32	s8, s8, #15
 572              	.LBE317:
 573              	.LBE327:
 574              	.LBE339:
 575              	.LBE351:
 576              	.LBE409:
  73:ensemble.h    ****       int32_t phi_2 = (phase_2_ * 4096.0f);
 577              		.loc 7 73 40 view .LVU167
 578 016e 03F6AA23 		addw	r3, r3, #2730
 579              	.LVL25:
  77:ensemble.h    ****       
ARM GAS  /var/folders/hl/qgbwny5j0fd895c2c41bk3tw0000gp/T//cctD4vl2.s 			page 28


 580              		.loc 7 77 13 view .LVU168
 581 0172 05EB8606 		add	r6, r5, r6, lsl #2
 582              	.LBB410:
 583              	.LBB401:
 584              	.LBB393:
 585              	.LBB385:
 586              	.LBB377:
 109:fx_engine.h   ****     }
 587              		.loc 8 109 19 view .LVU169
 588 0176 FEEEE85A 		vcvt.s32.f32	s11, s11, #15
 589              	.LBE377:
 590              	.LBE385:
 591              	.LBE393:
 592              	.LBE401:
 593              	.LBE410:
  73:ensemble.h    ****       int32_t phi_2 = (phase_2_ * 4096.0f);
 594              		.loc 7 73 48 view .LVU170
 595 017a C3F30B03 		ubfx	r3, r3, #0, #12
 596              	.LVL26:
 597              	.LBB411:
 598              	.LBB352:
 599              	.LBB340:
 600              	.LBB328:
 601              	.LBB318:
 109:fx_engine.h   ****     }
 602              		.loc 8 109 19 view .LVU171
 603 017e 14EE108A 		vmov	r8, s8	@ int
 604              	.LBE318:
 605              	.LBE328:
 606              	.LBE340:
 607              	.LBE352:
 608              	.LBE411:
  94:ensemble.h    ****       c.Interpolate(line_l, mod_2 + 1024, 0.33f);
 609              		.loc 7 94 20 view .LVU172
 610 0182 37EE027A 		vadd.f32	s14, s14, s4
 611              	.LVL27:
  84:ensemble.h    ****     
 612              		.loc 7 84 45 view .LVU173
 613 0186 96ED006A 		vldr.32	s12, [r6]
  73:ensemble.h    ****       int32_t phi_2 = (phase_2_ * 4096.0f);
 614              		.loc 7 73 13 view .LVU174
 615 018a 05EB8303 		add	r3, r5, r3, lsl #2
 616              	.LBB412:
 617              	.LBB402:
 618              	.LBB394:
 619              	.LBB386:
 620              	.LBB378:
 109:fx_engine.h   ****     }
 621              		.loc 8 109 19 view .LVU175
 622 018e 15EE909A 		vmov	r9, s11	@ int
 623              	.LBE378:
 624              	.LBE386:
 625              	.LBE394:
 626              	.LBE402:
 627              	.LBE412:
 628              	.LBB413:
 629              	.LBB353:
ARM GAS  /var/folders/hl/qgbwny5j0fd895c2c41bk3tw0000gp/T//cctD4vl2.s 			page 29


 630              	.LBB341:
 631              	.LBB329:
 632              	.LBB319:
 109:fx_engine.h   ****     }
 633              		.loc 8 109 59 view .LVU176
 634 0192 D045     		cmp	r8, r10
 635              	.LBE319:
 636              	.LBE329:
 637              	.LBE341:
 638              	.LBE353:
 639              	.LBE413:
 640              	.LBB414:
 641              	.LBB415:
 295:fx_engine.h   ****             float   offset_fractional
 642              		.loc 8 295 21 view .LVU177
 643 0194 FDEEC75A 		vcvt.s32.f32	s11, s14
 644              	.LBE415:
 645              	.LBE414:
 646              	.LBB453:
 647              	.LBB354:
 648              	.LBB342:
 649              	.LBB330:
 650              	.LBB320:
 109:fx_engine.h   ****     }
 651              		.loc 8 109 59 view .LVU178
 652 0198 A8BF     		it	ge
 653 019a D046     		movge	r8, r10
 654              	.LBE320:
 655              	.LBE330:
 656              	.LBE342:
 657              	.LBE354:
 658              	.LBE453:
 659              	.LBB454:
 660              	.LBB403:
 661              	.LBB395:
 662              	.LBB387:
 663              	.LBB379:
 664 019c D145     		cmp	r9, r10
 665              	.LBE379:
 666              	.LBE387:
 667              	.LBE395:
 668              	.LBE403:
 669              	.LBE454:
  95:ensemble.h    ****       c.Interpolate(line_r, mod_3 + 1024, 0.33f);
 670              		.loc 7 95 20 view .LVU179
 671 019e 35EE025A 		vadd.f32	s10, s10, s4
 672              	.LVL28:
 673              	.LBB455:
 674              	.LBB404:
 675              	.LBB396:
 676              	.LBB388:
 677              	.LBB380:
 109:fx_engine.h   ****     }
 678              		.loc 8 109 59 view .LVU180
 679 01a2 A8BF     		it	ge
 680 01a4 D146     		movge	r9, r10
 681              	.LBE380:
ARM GAS  /var/folders/hl/qgbwny5j0fd895c2c41bk3tw0000gp/T//cctD4vl2.s 			page 30


 682              	.LBE388:
 683              	.LBE396:
 684              	.LBE404:
 685              	.LBE455:
 686              	.LBB456:
 687              	.LBB436:
 300:fx_engine.h   ****             float b = DataType<format>::Decompress(
 688              		.loc 8 300 37 view .LVU181
 689 01a6 15EE906A 		vmov	r6, s11	@ int
 690              	.LBE436:
 691              	.LBE456:
 692              	.LBB457:
 693              	.LBB355:
 694              	.LBB343:
 695              	.LBB331:
 696              	.LBB321:
 109:fx_engine.h   ****     }
 697              		.loc 8 109 59 view .LVU182
 698 01aa D845     		cmp	r8, fp
 699              	.LBE321:
 700              	.LBE331:
 701              	.LBE343:
 702              	.LBE355:
 703              	.LBE457:
  84:ensemble.h    ****     
 704              		.loc 7 84 45 view .LVU183
 705 01ac 27EE866A 		vmul.f32	s12, s15, s12
 706              	.LBB458:
 707              	.LBB437:
 300:fx_engine.h   ****             float b = DataType<format>::Decompress(
 708              		.loc 8 300 37 view .LVU184
 709 01b0 2644     		add	r6, r4, r6
 710              	.LBE437:
 711              	.LBE458:
  84:ensemble.h    ****     
 712              		.loc 7 84 13 view .LVU185
 713 01b2 D3ED007A 		vldr.32	s15, [r3]
 714              	.LVL29:
 715              	.LBB459:
 716              	.LBB356:
 717              	.LBB344:
 718              	.LBB332:
 719              	.LBB322:
 109:fx_engine.h   ****     }
 720              		.loc 8 109 59 view .LVU186
 721 01b6 B8BF     		it	lt
 722 01b8 D846     		movlt	r8, fp
 723              	.LBE322:
 724              	.LBE332:
 725              	.LBE344:
 726              	.LBE356:
 727              	.LBE459:
 728              	.LBB460:
 729              	.LBB405:
 730              	.LBB397:
 230:fx_engine.h   ****             }
 731              		.loc 8 230 37 view .LVU187
ARM GAS  /var/folders/hl/qgbwny5j0fd895c2c41bk3tw0000gp/T//cctD4vl2.s 			page 31


 732 01ba 04F50063 		add	r3, r4, #2048
 733              	.LBB389:
 734              	.LBB381:
 109:fx_engine.h   ****     }
 735              		.loc 8 109 59 view .LVU188
 736 01be D945     		cmp	r9, fp
 737              	.LBE381:
 738              	.LBE389:
 739              	.LBE397:
 740              	.LBE405:
 741              	.LBE460:
 742              	.LBB461:
 743              	.LBB462:
 295:fx_engine.h   ****             float   offset_fractional
 744              		.loc 8 295 21 view .LVU189
 745 01c0 FDEEC52A 		vcvt.s32.f32	s5, s10
 746              	.LBE462:
 747              	.LBE461:
 748              	.LBB497:
 749              	.LBB357:
 750              	.LBB345:
 751              	.LBB333:
 752              	.LBB323:
 109:fx_engine.h   ****     }
 753              		.loc 8 109 59 view .LVU190
 754 01c4 21F81780 		strh	r8, [r1, r7, lsl #1]	@ movhi
 755              	.LBE323:
 756              	.LBE333:
 757              	.LBE345:
 758              	.LBE357:
 759              	.LBE497:
 760              	.LBB498:
 761              	.LBB438:
 302:fx_engine.h   ****             float x        = a + (b - a) * offset_fractional;
 762              		.loc 8 302 65 view .LVU191
 763 01c8 06F10107 		add	r7, r6, #1
 764              	.LBE438:
 765              	.LBE498:
 766              	.LBB499:
 767              	.LBB406:
 768              	.LBB398:
 769              	.LBB390:
 770              	.LBB382:
 109:fx_engine.h   ****     }
 771              		.loc 8 109 59 view .LVU192
 772 01cc B8BF     		it	lt
 773 01ce D946     		movlt	r9, fp
 774              	.LBE382:
 775              	.LBE390:
 230:fx_engine.h   ****             }
 776              		.loc 8 230 57 view .LVU193
 777 01d0 C3F30B03 		ubfx	r3, r3, #0, #12
 778              	.LBE398:
 779              	.LBE406:
 780              	.LBE499:
 781              	.LBB500:
 782              	.LBB439:
ARM GAS  /var/folders/hl/qgbwny5j0fd895c2c41bk3tw0000gp/T//cctD4vl2.s 			page 32


 302:fx_engine.h   ****             float x        = a + (b - a) * offset_fractional;
 783              		.loc 8 302 70 view .LVU194
 784 01d4 C7F30B07 		ubfx	r7, r7, #0, #12
 785              	.LBE439:
 786              	.LBE500:
  84:ensemble.h    ****     
 787              		.loc 7 84 13 view .LVU195
 788 01d8 A7EEA66A 		vfma.f32	s12, s15, s13
 789              	.LVL30:
  86:ensemble.h    ****     
 790              		.loc 7 86 7 is_stmt 1 view .LVU196
  89:ensemble.h    ****       c.Write(line_l, 0.0f);
 791              		.loc 7 89 7 view .LVU197
 792              	.LBB501:
 793              	.LBI361:
 204:fx_engine.h   ****         {
 794              		.loc 8 204 21 view .LVU198
 204:fx_engine.h   ****         {
 795              		.loc 8 204 21 is_stmt 0 view .LVU199
 796              	.LBE501:
  90:ensemble.h    ****       c.Read(*right, 1.0f);
 797              		.loc 7 90 7 is_stmt 1 view .LVU200
 798              	.LBB502:
 799              	.LBI310:
 236:fx_engine.h   ****         {
 800              		.loc 8 236 21 view .LVU201
 801              	.LBB358:
 802              	.LBI311:
 220:fx_engine.h   ****         {
 803              		.loc 8 220 21 view .LVU202
 804              	.LBB346:
 805              	.LBB334:
 806              	.LBI313:
 106:fx_engine.h   ****     {
 807              		.loc 8 106 21 view .LVU203
 808              	.LBB324:
 108:fx_engine.h   ****             Clip16(static_cast<int32_t>(value * 32768.0f)));
 809              		.loc 8 108 9 view .LVU204
 108:fx_engine.h   ****             Clip16(static_cast<int32_t>(value * 32768.0f)));
 810              		.loc 8 108 9 is_stmt 0 view .LVU205
 811              	.LBE324:
 812              	.LBE334:
 813              	.LBE346:
 814              	.LBE358:
 815              	.LBE502:
 816              	.LBE738:
  60:fx_engine.h   ****     {
 817              		.loc 8 60 5 is_stmt 1 view .LVU206
 818              	.LBB739:
  91:ensemble.h    ****       c.Write(line_r, 0.0f);
 819              		.loc 7 91 7 view .LVU207
 820              	.LBB503:
 821              	.LBI364:
 204:fx_engine.h   ****         {
 822              		.loc 8 204 21 view .LVU208
 204:fx_engine.h   ****         {
 823              		.loc 8 204 21 is_stmt 0 view .LVU209
ARM GAS  /var/folders/hl/qgbwny5j0fd895c2c41bk3tw0000gp/T//cctD4vl2.s 			page 33


 824              	.LBE503:
  92:ensemble.h    ****     
 825              		.loc 7 92 7 is_stmt 1 view .LVU210
 826              	.LBB504:
 827              	.LBI372:
 236:fx_engine.h   ****         {
 828              		.loc 8 236 21 view .LVU211
 829              	.LBB407:
 830              	.LBI373:
 220:fx_engine.h   ****         {
 831              		.loc 8 220 21 view .LVU212
 832              	.LBB399:
 833              	.LBB391:
 834              	.LBI375:
 106:fx_engine.h   ****     {
 835              		.loc 8 106 21 view .LVU213
 836              	.LBB383:
 108:fx_engine.h   ****             Clip16(static_cast<int32_t>(value * 32768.0f)));
 837              		.loc 8 108 9 view .LVU214
 108:fx_engine.h   ****             Clip16(static_cast<int32_t>(value * 32768.0f)));
 838              		.loc 8 108 9 is_stmt 0 view .LVU215
 839              	.LBE383:
 840              	.LBE391:
 841              	.LBE399:
 842              	.LBE407:
 843              	.LBE504:
 844              	.LBE739:
  60:fx_engine.h   ****     {
 845              		.loc 8 60 5 is_stmt 1 view .LVU216
 846              	.LBB740:
 847              	.LBB505:
 848              	.LBB408:
 849              	.LBB400:
 850              	.LBB392:
 851              	.LBB384:
 109:fx_engine.h   ****     }
 852              		.loc 8 109 59 is_stmt 0 view .LVU217
 853 01dc 21F81390 		strh	r9, [r1, r3, lsl #1]	@ movhi
 854              	.LVL31:
 109:fx_engine.h   ****     }
 855              		.loc 8 109 59 view .LVU218
 856              	.LBE384:
 857              	.LBE392:
 858              	.LBE400:
 859              	.LBE408:
 860              	.LBE505:
  94:ensemble.h    ****       c.Interpolate(line_l, mod_2 + 1024, 0.33f);
 861              		.loc 7 94 7 is_stmt 1 view .LVU219
 862              	.LBB506:
 863              	.LBI414:
 291:fx_engine.h   ****         {
 864              		.loc 8 291 21 view .LVU220
 865              	.LBB440:
 300:fx_engine.h   ****             float b = DataType<format>::Decompress(
 866              		.loc 8 300 66 is_stmt 0 view .LVU221
 867 01e0 C6F30B08 		ubfx	r8, r6, #0, #12
 868              	.LBB416:
ARM GAS  /var/folders/hl/qgbwny5j0fd895c2c41bk3tw0000gp/T//cctD4vl2.s 			page 34


 869              	.LBB417:
 103:fx_engine.h   ****     }
 870              		.loc 8 103 16 view .LVU222
 871 01e4 31F91730 		ldrsh	r3, [r1, r7, lsl #1]
 872              	.LBE417:
 873              	.LBE416:
 297:fx_engine.h   **** 
 874              		.loc 8 297 28 view .LVU223
 875 01e8 F8EEE55A 		vcvt.f32.s32	s11, s11
 876              	.LVL32:
 877              	.LBB423:
 878              	.LBB424:
 103:fx_engine.h   ****     }
 879              		.loc 8 103 16 view .LVU224
 880 01ec 31F91870 		ldrsh	r7, [r1, r8, lsl #1]
 881              	.LBE424:
 882              	.LBE423:
 883              	.LBE440:
 884              	.LBE506:
 885              	.LBE740:
  57:ensemble.h    ****       engine_.Start(&c);
 886              		.loc 7 57 16 view .LVU225
 887 01f0 BEF1FF3F 		cmp	lr, #-1
 888              	.LBB741:
 889              	.LBB507:
 890              	.LBB441:
 891              	.LBB428:
 892              	.LBB418:
 103:fx_engine.h   ****     }
 893              		.loc 8 103 16 view .LVU226
 894 01f4 07EE903A 		vmov	s15, r3	@ int
 895              	.LBE418:
 896              	.LBE428:
 897              	.LBE441:
 898              	.LBE507:
 899              	.LBB508:
 900              	.LBB481:
 300:fx_engine.h   ****             float b = DataType<format>::Decompress(
 901              		.loc 8 300 37 view .LVU227
 902 01f8 12EE903A 		vmov	r3, s5	@ int
 903              	.LBE481:
 904              	.LBE508:
 905              	.LBB509:
 906              	.LBB442:
 907              	.LBB429:
 908              	.LBB425:
 103:fx_engine.h   ****     }
 909              		.loc 8 103 16 view .LVU228
 910 01fc 04EE107A 		vmov	s8, r7	@ int
 911              	.LBE425:
 912              	.LBE429:
 913              	.LBB430:
 914              	.LBB419:
 103:fx_engine.h   ****     }
 915              		.loc 8 103 66 view .LVU229
 916 0200 DFED6E6A 		vldr.32	s13, .L35+24
 917              	.LVL33:
ARM GAS  /var/folders/hl/qgbwny5j0fd895c2c41bk3tw0000gp/T//cctD4vl2.s 			page 35


 103:fx_engine.h   ****     }
 918              		.loc 8 103 66 view .LVU230
 919              	.LBE419:
 920              	.LBE430:
 921              	.LBE442:
 922              	.LBE509:
 923              	.LBB510:
 924              	.LBB482:
 300:fx_engine.h   ****             float b = DataType<format>::Decompress(
 925              		.loc 8 300 37 view .LVU231
 926 0204 2344     		add	r3, r4, r3
 927              	.LBE482:
 928              	.LBE510:
  96:ensemble.h    ****       c.Write(wet, 0.0f);
 929              		.loc 7 96 20 view .LVU232
 930 0206 36EE026A 		vadd.f32	s12, s12, s4
 931              	.LVL34:
 932              	.LBB511:
 933              	.LBB443:
 934              	.LBB431:
 935              	.LBB420:
 103:fx_engine.h   ****     }
 936              		.loc 8 103 16 view .LVU233
 937 020a F8EEE77A 		vcvt.f32.s32	s15, s15
 938              	.LBE420:
 939              	.LBE431:
 940              	.LBE443:
 941              	.LBE511:
 942              	.LBB512:
 943              	.LBB483:
 302:fx_engine.h   ****             float x        = a + (b - a) * offset_fractional;
 944              		.loc 8 302 65 view .LVU234
 945 020e 03F10107 		add	r7, r3, #1
 946              	.LBE483:
 947              	.LBE512:
 948              	.LBB513:
 949              	.LBB444:
 950              	.LBB432:
 951              	.LBB426:
 103:fx_engine.h   ****     }
 952              		.loc 8 103 16 view .LVU235
 953 0212 B8EEC44A 		vcvt.f32.s32	s8, s8
 954              	.LBE426:
 955              	.LBE432:
 956              	.LBE444:
 957              	.LBE513:
 958              	.LBB514:
 959              	.LBB515:
 295:fx_engine.h   ****             float   offset_fractional
 960              		.loc 8 295 21 view .LVU236
 961 0216 BDEEC69A 		vcvt.s32.f32	s18, s12
 962              	.LBE515:
 963              	.LBE514:
 964              	.LBB552:
 965              	.LBB484:
 300:fx_engine.h   ****             float b = DataType<format>::Decompress(
 966              		.loc 8 300 66 view .LVU237
ARM GAS  /var/folders/hl/qgbwny5j0fd895c2c41bk3tw0000gp/T//cctD4vl2.s 			page 36


 967 021a C3F30B08 		ubfx	r8, r3, #0, #12
 302:fx_engine.h   ****             float x        = a + (b - a) * offset_fractional;
 968              		.loc 8 302 70 view .LVU238
 969 021e C7F30B07 		ubfx	r7, r7, #0, #12
 970              	.LBE484:
 971              	.LBE552:
 972              	.LBB553:
 973              	.LBB445:
 974              	.LBB433:
 975              	.LBB421:
 103:fx_engine.h   ****     }
 976              		.loc 8 103 66 view .LVU239
 977 0222 67EEA67A 		vmul.f32	s15, s15, s13
 978              	.LBE421:
 979              	.LBE433:
 980              	.LBE445:
 981              	.LBE553:
 982              	.LBB554:
 983              	.LBB485:
 984              	.LBB463:
 985              	.LBB464:
 103:fx_engine.h   ****     }
 986              		.loc 8 103 16 view .LVU240
 987 0226 31F91880 		ldrsh	r8, [r1, r8, lsl #1]
 988              	.LBE464:
 989              	.LBE463:
 990              	.LBE485:
 991              	.LBE554:
 992              	.LBB555:
 993              	.LBB446:
 296:fx_engine.h   ****                 = offset - static_cast<float>(offset_integral);
 994              		.loc 8 296 21 view .LVU241
 995 022a 77EE655A 		vsub.f32	s11, s14, s11
 996              	.LVL35:
 997              	.LBB434:
 998              	.LBI423:
 101:fx_engine.h   ****     {
 999              		.loc 8 101 25 is_stmt 1 view .LVU242
 1000              	.LBB427:
 103:fx_engine.h   ****     }
 1001              		.loc 8 103 9 view .LVU243
 103:fx_engine.h   ****     }
 1002              		.loc 8 103 9 is_stmt 0 view .LVU244
 1003              	.LBE427:
 1004              	.LBE434:
 1005              	.LBB435:
 1006              	.LBI416:
 101:fx_engine.h   ****     {
 1007              		.loc 8 101 25 is_stmt 1 view .LVU245
 1008              	.LBB422:
 103:fx_engine.h   ****     }
 1009              		.loc 8 103 9 view .LVU246
 103:fx_engine.h   ****     }
 1010              		.loc 8 103 9 is_stmt 0 view .LVU247
 1011              	.LBE422:
 1012              	.LBE435:
 1013              	.LBE446:
ARM GAS  /var/folders/hl/qgbwny5j0fd895c2c41bk3tw0000gp/T//cctD4vl2.s 			page 37


 1014              	.LBE555:
 1015              	.LBB556:
 1016              	.LBB486:
 1017              	.LBB468:
 1018              	.LBB469:
 103:fx_engine.h   ****     }
 1019              		.loc 8 103 16 view .LVU248
 1020 022e 31F91770 		ldrsh	r7, [r1, r7, lsl #1]
 1021              	.LBE469:
 1022              	.LBE468:
 297:fx_engine.h   **** 
 1023              		.loc 8 297 28 view .LVU249
 1024 0232 F8EEE22A 		vcvt.f32.s32	s5, s5
 1025              	.LBE486:
 1026              	.LBE556:
 1027              	.LBB557:
 1028              	.LBB447:
 303:fx_engine.h   ****             previous_read_ = x;
 1029              		.loc 8 303 37 view .LVU250
 1030 0236 E4EE667A 		vfms.f32	s15, s8, s13
 1031              	.LBE447:
 1032              	.LBE557:
 1033              	.LBB558:
 1034              	.LBB487:
 1035              	.LBB474:
 1036              	.LBB465:
 103:fx_engine.h   ****     }
 1037              		.loc 8 103 16 view .LVU251
 1038 023a 08EE908A 		vmov	s17, r8	@ int
 1039              	.LBE465:
 1040              	.LBE474:
 1041              	.LBB475:
 1042              	.LBB470:
 1043 023e 01EE107A 		vmov	s2, r7	@ int
 1044              	.LBE470:
 1045              	.LBE475:
 1046              	.LBE487:
 1047              	.LBE558:
 1048              	.LBB559:
 1049              	.LBB534:
 300:fx_engine.h   ****             float b = DataType<format>::Decompress(
 1050              		.loc 8 300 37 view .LVU252
 1051 0242 19EE107A 		vmov	r7, s18	@ int
 1052              	.LBE534:
 1053              	.LBE559:
 1054              	.LBB560:
 1055              	.LBB561:
 302:fx_engine.h   ****             float x        = a + (b - a) * offset_fractional;
 1056              		.loc 8 302 65 view .LVU253
 1057 0246 06F60108 		addw	r8, r6, #2049
 1058              	.LBE561:
 1059              	.LBE560:
 1060              	.LBB595:
 1061              	.LBB488:
 1062              	.LBB476:
 1063              	.LBB466:
 103:fx_engine.h   ****     }
ARM GAS  /var/folders/hl/qgbwny5j0fd895c2c41bk3tw0000gp/T//cctD4vl2.s 			page 38


 1064              		.loc 8 103 16 view .LVU254
 1065 024a F8EEE88A 		vcvt.f32.s32	s17, s17
 1066              	.LBE466:
 1067              	.LBE476:
 1068              	.LBE488:
 1069              	.LBE595:
 1070              	.LBB596:
 1071              	.LBB535:
 300:fx_engine.h   ****             float b = DataType<format>::Decompress(
 1072              		.loc 8 300 37 view .LVU255
 1073 024e 2744     		add	r7, r4, r7
 1074              	.LBE535:
 1075              	.LBE596:
 1076              	.LBB597:
 1077              	.LBB489:
 1078              	.LBB477:
 1079              	.LBB471:
 103:fx_engine.h   ****     }
 1080              		.loc 8 103 16 view .LVU256
 1081 0250 B8EEC11A 		vcvt.f32.s32	s2, s2
 1082              	.LBE471:
 1083              	.LBE477:
 1084              	.LBE489:
 1085              	.LBE597:
 1086              	.LBB598:
 1087              	.LBB580:
 302:fx_engine.h   ****             float x        = a + (b - a) * offset_fractional;
 1088              		.loc 8 302 70 view .LVU257
 1089 0254 C8F30B08 		ubfx	r8, r8, #0, #12
 300:fx_engine.h   ****             float b = DataType<format>::Decompress(
 1090              		.loc 8 300 55 view .LVU258
 1091 0258 06F50066 		add	r6, r6, #2048
 1092              	.LVL36:
 300:fx_engine.h   ****             float b = DataType<format>::Decompress(
 1093              		.loc 8 300 55 view .LVU259
 1094              	.LBE580:
 1095              	.LBE598:
 1096              	.LBB599:
 1097              	.LBB536:
 302:fx_engine.h   ****             float x        = a + (b - a) * offset_fractional;
 1098              		.loc 8 302 65 view .LVU260
 1099 025c 07F6010A 		addw	r10, r7, #2049
 300:fx_engine.h   ****             float b = DataType<format>::Decompress(
 1100              		.loc 8 300 55 view .LVU261
 1101 0260 07F50069 		add	r9, r7, #2048
 1102              	.LBE536:
 1103              	.LBE599:
 1104              	.LBB600:
 1105              	.LBB448:
 303:fx_engine.h   ****             previous_read_ = x;
 1106              		.loc 8 303 42 view .LVU262
 1107 0264 65EEA77A 		vmul.f32	s15, s11, s15
 1108              	.LBE448:
 1109              	.LBE600:
 1110              	.LBB601:
 1111              	.LBB581:
 1112              	.LBB562:
ARM GAS  /var/folders/hl/qgbwny5j0fd895c2c41bk3tw0000gp/T//cctD4vl2.s 			page 39


 1113              	.LBB563:
 103:fx_engine.h   ****     }
 1114              		.loc 8 103 16 view .LVU263
 1115 0268 31F91880 		ldrsh	r8, [r1, r8, lsl #1]
 1116              	.LBE563:
 1117              	.LBE562:
 1118              	.LBE581:
 1119              	.LBE601:
 1120              	.LBB602:
 1121              	.LBB537:
 302:fx_engine.h   ****             float x        = a + (b - a) * offset_fractional;
 1122              		.loc 8 302 70 view .LVU264
 1123 026c CAF30B0A 		ubfx	r10, r10, #0, #12
 1124              	.LBE537:
 1125              	.LBE602:
 1126              	.LBB603:
 1127              	.LBB490:
 1128              	.LBB478:
 1129              	.LBB472:
 103:fx_engine.h   ****     }
 1130              		.loc 8 103 66 view .LVU265
 1131 0270 21EE261A 		vmul.f32	s2, s2, s13
 1132              	.LBE472:
 1133              	.LBE478:
 1134              	.LBE490:
 1135              	.LBE603:
 1136              	.LBB604:
 1137              	.LBB538:
 300:fx_engine.h   ****             float b = DataType<format>::Decompress(
 1138              		.loc 8 300 66 view .LVU266
 1139 0274 C9F30B09 		ubfx	r9, r9, #0, #12
 1140              	.LBE538:
 1141              	.LBE604:
 1142              	.LBB605:
 1143              	.LBB582:
 1144 0278 C6F30B06 		ubfx	r6, r6, #0, #12
 1145              	.LVL37:
 300:fx_engine.h   ****             float b = DataType<format>::Decompress(
 1146              		.loc 8 300 66 view .LVU267
 1147              	.LBE582:
 1148              	.LBE605:
 1149              	.LBB606:
 1150              	.LBB539:
 1151              	.LBB516:
 1152              	.LBB517:
 103:fx_engine.h   ****     }
 1153              		.loc 8 103 16 view .LVU268
 1154 027c 31F91AA0 		ldrsh	r10, [r1, r10, lsl #1]
 1155              	.LBE517:
 1156              	.LBE516:
 1157              	.LBE539:
 1158              	.LBE606:
 1159              	.LBB607:
 1160              	.LBB449:
 303:fx_engine.h   ****             previous_read_ = x;
 1161              		.loc 8 303 19 view .LVU269
 1162 0280 E4EE267A 		vfma.f32	s15, s8, s13
ARM GAS  /var/folders/hl/qgbwny5j0fd895c2c41bk3tw0000gp/T//cctD4vl2.s 			page 40


 1163              	.LBE449:
 1164              	.LBE607:
 1165              	.LBB608:
 1166              	.LBB540:
 1167              	.LBB522:
 1168              	.LBB523:
 103:fx_engine.h   ****     }
 1169              		.loc 8 103 16 view .LVU270
 1170 0284 31F91990 		ldrsh	r9, [r1, r9, lsl #1]
 1171              	.LBE523:
 1172              	.LBE522:
 1173              	.LBE540:
 1174              	.LBE608:
 1175              	.LBB609:
 1176              	.LBB491:
 303:fx_engine.h   ****             previous_read_ = x;
 1177              		.loc 8 303 37 view .LVU271
 1178 0288 A8EEE61A 		vfms.f32	s2, s17, s13
 1179              	.LBE491:
 1180              	.LBE609:
 1181              	.LBB610:
 1182              	.LBB541:
 1183              	.LBB527:
 1184              	.LBB518:
 103:fx_engine.h   ****     }
 1185              		.loc 8 103 16 view .LVU272
 1186 028c 02EE10AA 		vmov	s4, r10	@ int
 1187              	.LBE518:
 1188              	.LBE527:
 1189              	.LBE541:
 1190              	.LBE610:
 1191              	.LBB611:
 1192              	.LBB583:
 1193              	.LBB568:
 1194              	.LBB564:
 1195 0290 07EE108A 		vmov	s14, r8	@ int
 1196              	.LVL38:
 103:fx_engine.h   ****     }
 1197              		.loc 8 103 16 view .LVU273
 1198              	.LBE564:
 1199              	.LBE568:
 1200              	.LBE583:
 1201              	.LBE611:
 1202              	.LBB612:
 1203              	.LBB542:
 1204              	.LBB528:
 1205              	.LBB524:
 1206 0294 08EE109A 		vmov	s16, r9	@ int
 1207              	.LBE524:
 1208              	.LBE528:
 1209              	.LBE542:
 1210              	.LBE612:
 1211              	.LBB613:
 1212              	.LBB584:
 1213              	.LBB569:
 1214              	.LBB570:
 1215 0298 31F91660 		ldrsh	r6, [r1, r6, lsl #1]
ARM GAS  /var/folders/hl/qgbwny5j0fd895c2c41bk3tw0000gp/T//cctD4vl2.s 			page 41


 1216              	.LBE570:
 1217              	.LBE569:
 1218              	.LBE584:
 1219              	.LBE613:
 1220              	.LBB614:
 1221              	.LBB543:
 1222              	.LBB529:
 1223              	.LBB519:
 1224 029c B8EEC22A 		vcvt.f32.s32	s4, s4
 1225              	.LVL39:
 103:fx_engine.h   ****     }
 1226              		.loc 8 103 16 view .LVU274
 1227              	.LBE519:
 1228              	.LBE529:
 1229              	.LBE543:
 1230              	.LBE614:
 1231              	.LBB615:
 1232              	.LBB450:
 305:fx_engine.h   ****         }
 1233              		.loc 8 305 31 view .LVU275
 1234 02a0 9FED474A 		vldr.32	s8, .L35+28
 1235              	.LVL40:
 305:fx_engine.h   ****         }
 1236              		.loc 8 305 31 view .LVU276
 1237              	.LBE450:
 1238              	.LBE615:
 1239              	.LBB616:
 1240              	.LBB492:
 296:fx_engine.h   ****                 = offset - static_cast<float>(offset_integral);
 1241              		.loc 8 296 21 view .LVU277
 1242 02a4 75EE622A 		vsub.f32	s5, s10, s5
 1243              	.LBE492:
 1244              	.LBE616:
 1245              	.LBB617:
 1246              	.LBB585:
 1247              	.LBB574:
 1248              	.LBB571:
 103:fx_engine.h   ****     }
 1249              		.loc 8 103 16 view .LVU278
 1250 02a8 00EE106A 		vmov	s0, r6	@ int
 1251              	.LBE571:
 1252              	.LBE574:
 1253              	.LBE585:
 1254              	.LBE617:
 1255              	.LBB618:
 1256              	.LBB544:
 1257              	.LBB530:
 1258              	.LBB525:
 1259 02ac B8EEC88A 		vcvt.f32.s32	s16, s16
 1260              	.LBE525:
 1261              	.LBE530:
 1262              	.LBE544:
 1263              	.LBE618:
 1264              	.LBB619:
 1265              	.LBB620:
 302:fx_engine.h   ****             float x        = a + (b - a) * offset_fractional;
 1266              		.loc 8 302 65 view .LVU279
ARM GAS  /var/folders/hl/qgbwny5j0fd895c2c41bk3tw0000gp/T//cctD4vl2.s 			page 42


 1267 02b0 03F60106 		addw	r6, r3, #2049
 1268              	.LBE620:
 1269              	.LBE619:
 1270              	.LBB655:
 1271              	.LBB545:
 1272              	.LBB531:
 1273              	.LBB520:
 103:fx_engine.h   ****     }
 1274              		.loc 8 103 66 view .LVU280
 1275 02b4 22EE262A 		vmul.f32	s4, s4, s13
 1276              	.LBE520:
 1277              	.LBE531:
 1278              	.LBE545:
 1279              	.LBE655:
 1280              	.LBB656:
 1281              	.LBB639:
 300:fx_engine.h   ****             float b = DataType<format>::Decompress(
 1282              		.loc 8 300 55 view .LVU281
 1283 02b8 03F50063 		add	r3, r3, #2048
 1284              	.LBE639:
 1285              	.LBE656:
 1286              	.LBB657:
 1287              	.LBB586:
 1288              	.LBB575:
 1289              	.LBB565:
 103:fx_engine.h   ****     }
 1290              		.loc 8 103 16 view .LVU282
 1291 02bc B8EEC77A 		vcvt.f32.s32	s14, s14
 1292              	.LBE565:
 1293              	.LBE575:
 1294              	.LBE586:
 1295              	.LBE657:
 1296              	.LBB658:
 1297              	.LBB640:
 302:fx_engine.h   ****             float x        = a + (b - a) * offset_fractional;
 1298              		.loc 8 302 70 view .LVU283
 1299 02c0 C6F30B06 		ubfx	r6, r6, #0, #12
 1300              	.LBE640:
 1301              	.LBE658:
 1302              	.LBB659:
 1303              	.LBB587:
 1304              	.LBB576:
 1305              	.LBB572:
 103:fx_engine.h   ****     }
 1306              		.loc 8 103 16 view .LVU284
 1307 02c4 B8EEC00A 		vcvt.f32.s32	s0, s0
 1308              	.LBE572:
 1309              	.LBE576:
 1310              	.LBE587:
 1311              	.LBE659:
 1312              	.LBB660:
 1313              	.LBB641:
 300:fx_engine.h   ****             float b = DataType<format>::Decompress(
 1314              		.loc 8 300 66 view .LVU285
 1315 02c8 C3F30B03 		ubfx	r3, r3, #0, #12
 1316              	.LBE641:
 1317              	.LBE660:
ARM GAS  /var/folders/hl/qgbwny5j0fd895c2c41bk3tw0000gp/T//cctD4vl2.s 			page 43


 1318              	.LBB661:
 1319              	.LBB546:
 303:fx_engine.h   ****             previous_read_ = x;
 1320              		.loc 8 303 37 view .LVU286
 1321 02cc A8EE662A 		vfms.f32	s4, s16, s13
 1322              	.LBE546:
 1323              	.LBE661:
 1324              	.LBB662:
 1325              	.LBB642:
 1326              	.LBB621:
 1327              	.LBB622:
 103:fx_engine.h   ****     }
 1328              		.loc 8 103 16 view .LVU287
 1329 02d0 31F91660 		ldrsh	r6, [r1, r6, lsl #1]
 1330              	.LBE622:
 1331              	.LBE621:
 1332              	.LBE642:
 1333              	.LBE662:
 1334              	.LBB663:
 1335              	.LBB493:
 303:fx_engine.h   ****             previous_read_ = x;
 1336              		.loc 8 303 42 view .LVU288
 1337 02d4 22EE811A 		vmul.f32	s2, s5, s2
 1338              	.LBE493:
 1339              	.LBE663:
 1340              	.LBB664:
 1341              	.LBB643:
 1342              	.LBB627:
 1343              	.LBB628:
 103:fx_engine.h   ****     }
 1344              		.loc 8 103 16 view .LVU289
 1345 02d8 31F91330 		ldrsh	r3, [r1, r3, lsl #1]
 1346              	.LBE628:
 1347              	.LBE627:
 1348              	.LBE643:
 1349              	.LBE664:
 1350              	.LBB665:
 1351              	.LBB547:
 297:fx_engine.h   **** 
 1352              		.loc 8 297 28 view .LVU290
 1353 02dc B8EEC99A 		vcvt.f32.s32	s18, s18
 1354              	.LBE547:
 1355              	.LBE665:
 1356              	.LBB666:
 1357              	.LBB644:
 1358              	.LBB632:
 1359              	.LBB623:
 103:fx_engine.h   ****     }
 1360              		.loc 8 103 16 view .LVU291
 1361 02e0 05EE106A 		vmov	s10, r6	@ int
 1362              	.LBE623:
 1363              	.LBE632:
 1364              	.LBE644:
 1365              	.LBE666:
 1366              	.LBB667:
 1367              	.LBB451:
 305:fx_engine.h   ****         }
ARM GAS  /var/folders/hl/qgbwny5j0fd895c2c41bk3tw0000gp/T//cctD4vl2.s 			page 44


 1368              		.loc 8 305 31 view .LVU292
 1369 02e4 67EE847A 		vmul.f32	s15, s15, s8
 1370              	.LVL41:
 305:fx_engine.h   ****         }
 1371              		.loc 8 305 31 view .LVU293
 1372              	.LBE451:
 1373              	.LBE667:
 1374              	.LBB668:
 1375              	.LBB669:
 302:fx_engine.h   ****             float x        = a + (b - a) * offset_fractional;
 1376              		.loc 8 302 65 view .LVU294
 1377 02e8 07F10106 		add	r6, r7, #1
 1378              	.LBE669:
 1379              	.LBE668:
 1380              	.LBB700:
 1381              	.LBB588:
 1382              	.LBB577:
 1383              	.LBB566:
 103:fx_engine.h   ****     }
 1384              		.loc 8 103 66 view .LVU295
 1385 02ec 27EE267A 		vmul.f32	s14, s14, s13
 1386              	.LBE566:
 1387              	.LBE577:
 1388              	.LBE588:
 1389              	.LBE700:
 1390              	.LBB701:
 1391              	.LBB688:
 300:fx_engine.h   ****             float b = DataType<format>::Decompress(
 1392              		.loc 8 300 66 view .LVU296
 1393 02f0 C7F30B07 		ubfx	r7, r7, #0, #12
 1394              	.LBE688:
 1395              	.LBE701:
 1396              	.LBB702:
 1397              	.LBB494:
 303:fx_engine.h   ****             previous_read_ = x;
 1398              		.loc 8 303 19 view .LVU297
 1399 02f4 A8EEA61A 		vfma.f32	s2, s17, s13
 1400              	.LBE494:
 1401              	.LBE702:
 1402              	.LBB703:
 1403              	.LBB452:
 305:fx_engine.h   ****         }
 1404              		.loc 8 305 26 view .LVU298
 1405 02f8 E0EEA37A 		vfma.f32	s15, s1, s7
 1406              	.LBE452:
 1407              	.LBE703:
 1408              	.LBB704:
 1409              	.LBB645:
 1410              	.LBB633:
 1411              	.LBB629:
 103:fx_engine.h   ****     }
 1412              		.loc 8 103 16 view .LVU299
 1413 02fc 00EE903A 		vmov	s1, r3	@ int
 1414              	.LVL42:
 103:fx_engine.h   ****     }
 1415              		.loc 8 103 16 view .LVU300
 1416              	.LBE629:
ARM GAS  /var/folders/hl/qgbwny5j0fd895c2c41bk3tw0000gp/T//cctD4vl2.s 			page 45


 1417              	.LBE633:
 1418              	.LBE645:
 1419              	.LBE704:
 1420              	.LBB705:
 1421              	.LBB548:
 296:fx_engine.h   ****                 = offset - static_cast<float>(offset_integral);
 1422              		.loc 8 296 21 view .LVU301
 1423 0300 36EE496A 		vsub.f32	s12, s12, s18
 1424              	.LVL43:
 296:fx_engine.h   ****                 = offset - static_cast<float>(offset_integral);
 1425              		.loc 8 296 21 view .LVU302
 1426              	.LBE548:
 1427              	.LBE705:
  95:ensemble.h    ****       c.Interpolate(line_r, mod_3 + 1024, 0.33f);
 1428              		.loc 7 95 7 is_stmt 1 view .LVU303
 1429              	.LBB706:
 1430              	.LBI461:
 291:fx_engine.h   ****         {
 1431              		.loc 8 291 21 view .LVU304
 1432              	.LBB495:
 1433              	.LBB479:
 1434              	.LBI463:
 101:fx_engine.h   ****     {
 1435              		.loc 8 101 25 view .LVU305
 1436              	.LBB467:
 103:fx_engine.h   ****     }
 1437              		.loc 8 103 9 view .LVU306
 103:fx_engine.h   ****     }
 1438              		.loc 8 103 9 is_stmt 0 view .LVU307
 1439              	.LBE467:
 1440              	.LBE479:
 1441              	.LBB480:
 1442              	.LBI468:
 101:fx_engine.h   ****     {
 1443              		.loc 8 101 25 is_stmt 1 view .LVU308
 1444              	.LBB473:
 103:fx_engine.h   ****     }
 1445              		.loc 8 103 9 view .LVU309
 103:fx_engine.h   ****     }
 1446              		.loc 8 103 9 is_stmt 0 view .LVU310
 1447              	.LBE473:
 1448              	.LBE480:
 1449              	.LBE495:
 1450              	.LBE706:
 1451              	.LBB707:
 1452              	.LBB689:
 302:fx_engine.h   ****             float x        = a + (b - a) * offset_fractional;
 1453              		.loc 8 302 70 view .LVU311
 1454 0304 C6F30B03 		ubfx	r3, r6, #0, #12
 1455              	.LBE689:
 1456              	.LBE707:
 1457              	.LBB708:
 1458              	.LBB589:
 303:fx_engine.h   ****             previous_read_ = x;
 1459              		.loc 8 303 37 view .LVU312
 1460 0308 A0EE667A 		vfms.f32	s14, s0, s13
 1461              	.LBE589:
ARM GAS  /var/folders/hl/qgbwny5j0fd895c2c41bk3tw0000gp/T//cctD4vl2.s 			page 46


 1462              	.LBE708:
 1463              	.LBB709:
 1464              	.LBB646:
 1465              	.LBB634:
 1466              	.LBB624:
 103:fx_engine.h   ****     }
 1467              		.loc 8 103 16 view .LVU313
 1468 030c B8EEC55A 		vcvt.f32.s32	s10, s10
 1469              	.LBE624:
 1470              	.LBE634:
 1471              	.LBE646:
 1472              	.LBE709:
 1473              	.LBB710:
 1474              	.LBB690:
 1475              	.LBB670:
 1476              	.LBB671:
 1477 0310 31F91330 		ldrsh	r3, [r1, r3, lsl #1]
 1478              	.LBE671:
 1479              	.LBE670:
 1480              	.LBE690:
 1481              	.LBE710:
 1482              	.LBB711:
 1483              	.LBB549:
 303:fx_engine.h   ****             previous_read_ = x;
 1484              		.loc 8 303 42 view .LVU314
 1485 0314 26EE022A 		vmul.f32	s4, s12, s4
 1486              	.LBE549:
 1487              	.LBE711:
 1488              	.LBB712:
 1489              	.LBB647:
 1490              	.LBB635:
 1491              	.LBB630:
 103:fx_engine.h   ****     }
 1492              		.loc 8 103 16 view .LVU315
 1493 0318 F8EEE00A 		vcvt.f32.s32	s1, s1
 1494              	.LBE630:
 1495              	.LBE635:
 1496              	.LBE647:
 1497              	.LBE712:
 1498              	.LBB713:
 1499              	.LBB496:
 305:fx_engine.h   ****         }
 1500              		.loc 8 305 26 view .LVU316
 1501 031c E1EE047A 		vfma.f32	s15, s2, s8
 1502              	.LVL44:
 305:fx_engine.h   ****         }
 1503              		.loc 8 305 26 view .LVU317
 1504              	.LBE496:
 1505              	.LBE713:
  96:ensemble.h    ****       c.Write(wet, 0.0f);
 1506              		.loc 7 96 7 is_stmt 1 view .LVU318
 1507              	.LBB714:
 1508              	.LBI514:
 291:fx_engine.h   ****         {
 1509              		.loc 8 291 21 view .LVU319
 1510              	.LBB550:
 1511              	.LBB532:
ARM GAS  /var/folders/hl/qgbwny5j0fd895c2c41bk3tw0000gp/T//cctD4vl2.s 			page 47


 1512              	.LBI522:
 101:fx_engine.h   ****     {
 1513              		.loc 8 101 25 view .LVU320
 1514              	.LBB526:
 103:fx_engine.h   ****     }
 1515              		.loc 8 103 9 view .LVU321
 103:fx_engine.h   ****     }
 1516              		.loc 8 103 9 is_stmt 0 view .LVU322
 1517              	.LBE526:
 1518              	.LBE532:
 1519              	.LBB533:
 1520              	.LBI516:
 101:fx_engine.h   ****     {
 1521              		.loc 8 101 25 is_stmt 1 view .LVU323
 1522              	.LBB521:
 103:fx_engine.h   ****     }
 1523              		.loc 8 103 9 view .LVU324
 103:fx_engine.h   ****     }
 1524              		.loc 8 103 9 is_stmt 0 view .LVU325
 1525              	.LBE521:
 1526              	.LBE533:
 303:fx_engine.h   ****             previous_read_ = x;
 1527              		.loc 8 303 19 view .LVU326
 1528 0320 A8EE262A 		vfma.f32	s4, s16, s13
 1529              	.LVL45:
 303:fx_engine.h   ****             previous_read_ = x;
 1530              		.loc 8 303 19 view .LVU327
 1531              	.LBE550:
 1532              	.LBE714:
 1533              	.LBB715:
 1534              	.LBB590:
 303:fx_engine.h   ****             previous_read_ = x;
 1535              		.loc 8 303 42 view .LVU328
 1536 0324 27EE257A 		vmul.f32	s14, s14, s11
 1537              	.LBE590:
 1538              	.LBE715:
 1539              	.LBB716:
 1540              	.LBB691:
 1541              	.LBB676:
 1542              	.LBB672:
 103:fx_engine.h   ****     }
 1543              		.loc 8 103 16 view .LVU329
 1544 0328 05EE903A 		vmov	s11, r3	@ int
 1545              	.LBE672:
 1546              	.LBE676:
 1547              	.LBE691:
 1548              	.LBE716:
 1549              	.LBB717:
 1550              	.LBB648:
 1551              	.LBB636:
 1552              	.LBB625:
 103:fx_engine.h   ****     }
 1553              		.loc 8 103 66 view .LVU330
 1554 032c 25EE265A 		vmul.f32	s10, s10, s13
 1555              	.LBE625:
 1556              	.LBE636:
 1557              	.LBE648:
ARM GAS  /var/folders/hl/qgbwny5j0fd895c2c41bk3tw0000gp/T//cctD4vl2.s 			page 48


 1558              	.LBE717:
 1559              	.LBB718:
 1560              	.LBB692:
 1561              	.LBB677:
 1562              	.LBB678:
 103:fx_engine.h   ****     }
 1563              		.loc 8 103 16 view .LVU331
 1564 0330 31F91730 		ldrsh	r3, [r1, r7, lsl #1]
 1565              	.LBE678:
 1566              	.LBE677:
 1567              	.LBB682:
 1568              	.LBB673:
 1569 0334 F8EEE55A 		vcvt.f32.s32	s11, s11
 1570              	.LBE673:
 1571              	.LBE682:
 1572              	.LBE692:
 1573              	.LBE718:
 1574              	.LBB719:
 1575              	.LBB591:
 303:fx_engine.h   ****             previous_read_ = x;
 1576              		.loc 8 303 19 view .LVU332
 1577 0338 A0EE267A 		vfma.f32	s14, s0, s13
 1578              	.LBE591:
 1579              	.LBE719:
 1580              	.LBB720:
 1581              	.LBB693:
 1582              	.LBB683:
 1583              	.LBB679:
 103:fx_engine.h   ****     }
 1584              		.loc 8 103 16 view .LVU333
 1585 033c 01EE103A 		vmov	s2, r3	@ int
 1586              	.LBE679:
 1587              	.LBE683:
 1588              	.LBE693:
 1589              	.LBE720:
 1590              	.LBB721:
 1591              	.LBB649:
 303:fx_engine.h   ****             previous_read_ = x;
 1592              		.loc 8 303 37 view .LVU334
 1593 0340 A0EEE65A 		vfms.f32	s10, s1, s13
 1594              	.LBE649:
 1595              	.LBE721:
 1596              	.LBB722:
 1597              	.LBB551:
 305:fx_engine.h   ****         }
 1598              		.loc 8 305 26 view .LVU335
 1599 0344 E2EE047A 		vfma.f32	s15, s4, s8
 1600              	.LVL46:
 305:fx_engine.h   ****         }
 1601              		.loc 8 305 26 view .LVU336
 1602              	.LBE551:
 1603              	.LBE722:
  97:ensemble.h    ****       *left = wet * amount_ + *left * dry_amount;
 1604              		.loc 7 97 7 is_stmt 1 view .LVU337
 1605              		.loc 7 98 7 view .LVU338
 1606              	.LBB723:
 1607              	.LBB694:
ARM GAS  /var/folders/hl/qgbwny5j0fd895c2c41bk3tw0000gp/T//cctD4vl2.s 			page 49


 1608              	.LBB684:
 1609              	.LBB680:
 103:fx_engine.h   ****     }
 1610              		.loc 8 103 16 is_stmt 0 view .LVU339
 1611 0348 B8EEC11A 		vcvt.f32.s32	s2, s2
 1612              	.LBE680:
 1613              	.LBE684:
 1614              	.LBB685:
 1615              	.LBB674:
 103:fx_engine.h   ****     }
 1616              		.loc 8 103 66 view .LVU340
 1617 034c 65EEA65A 		vmul.f32	s11, s11, s13
 1618              	.LBE674:
 1619              	.LBE685:
 1620              	.LBE694:
 1621              	.LBE723:
 1622              	.LBB724:
 1623              	.LBB592:
 305:fx_engine.h   ****         }
 1624              		.loc 8 305 31 view .LVU341
 1625 0350 27EE047A 		vmul.f32	s14, s14, s8
 1626              	.LBE592:
 1627              	.LBE724:
 1628              	.LBB725:
 1629              	.LBB695:
 303:fx_engine.h   ****             previous_read_ = x;
 1630              		.loc 8 303 37 view .LVU342
 1631 0354 E1EE665A 		vfms.f32	s11, s2, s13
 1632              	.LBE695:
 1633              	.LBE725:
 1634              	.LBB726:
 1635              	.LBB650:
 303:fx_engine.h   ****             previous_read_ = x;
 1636              		.loc 8 303 42 view .LVU343
 1637 0358 25EE225A 		vmul.f32	s10, s10, s5
 1638              	.LBE650:
 1639              	.LBE726:
 1640              	.LBB727:
 1641              	.LBB593:
 305:fx_engine.h   ****         }
 1642              		.loc 8 305 26 view .LVU344
 1643 035c A7EEA37A 		vfma.f32	s14, s15, s7
 1644              	.LBE593:
 1645              	.LBE727:
 1646              		.loc 7 98 29 view .LVU345
 1647 0360 E3EE271A 		vfma.f32	s3, s6, s15
 1648              	.LBB728:
 1649              	.LBB651:
 303:fx_engine.h   ****             previous_read_ = x;
 1650              		.loc 8 303 19 view .LVU346
 1651 0364 A0EEA65A 		vfma.f32	s10, s1, s13
 1652              	.LBE651:
 1653              	.LBE728:
 1654              	.LBB729:
 1655              	.LBB696:
 303:fx_engine.h   ****             previous_read_ = x;
 1656              		.loc 8 303 42 view .LVU347
ARM GAS  /var/folders/hl/qgbwny5j0fd895c2c41bk3tw0000gp/T//cctD4vl2.s 			page 50


 1657 0368 25EE866A 		vmul.f32	s12, s11, s12
 1658              	.LBE696:
 1659              	.LBE729:
 1660              	.LBB730:
 1661              	.LBB652:
 305:fx_engine.h   ****         }
 1662              		.loc 8 305 26 view .LVU348
 1663 036c F0EE477A 		vmov.f32	s15, s14
 1664              	.LVL47:
 305:fx_engine.h   ****         }
 1665              		.loc 8 305 26 view .LVU349
 1666              	.LBE652:
 1667              	.LBE730:
 1668              	.LBB731:
 1669              	.LBB697:
 303:fx_engine.h   ****             previous_read_ = x;
 1670              		.loc 8 303 19 view .LVU350
 1671 0370 A1EE266A 		vfma.f32	s12, s2, s13
 1672              	.LBE697:
 1673              	.LBE731:
 1674              		.loc 7 98 13 view .LVU351
 1675 0374 ECEC011A 		vstmia.32	ip!, {s3}
 1676              	.LVL48:
  99:ensemble.h    ****       
 100:ensemble.h    ****       c.Interpolate(line_r, mod_1 + 1024, 0.33f);
 1677              		.loc 7 100 7 is_stmt 1 view .LVU352
 1678              	.LBB732:
 1679              	.LBI560:
 291:fx_engine.h   ****         {
 1680              		.loc 8 291 21 view .LVU353
 1681              	.LBB594:
 1682              	.LBB578:
 1683              	.LBI569:
 101:fx_engine.h   ****     {
 1684              		.loc 8 101 25 view .LVU354
 1685              	.LBB573:
 103:fx_engine.h   ****     }
 1686              		.loc 8 103 9 view .LVU355
 103:fx_engine.h   ****     }
 1687              		.loc 8 103 9 is_stmt 0 view .LVU356
 1688              	.LBE573:
 1689              	.LBE578:
 1690              	.LBB579:
 1691              	.LBI562:
 101:fx_engine.h   ****     {
 1692              		.loc 8 101 25 is_stmt 1 view .LVU357
 1693              	.LBB567:
 103:fx_engine.h   ****     }
 1694              		.loc 8 103 9 view .LVU358
 103:fx_engine.h   ****     }
 1695              		.loc 8 103 9 is_stmt 0 view .LVU359
 1696              	.LBE567:
 1697              	.LBE579:
 1698              	.LBE594:
 1699              	.LBE732:
 101:ensemble.h    ****       c.Interpolate(line_r, mod_2 + 1024, 0.33f);
 1700              		.loc 7 101 7 is_stmt 1 view .LVU360
ARM GAS  /var/folders/hl/qgbwny5j0fd895c2c41bk3tw0000gp/T//cctD4vl2.s 			page 51


 1701              	.LBB733:
 1702              	.LBI619:
 291:fx_engine.h   ****         {
 1703              		.loc 8 291 21 view .LVU361
 1704              	.LBB653:
 1705              	.LBB637:
 1706              	.LBI627:
 101:fx_engine.h   ****     {
 1707              		.loc 8 101 25 view .LVU362
 1708              	.LBB631:
 103:fx_engine.h   ****     }
 1709              		.loc 8 103 9 view .LVU363
 103:fx_engine.h   ****     }
 1710              		.loc 8 103 9 is_stmt 0 view .LVU364
 1711              	.LBE631:
 1712              	.LBE637:
 1713              	.LBB638:
 1714              	.LBI621:
 101:fx_engine.h   ****     {
 1715              		.loc 8 101 25 is_stmt 1 view .LVU365
 1716              	.LBB626:
 103:fx_engine.h   ****     }
 1717              		.loc 8 103 9 view .LVU366
 103:fx_engine.h   ****     }
 1718              		.loc 8 103 9 is_stmt 0 view .LVU367
 1719              	.LBE626:
 1720              	.LBE638:
 1721              	.LBE653:
 1722              	.LBE733:
 102:ensemble.h    ****       c.Interpolate(line_l, mod_3 + 1024, 0.33f);
 103:ensemble.h    ****       c.Write(wet, 0.0f);
 104:ensemble.h    ****       *right = wet * amount_ + *right * dry_amount;
 1723              		.loc 7 104 39 view .LVU368
 1724 0378 D2ED005A 		vldr.32	s11, [r2]
 1725              	.LBB734:
 1726              	.LBB654:
 305:fx_engine.h   ****         }
 1727              		.loc 8 305 26 view .LVU369
 1728 037c E5EE047A 		vfma.f32	s15, s10, s8
 1729              	.LVL49:
 305:fx_engine.h   ****         }
 1730              		.loc 8 305 26 view .LVU370
 1731              	.LBE654:
 1732              	.LBE734:
 102:ensemble.h    ****       c.Interpolate(line_l, mod_3 + 1024, 0.33f);
 1733              		.loc 7 102 7 is_stmt 1 view .LVU371
 1734              	.LBB735:
 1735              	.LBI668:
 291:fx_engine.h   ****         {
 1736              		.loc 8 291 21 view .LVU372
 1737              	.LBB698:
 1738              	.LBB686:
 1739              	.LBI677:
 101:fx_engine.h   ****     {
 1740              		.loc 8 101 25 view .LVU373
 1741              	.LBB681:
 103:fx_engine.h   ****     }
ARM GAS  /var/folders/hl/qgbwny5j0fd895c2c41bk3tw0000gp/T//cctD4vl2.s 			page 52


 1742              		.loc 8 103 9 view .LVU374
 103:fx_engine.h   ****     }
 1743              		.loc 8 103 9 is_stmt 0 view .LVU375
 1744              	.LBE681:
 1745              	.LBE686:
 1746              	.LBB687:
 1747              	.LBI670:
 101:fx_engine.h   ****     {
 1748              		.loc 8 101 25 is_stmt 1 view .LVU376
 1749              	.LBB675:
 103:fx_engine.h   ****     }
 1750              		.loc 8 103 9 view .LVU377
 103:fx_engine.h   ****     }
 1751              		.loc 8 103 9 is_stmt 0 view .LVU378
 1752              	.LBE675:
 1753              	.LBE687:
 1754              	.LBE698:
 1755              	.LBE735:
 1756              		.loc 7 104 30 view .LVU379
 1757 0380 90ED067A 		vldr.32	s14, [r0, #24]
 1758              		.loc 7 104 39 view .LVU380
 1759 0384 64EEA54A 		vmul.f32	s9, s9, s11
 1760              	.LVL50:
 1761              	.LBB736:
 1762              	.LBB699:
 305:fx_engine.h   ****         }
 1763              		.loc 8 305 26 view .LVU381
 1764 0388 E6EE047A 		vfma.f32	s15, s12, s8
 1765              	.LVL51:
 305:fx_engine.h   ****         }
 1766              		.loc 8 305 26 view .LVU382
 1767              	.LBE699:
 1768              	.LBE736:
 103:ensemble.h    ****       *right = wet * amount_ + *right * dry_amount;
 1769              		.loc 7 103 7 is_stmt 1 view .LVU383
 1770              		.loc 7 104 7 view .LVU384
 1771              		.loc 7 104 30 is_stmt 0 view .LVU385
 1772 038c E7EE274A 		vfma.f32	s9, s14, s15
 1773              		.loc 7 104 14 view .LVU386
 1774 0390 E2EC014A 		vstmia.32	r2!, {s9}
 1775              	.LVL52:
 105:ensemble.h    ****       left++;
 1776              		.loc 7 105 7 is_stmt 1 view .LVU387
 106:ensemble.h    ****       right++;
 1777              		.loc 7 106 7 view .LVU388
 1778              		.loc 7 106 7 is_stmt 0 view .LVU389
 1779              	.LBE741:
  57:ensemble.h    ****       engine_.Start(&c);
 1780              		.loc 7 57 5 is_stmt 1 view .LVU390
  57:ensemble.h    ****       engine_.Start(&c);
 1781              		.loc 7 57 16 view .LVU391
  57:ensemble.h    ****       engine_.Start(&c);
 1782              		.loc 7 57 16 is_stmt 0 view .LVU392
 1783 0394 7FF441AE 		bne	.L22
 1784 0398 0460     		str	r4, [r0]
 1785              	.LVL53:
 1786              	.LBB742:
ARM GAS  /var/folders/hl/qgbwny5j0fd895c2c41bk3tw0000gp/T//cctD4vl2.s 			page 53


 1787              	.LBI742:
 200:fx_engine.h   **** 
 1788              		.loc 8 200 9 is_stmt 1 view .LVU393
 200:fx_engine.h   **** 
 1789              		.loc 8 200 9 is_stmt 0 view .LVU394
 1790              	.LBE742:
 107:ensemble.h    ****     }
 108:ensemble.h    ****   }
 1791              		.loc 7 108 3 view .LVU395
 1792 039a BDEC048B 		vldm	sp!, {d8-d9}
 1793              		.cfi_restore 82
 1794              		.cfi_restore 83
 1795              		.cfi_restore 80
 1796              		.cfi_restore 81
 1797              		.cfi_def_cfa_offset 36
 1798              	.LVL54:
 1799              		.loc 7 108 3 view .LVU396
 1800 039e BDE8F08F 		pop	{r4, r5, r6, r7, r8, r9, r10, fp, pc}
 1801              	.LVL55:
 1802              	.L30:
 1803              		.cfi_def_cfa_offset 0
 1804              		.cfi_restore 4
 1805              		.cfi_restore 5
 1806              		.cfi_restore 6
 1807              		.cfi_restore 7
 1808              		.cfi_restore 8
 1809              		.cfi_restore 9
 1810              		.cfi_restore 10
 1811              		.cfi_restore 11
 1812              		.cfi_restore 14
 1813              		.loc 7 108 3 view .LVU397
 1814 03a2 7047     		bx	lr
 1815              	.L36:
 1816              		.align	2
 1817              	.L35:
 1818 03a4 00000000 		.word	_ZN7daisysp8lut_sineE
 1819 03a8 7EB38337 		.word	931378046
 1820 03ac A8A70F39 		.word	957327272
 1821 03b0 00000000 		.word	0
 1822 03b4 00008044 		.word	1149239296
 1823 03b8 CDCCCC3D 		.word	1036831949
 1824 03bc 00000038 		.word	939524096
 1825 03c0 C3F5A83E 		.word	1051260355
 1826 03c4 0080FFFF 		.word	-32768
 1827              		.cfi_endproc
 1828              	.LFE4827:
 1830              		.section	.text._Z13AudioCallbackPKPKfPPfj,"ax",%progbits
 1831              		.align	1
 1832              		.p2align 2,,3
 1833              		.global	_Z13AudioCallbackPKPKfPPfj
 1834              		.syntax unified
 1835              		.thumb
 1836              		.thumb_func
 1837              		.fpu fpv5-d16
 1839              	_Z13AudioCallbackPKPKfPPfj:
 1840              	.LVL56:
 1841              	.LFB4830:
ARM GAS  /var/folders/hl/qgbwny5j0fd895c2c41bk3tw0000gp/T//cctD4vl2.s 			page 54


 1842              		.file 9 "test.cpp"
   1:test.cpp      **** #include "daisy_seed.h"
   2:test.cpp      **** #include "daisysp.h"
   3:test.cpp      **** #include "ensemble.h"
   4:test.cpp      **** 
   5:test.cpp      **** using namespace daisy;
   6:test.cpp      **** using namespace daisysp;
   7:test.cpp      **** using namespace seed;
   8:test.cpp      **** 
   9:test.cpp      **** DaisySeed				hw;
  10:test.cpp      **** Oscillator				osc_a,osc_b,osc_c; 
  11:test.cpp      **** Ensemble				ens;
  12:test.cpp      **** 
  13:test.cpp      **** uint16_t reverb_buffer[65536];
  14:test.cpp      **** 
  15:test.cpp      **** enum AdcChannel {
  16:test.cpp      ****    pot1 = 0,
  17:test.cpp      ****    pot2,
  18:test.cpp      ****    pot3,
  19:test.cpp      ****    pot4,
  20:test.cpp      ****    pot5,
  21:test.cpp      ****    NUM_ADC_CHANNELS
  22:test.cpp      **** };
  23:test.cpp      **** 
  24:test.cpp      **** void AudioCallback(AudioHandle::InputBuffer in, AudioHandle::OutputBuffer out, size_t size)
  25:test.cpp      **** {
 1843              		.loc 9 25 1 is_stmt 1 view -0
 1844              		.cfi_startproc
 1845              		@ args = 0, pretend = 0, frame = 8
 1846              		@ frame_needed = 0, uses_anonymous_args = 0
  26:test.cpp      **** 	float coarse_knob = hw.adc.GetFloat(pot1); 
 1847              		.loc 9 26 2 view .LVU399
  25:test.cpp      **** 	float coarse_knob = hw.adc.GetFloat(pot1); 
 1848              		.loc 9 25 1 is_stmt 0 view .LVU400
 1849 0000 F0B5     		push	{r4, r5, r6, r7, lr}
 1850              		.cfi_def_cfa_offset 20
 1851              		.cfi_offset 4, -20
 1852              		.cfi_offset 5, -16
 1853              		.cfi_offset 6, -12
 1854              		.cfi_offset 7, -8
 1855              		.cfi_offset 14, -4
 1856 0002 2DED088B 		vpush.64	{d8, d9, d10, d11}
 1857              		.cfi_def_cfa_offset 52
 1858              		.cfi_offset 80, -52
 1859              		.cfi_offset 81, -48
 1860              		.cfi_offset 82, -44
 1861              		.cfi_offset 83, -40
 1862              		.cfi_offset 84, -36
 1863              		.cfi_offset 85, -32
 1864              		.cfi_offset 86, -28
 1865              		.cfi_offset 87, -24
 1866              	.LBB743:
 1867              	.LBB744:
 1868              		.file 10 "../../DaisySP//Source/Utility/dsp.h"
   1:../../DaisySP//Source/Utility/dsp.h **** /** Helpful defines, functions, and other utilities for use in/with daisysp modules.
   2:../../DaisySP//Source/Utility/dsp.h **** */
   3:../../DaisySP//Source/Utility/dsp.h **** #pragma once
ARM GAS  /var/folders/hl/qgbwny5j0fd895c2c41bk3tw0000gp/T//cctD4vl2.s 			page 55


   4:../../DaisySP//Source/Utility/dsp.h **** #ifndef DSY_CORE_DSP
   5:../../DaisySP//Source/Utility/dsp.h **** #define DSY_CORE_DSP
   6:../../DaisySP//Source/Utility/dsp.h **** #include <cassert>
   7:../../DaisySP//Source/Utility/dsp.h **** #include <cstdint>
   8:../../DaisySP//Source/Utility/dsp.h **** #include <random>
   9:../../DaisySP//Source/Utility/dsp.h **** #include <cmath>
  10:../../DaisySP//Source/Utility/dsp.h **** 
  11:../../DaisySP//Source/Utility/dsp.h **** /** PIs
  12:../../DaisySP//Source/Utility/dsp.h **** */
  13:../../DaisySP//Source/Utility/dsp.h **** #define PI_F 3.1415927410125732421875f
  14:../../DaisySP//Source/Utility/dsp.h **** #define TWOPI_F (2.0f * PI_F)
  15:../../DaisySP//Source/Utility/dsp.h **** #define HALFPI_F (PI_F * 0.5f)
  16:../../DaisySP//Source/Utility/dsp.h **** #define DSY_MIN(in, mn) (in < mn ? in : mn)
  17:../../DaisySP//Source/Utility/dsp.h **** #define DSY_MAX(in, mx) (in > mx ? in : mx)
  18:../../DaisySP//Source/Utility/dsp.h **** #define DSY_CLAMP(in, mn, mx) (DSY_MIN(DSY_MAX(in, mn), mx))
  19:../../DaisySP//Source/Utility/dsp.h **** #define DSY_COUNTOF(_arr) (sizeof(_arr) / sizeof(_arr[0]))
  20:../../DaisySP//Source/Utility/dsp.h **** 
  21:../../DaisySP//Source/Utility/dsp.h **** namespace daisysp
  22:../../DaisySP//Source/Utility/dsp.h **** {
  23:../../DaisySP//Source/Utility/dsp.h **** //Avoids division for random floats. e.g. rand() * kRandFrac
  24:../../DaisySP//Source/Utility/dsp.h **** static constexpr float kRandFrac = 1.f / (float)RAND_MAX;
  25:../../DaisySP//Source/Utility/dsp.h **** 
  26:../../DaisySP//Source/Utility/dsp.h **** //Convert from semitones to other units. e.g. 2 ^ (kOneTwelfth * x)
  27:../../DaisySP//Source/Utility/dsp.h **** static constexpr float kOneTwelfth = 1.f / 12.f;
  28:../../DaisySP//Source/Utility/dsp.h **** 
  29:../../DaisySP//Source/Utility/dsp.h **** /** efficient floating point min/max
  30:../../DaisySP//Source/Utility/dsp.h **** c/o stephen mccaul
  31:../../DaisySP//Source/Utility/dsp.h **** */
  32:../../DaisySP//Source/Utility/dsp.h **** inline float fmax(float a, float b)
  33:../../DaisySP//Source/Utility/dsp.h **** {
  34:../../DaisySP//Source/Utility/dsp.h ****     float r;
  35:../../DaisySP//Source/Utility/dsp.h **** #ifdef __arm__
  36:../../DaisySP//Source/Utility/dsp.h ****     asm("vmaxnm.f32 %[d], %[n], %[m]" : [d] "=t"(r) : [n] "t"(a), [m] "t"(b) :);
  37:../../DaisySP//Source/Utility/dsp.h **** #else
  38:../../DaisySP//Source/Utility/dsp.h ****     r = (a > b) ? a : b;
  39:../../DaisySP//Source/Utility/dsp.h **** #endif // __arm__
  40:../../DaisySP//Source/Utility/dsp.h ****     return r;
  41:../../DaisySP//Source/Utility/dsp.h **** }
  42:../../DaisySP//Source/Utility/dsp.h **** 
  43:../../DaisySP//Source/Utility/dsp.h **** inline float fmin(float a, float b)
  44:../../DaisySP//Source/Utility/dsp.h **** {
  45:../../DaisySP//Source/Utility/dsp.h ****     float r;
  46:../../DaisySP//Source/Utility/dsp.h **** #ifdef __arm__
  47:../../DaisySP//Source/Utility/dsp.h ****     asm("vminnm.f32 %[d], %[n], %[m]" : [d] "=t"(r) : [n] "t"(a), [m] "t"(b) :);
  48:../../DaisySP//Source/Utility/dsp.h **** #else
  49:../../DaisySP//Source/Utility/dsp.h ****     r = (a < b) ? a : b;
  50:../../DaisySP//Source/Utility/dsp.h **** #endif // __arm__
  51:../../DaisySP//Source/Utility/dsp.h ****     return r;
  52:../../DaisySP//Source/Utility/dsp.h **** }
  53:../../DaisySP//Source/Utility/dsp.h **** 
  54:../../DaisySP//Source/Utility/dsp.h **** /** quick fp clamp
  55:../../DaisySP//Source/Utility/dsp.h **** */
  56:../../DaisySP//Source/Utility/dsp.h **** inline float fclamp(float in, float min, float max)
  57:../../DaisySP//Source/Utility/dsp.h **** {
  58:../../DaisySP//Source/Utility/dsp.h ****     return fmin(fmax(in, min), max);
  59:../../DaisySP//Source/Utility/dsp.h **** }
  60:../../DaisySP//Source/Utility/dsp.h **** 
ARM GAS  /var/folders/hl/qgbwny5j0fd895c2c41bk3tw0000gp/T//cctD4vl2.s 			page 56


  61:../../DaisySP//Source/Utility/dsp.h **** /** From Musicdsp.org "Fast power and root estimates for 32bit floats)
  62:../../DaisySP//Source/Utility/dsp.h **** Original code by Stefan Stenzel
  63:../../DaisySP//Source/Utility/dsp.h **** These are approximations
  64:../../DaisySP//Source/Utility/dsp.h **** */
  65:../../DaisySP//Source/Utility/dsp.h **** inline float fastpower(float f, int n)
  66:../../DaisySP//Source/Utility/dsp.h **** {
  67:../../DaisySP//Source/Utility/dsp.h ****     long *lp, l;
  68:../../DaisySP//Source/Utility/dsp.h ****     lp = (long *)(&f);
  69:../../DaisySP//Source/Utility/dsp.h ****     l  = *lp;
  70:../../DaisySP//Source/Utility/dsp.h ****     l -= 0x3F800000;
  71:../../DaisySP//Source/Utility/dsp.h ****     l <<= (n - 1);
  72:../../DaisySP//Source/Utility/dsp.h ****     l += 0x3F800000;
  73:../../DaisySP//Source/Utility/dsp.h ****     *lp = l;
  74:../../DaisySP//Source/Utility/dsp.h ****     return f;
  75:../../DaisySP//Source/Utility/dsp.h **** }
  76:../../DaisySP//Source/Utility/dsp.h **** 
  77:../../DaisySP//Source/Utility/dsp.h **** inline float fastroot(float f, int n)
  78:../../DaisySP//Source/Utility/dsp.h **** {
  79:../../DaisySP//Source/Utility/dsp.h ****     long *lp, l;
  80:../../DaisySP//Source/Utility/dsp.h ****     lp = (long *)(&f);
  81:../../DaisySP//Source/Utility/dsp.h ****     l  = *lp;
  82:../../DaisySP//Source/Utility/dsp.h ****     l -= 0x3F800000;
  83:../../DaisySP//Source/Utility/dsp.h ****     l >>= (n = 1);
  84:../../DaisySP//Source/Utility/dsp.h ****     l += 0x3F800000;
  85:../../DaisySP//Source/Utility/dsp.h ****     *lp = l;
  86:../../DaisySP//Source/Utility/dsp.h ****     return f;
  87:../../DaisySP//Source/Utility/dsp.h **** }
  88:../../DaisySP//Source/Utility/dsp.h **** 
  89:../../DaisySP//Source/Utility/dsp.h **** /** From http://openaudio.blogspot.com/2017/02/faster-log10-and-pow.html
  90:../../DaisySP//Source/Utility/dsp.h **** No approximation, pow10f(x) gives a 90% speed increase over powf(10.f, x)
  91:../../DaisySP//Source/Utility/dsp.h **** */
  92:../../DaisySP//Source/Utility/dsp.h **** inline float pow10f(float f)
  93:../../DaisySP//Source/Utility/dsp.h **** {
  94:../../DaisySP//Source/Utility/dsp.h ****     return expf(2.302585092994046f * f);
  95:../../DaisySP//Source/Utility/dsp.h **** }
  96:../../DaisySP//Source/Utility/dsp.h **** 
  97:../../DaisySP//Source/Utility/dsp.h **** /* Original code for fastlog2f by Dr. Paul Beckmann from the ARM community forum, adapted from the 
  98:../../DaisySP//Source/Utility/dsp.h **** About 25% performance increase over std::log10f
  99:../../DaisySP//Source/Utility/dsp.h **** */
 100:../../DaisySP//Source/Utility/dsp.h **** inline float fastlog2f(float f)
 101:../../DaisySP//Source/Utility/dsp.h **** {
 102:../../DaisySP//Source/Utility/dsp.h ****     float frac;
 103:../../DaisySP//Source/Utility/dsp.h ****     int   exp;
 104:../../DaisySP//Source/Utility/dsp.h ****     frac = frexpf(fabsf(f), &exp);
 105:../../DaisySP//Source/Utility/dsp.h ****     f    = 1.23149591368684f;
 106:../../DaisySP//Source/Utility/dsp.h ****     f *= frac;
 107:../../DaisySP//Source/Utility/dsp.h ****     f += -4.11852516267426f;
 108:../../DaisySP//Source/Utility/dsp.h ****     f *= frac;
 109:../../DaisySP//Source/Utility/dsp.h ****     f += 6.02197014179219f;
 110:../../DaisySP//Source/Utility/dsp.h ****     f *= frac;
 111:../../DaisySP//Source/Utility/dsp.h ****     f += -3.13396450166353f;
 112:../../DaisySP//Source/Utility/dsp.h ****     f += exp;
 113:../../DaisySP//Source/Utility/dsp.h ****     return (f);
 114:../../DaisySP//Source/Utility/dsp.h **** }
 115:../../DaisySP//Source/Utility/dsp.h **** 
 116:../../DaisySP//Source/Utility/dsp.h **** inline float fastlog10f(float f)
 117:../../DaisySP//Source/Utility/dsp.h **** {
ARM GAS  /var/folders/hl/qgbwny5j0fd895c2c41bk3tw0000gp/T//cctD4vl2.s 			page 57


 118:../../DaisySP//Source/Utility/dsp.h ****     return fastlog2f(f) * 0.3010299956639812f;
 119:../../DaisySP//Source/Utility/dsp.h **** }
 120:../../DaisySP//Source/Utility/dsp.h **** 
 121:../../DaisySP//Source/Utility/dsp.h **** /** Midi to frequency helper
 122:../../DaisySP//Source/Utility/dsp.h **** */
 123:../../DaisySP//Source/Utility/dsp.h **** inline float mtof(float m)
 124:../../DaisySP//Source/Utility/dsp.h **** {
 125:../../DaisySP//Source/Utility/dsp.h ****     return powf(2, (m - 69.0f) / 12.0f) * 440.0f;
 126:../../DaisySP//Source/Utility/dsp.h **** }
 127:../../DaisySP//Source/Utility/dsp.h **** 
 128:../../DaisySP//Source/Utility/dsp.h **** 
 129:../../DaisySP//Source/Utility/dsp.h **** /** one pole lpf
 130:../../DaisySP//Source/Utility/dsp.h **** out is passed by reference, and must be retained between
 131:../../DaisySP//Source/Utility/dsp.h **** calls to properly filter the signal
 132:../../DaisySP//Source/Utility/dsp.h **** coeff can be calculated:
 133:../../DaisySP//Source/Utility/dsp.h **** coeff = 1.0 / (time * sample_rate) ; where time is in seconds
 134:../../DaisySP//Source/Utility/dsp.h **** */
 135:../../DaisySP//Source/Utility/dsp.h **** inline void fonepole(float &out, float in, float coeff)
 136:../../DaisySP//Source/Utility/dsp.h **** {
 137:../../DaisySP//Source/Utility/dsp.h ****     out += coeff * (in - out);
 138:../../DaisySP//Source/Utility/dsp.h **** }
 139:../../DaisySP//Source/Utility/dsp.h **** 
 140:../../DaisySP//Source/Utility/dsp.h **** /** Curves to use with the fmap function */
 141:../../DaisySP//Source/Utility/dsp.h **** enum class Mapping
 142:../../DaisySP//Source/Utility/dsp.h **** {
 143:../../DaisySP//Source/Utility/dsp.h ****     LINEAR,
 144:../../DaisySP//Source/Utility/dsp.h ****     EXP,
 145:../../DaisySP//Source/Utility/dsp.h ****     LOG,
 146:../../DaisySP//Source/Utility/dsp.h **** };
 147:../../DaisySP//Source/Utility/dsp.h **** 
 148:../../DaisySP//Source/Utility/dsp.h **** /** Maps a float between a specified range, using a specified curve. 
 149:../../DaisySP//Source/Utility/dsp.h ****  * 
 150:../../DaisySP//Source/Utility/dsp.h ****  *  \param in a value between 0 to 1 that will be mapped to the new range.
 151:../../DaisySP//Source/Utility/dsp.h ****  *  \param min the new minimum value
 152:../../DaisySP//Source/Utility/dsp.h ****  *  \param max the new maxmimum value
 153:../../DaisySP//Source/Utility/dsp.h ****  *  \param curve a Mapping Value to adjust the response curve of the transformation
 154:../../DaisySP//Source/Utility/dsp.h ****  *               defaults to Linear. @see Mapping
 155:../../DaisySP//Source/Utility/dsp.h ****  * 
 156:../../DaisySP//Source/Utility/dsp.h ****  *  When using the log curve min and max, must be greater than zero.
 157:../../DaisySP//Source/Utility/dsp.h ****  * 
 158:../../DaisySP//Source/Utility/dsp.h ****  *  \retval returns the transformed float within the new range.
 159:../../DaisySP//Source/Utility/dsp.h **** */
 160:../../DaisySP//Source/Utility/dsp.h **** inline float
 161:../../DaisySP//Source/Utility/dsp.h **** fmap(float in, float min, float max, Mapping curve = Mapping::LINEAR)
 162:../../DaisySP//Source/Utility/dsp.h **** {
 163:../../DaisySP//Source/Utility/dsp.h ****     switch(curve)
 164:../../DaisySP//Source/Utility/dsp.h ****     {
 165:../../DaisySP//Source/Utility/dsp.h ****         case Mapping::EXP:
 166:../../DaisySP//Source/Utility/dsp.h ****             return fclamp(min + (in * in) * (max - min), min, max);
 167:../../DaisySP//Source/Utility/dsp.h ****         case Mapping::LOG:
 168:../../DaisySP//Source/Utility/dsp.h ****         {
 169:../../DaisySP//Source/Utility/dsp.h ****             const float a = 1.f / log10f(max / min);
 170:../../DaisySP//Source/Utility/dsp.h ****             return fclamp(min * powf(10, in / a), min, max);
 171:../../DaisySP//Source/Utility/dsp.h ****         }
 172:../../DaisySP//Source/Utility/dsp.h ****         case Mapping::LINEAR:
 173:../../DaisySP//Source/Utility/dsp.h ****         default: return fclamp(min + in * (max - min), min, max);
 1869              		.loc 10 173 31 view .LVU401
ARM GAS  /var/folders/hl/qgbwny5j0fd895c2c41bk3tw0000gp/T//cctD4vl2.s 			page 58


 1870 0006 9FED468A 		vldr.32	s16, .L45+8
 1871              	.LBE744:
 1872              	.LBE743:
  25:test.cpp      **** 	float coarse_knob = hw.adc.GetFloat(pot1); 
 1873              		.loc 9 25 1 view .LVU402
 1874 000a 83B0     		sub	sp, sp, #12
 1875              		.cfi_def_cfa_offset 64
 1876              		.loc 9 26 37 view .LVU403
 1877 000c 4548     		ldr	r0, .L45+12
 1878              	.LVL57:
  25:test.cpp      **** 	float coarse_knob = hw.adc.GetFloat(pot1); 
 1879              		.loc 9 25 1 view .LVU404
 1880 000e 0E46     		mov	r6, r1
 1881              		.loc 9 26 37 view .LVU405
 1882 0010 0021     		movs	r1, #0
 1883              	.LVL58:
  25:test.cpp      **** 	float coarse_knob = hw.adc.GetFloat(pot1); 
 1884              		.loc 9 25 1 view .LVU406
 1885 0012 1546     		mov	r5, r2
 1886              		.loc 9 26 37 view .LVU407
 1887 0014 FFF7FEFF 		bl	_ZNK5daisy9AdcHandle8GetFloatEh
 1888              	.LVL59:
  27:test.cpp      ****     float freq = fmap(coarse_knob, 0.f, 1000.f);
 1889              		.loc 9 27 5 is_stmt 1 view .LVU408
 1890              	.LBB758:
 1891              	.LBI743:
 161:../../DaisySP//Source/Utility/dsp.h **** {
 1892              		.loc 10 161 1 view .LVU409
 1893              	.LBE758:
 163:../../DaisySP//Source/Utility/dsp.h ****     {
 1894              		.loc 10 163 5 view .LVU410
 1895              	.LBB759:
 1896              	.LBB754:
 172:../../DaisySP//Source/Utility/dsp.h ****         default: return fclamp(min + in * (max - min), min, max);
 1897              		.loc 10 172 9 view .LVU411
 1898              		.loc 10 173 9 view .LVU412
 1899              		.loc 10 173 18 view .LVU413
 1900              		.loc 10 173 31 is_stmt 0 view .LVU414
 1901 0018 F0EE487A 		vmov.f32	s15, s16
 1902 001c 9FED427A 		vldr.32	s14, .L45+16
 1903              	.LBE754:
 1904              	.LBE759:
  28:test.cpp      **** 
  29:test.cpp      **** 	float detune_knob = hw.adc.GetFloat(pot2); 
 1905              		.loc 9 29 37 view .LVU415
 1906 0020 0121     		movs	r1, #1
 1907 0022 4048     		ldr	r0, .L45+12
 1908              	.LBB760:
 1909              	.LBB755:
 1910              		.loc 10 173 31 view .LVU416
 1911 0024 E0EE077A 		vfma.f32	s15, s0, s14
 1912              	.LVL60:
 1913              	.LBB745:
 1914              	.LBI745:
  56:../../DaisySP//Source/Utility/dsp.h **** {
 1915              		.loc 10 56 14 is_stmt 1 view .LVU417
 1916              	.LBE745:
ARM GAS  /var/folders/hl/qgbwny5j0fd895c2c41bk3tw0000gp/T//cctD4vl2.s 			page 59


 1917              	.LBE755:
 1918              	.LBE760:
  58:../../DaisySP//Source/Utility/dsp.h **** }
 1919              		.loc 10 58 5 view .LVU418
 1920              	.LBB761:
 1921              	.LBB756:
 1922              	.LBB752:
 1923              	.LBB746:
 1924              	.LBI746:
  32:../../DaisySP//Source/Utility/dsp.h **** {
 1925              		.loc 10 32 14 view .LVU419
 1926              	.LBB747:
  34:../../DaisySP//Source/Utility/dsp.h **** #ifdef __arm__
 1927              		.loc 10 34 5 view .LVU420
  36:../../DaisySP//Source/Utility/dsp.h **** #else
 1928              		.loc 10 36 5 view .LVU421
 1929              	.LBE747:
 1930              	.LBE746:
 1931              	.LBE752:
 1932              	.LBE756:
 1933              	.LBE761:
 1934              	.LBB762:
 1935              	.LBB763:
  56:../../DaisySP//Source/Synthesis/oscillator.h **** 
  57:../../DaisySP//Source/Synthesis/oscillator.h **** 
  58:../../DaisySP//Source/Synthesis/oscillator.h ****     /** Changes the frequency of the Oscillator, and recalculates phase increment.
  59:../../DaisySP//Source/Synthesis/oscillator.h ****     */
  60:../../DaisySP//Source/Synthesis/oscillator.h ****     inline void SetFreq(const float f)
  61:../../DaisySP//Source/Synthesis/oscillator.h ****     {
  62:../../DaisySP//Source/Synthesis/oscillator.h ****         freq_      = f;
 1936              		.loc 6 62 20 is_stmt 0 view .LVU422
 1937 0028 404C     		ldr	r4, .L45+20
 1938              	.LBE763:
 1939              	.LBE762:
 1940              	.LBB769:
 1941              	.LBB757:
 1942              	.LBB753:
 1943              	.LBB749:
 1944              	.LBB748:
  36:../../DaisySP//Source/Utility/dsp.h **** #else
 1945              		.loc 10 36 5 view .LVU423
 1946              		.syntax unified
 1947              	@ 36 "../../DaisySP//Source/Utility/dsp.h" 1
 1948 002a 87FE888A 		vmaxnm.f32 s16, s15, s16
 1949              	@ 0 "" 2
 1950              	.LVL61:
  40:../../DaisySP//Source/Utility/dsp.h **** }
 1951              		.loc 10 40 5 is_stmt 1 view .LVU424
  40:../../DaisySP//Source/Utility/dsp.h **** }
 1952              		.loc 10 40 5 is_stmt 0 view .LVU425
 1953              		.thumb
 1954              		.syntax unified
 1955              	.LBE748:
 1956              	.LBE749:
 1957              	.LBB750:
 1958              	.LBI750:
  43:../../DaisySP//Source/Utility/dsp.h **** {
ARM GAS  /var/folders/hl/qgbwny5j0fd895c2c41bk3tw0000gp/T//cctD4vl2.s 			page 60


 1959              		.loc 10 43 14 is_stmt 1 view .LVU426
 1960              	.LBB751:
  45:../../DaisySP//Source/Utility/dsp.h **** #ifdef __arm__
 1961              		.loc 10 45 5 view .LVU427
  47:../../DaisySP//Source/Utility/dsp.h **** #else
 1962              		.loc 10 47 5 view .LVU428
 1963              		.syntax unified
 1964              	@ 47 "../../DaisySP//Source/Utility/dsp.h" 1
 1965 002e 88FE478A 		vminnm.f32 s16, s16, s14
 1966              	@ 0 "" 2
 1967              	.LVL62:
  51:../../DaisySP//Source/Utility/dsp.h **** }
 1968              		.loc 10 51 5 view .LVU429
  51:../../DaisySP//Source/Utility/dsp.h **** }
 1969              		.loc 10 51 5 is_stmt 0 view .LVU430
 1970              		.thumb
 1971              		.syntax unified
 1972              	.LBE751:
 1973              	.LBE750:
 1974              	.LBE753:
 1975              	.LBE757:
 1976              	.LBE769:
 1977              		.loc 9 29 2 is_stmt 1 view .LVU431
 1978              		.loc 9 29 37 is_stmt 0 view .LVU432
 1979 0032 FFF7FEFF 		bl	_ZNK5daisy9AdcHandle8GetFloatEh
 1980              	.LVL63:
  30:test.cpp      **** 
  31:test.cpp      **** 	float amount = hw.adc.GetFloat(pot4);
 1981              		.loc 9 31 32 view .LVU433
 1982 0036 0321     		movs	r1, #3
 1983 0038 3A48     		ldr	r0, .L45+12
  29:test.cpp      **** 
 1984              		.loc 9 29 37 view .LVU434
 1985 003a B0EE409A 		vmov.f32	s18, s0
 1986              	.LVL64:
 1987              		.loc 9 31 2 is_stmt 1 view .LVU435
 1988              		.loc 9 31 32 is_stmt 0 view .LVU436
 1989 003e FFF7FEFF 		bl	_ZNK5daisy9AdcHandle8GetFloatEh
 1990              	.LVL65:
  32:test.cpp      **** 	float depth = hw.adc.GetFloat(pot5); 
 1991              		.loc 9 32 31 view .LVU437
 1992 0042 0421     		movs	r1, #4
 1993 0044 3748     		ldr	r0, .L45+12
  31:test.cpp      **** 	float depth = hw.adc.GetFloat(pot5); 
 1994              		.loc 9 31 32 view .LVU438
 1995 0046 F0EE40AA 		vmov.f32	s21, s0
 1996              	.LVL66:
 1997              		.loc 9 32 2 is_stmt 1 view .LVU439
 1998              		.loc 9 32 31 is_stmt 0 view .LVU440
 1999 004a FFF7FEFF 		bl	_ZNK5daisy9AdcHandle8GetFloatEh
 2000              	.LVL67:
 2001              	.LBB770:
 2002              	.LBB764:
  63:../../DaisySP//Source/Synthesis/oscillator.h ****         phase_inc_ = CalcPhaseInc(f);
 2003              		.loc 6 63 34 view .LVU441
 2004 004e 2046     		mov	r0, r4
 2005              	.LBE764:
ARM GAS  /var/folders/hl/qgbwny5j0fd895c2c41bk3tw0000gp/T//cctD4vl2.s 			page 61


 2006              	.LBE770:
 2007              		.loc 9 32 31 view .LVU442
 2008 0050 B0EE40AA 		vmov.f32	s20, s0
 2009              	.LBB771:
 2010              	.LBB765:
  62:../../DaisySP//Source/Synthesis/oscillator.h ****         phase_inc_ = CalcPhaseInc(f);
 2011              		.loc 6 62 20 view .LVU443
 2012 0054 84ED028A 		vstr.32	s16, [r4, #8]
 2013              		.loc 6 63 34 view .LVU444
 2014 0058 B0EE480A 		vmov.f32	s0, s16
 2015              	.LVL68:
 2016              		.loc 6 63 34 view .LVU445
 2017              	.LBE765:
 2018              	.LBE771:
  33:test.cpp      **** 
  34:test.cpp      **** 	osc_a.SetFreq(freq); 
 2019              		.loc 9 34 2 is_stmt 1 view .LVU446
 2020              	.LBB772:
 2021              	.LBI762:
  60:../../DaisySP//Source/Synthesis/oscillator.h ****     {
 2022              		.loc 6 60 17 view .LVU447
 2023              	.LBB766:
  62:../../DaisySP//Source/Synthesis/oscillator.h ****         phase_inc_ = CalcPhaseInc(f);
 2024              		.loc 6 62 9 view .LVU448
 2025              		.loc 6 63 9 view .LVU449
 2026              	.LBE766:
 2027              	.LBE772:
 2028              	.LBB773:
 2029              	.LBB774:
  62:../../DaisySP//Source/Synthesis/oscillator.h ****         phase_inc_ = CalcPhaseInc(f);
 2030              		.loc 6 62 20 is_stmt 0 view .LVU450
 2031 005c 344F     		ldr	r7, .L45+24
 2032              	.LBE774:
 2033              	.LBE773:
 2034              	.LBB778:
 2035              	.LBB767:
 2036              		.loc 6 63 34 view .LVU451
 2037 005e FFF7FEFF 		bl	_ZN7daisysp10Oscillator12CalcPhaseIncEf
 2038              	.LVL69:
 2039              	.LBE767:
 2040              	.LBE778:
  35:test.cpp      **** 	osc_b.SetFreq(freq + (.05 * freq * detune_knob)); 
 2041              		.loc 9 35 16 view .LVU452
 2042 0062 B7EEC88A 		vcvt.f64.f32	d8, s16
 2043              	.LVL70:
 2044              	.LBB779:
 2045              	.LBB768:
 2046              		.loc 6 63 20 view .LVU453
 2047 0066 84ED080A 		vstr.32	s0, [r4, #32]
 2048              	.LVL71:
 2049              		.loc 6 63 20 view .LVU454
 2050              	.LBE768:
 2051              	.LBE779:
 2052              		.loc 9 35 2 is_stmt 1 view .LVU455
 2053              		.loc 9 35 37 is_stmt 0 view .LVU456
 2054 006a B7EEC99A 		vcvt.f64.f32	d9, s18
 2055              	.LVL72:
ARM GAS  /var/folders/hl/qgbwny5j0fd895c2c41bk3tw0000gp/T//cctD4vl2.s 			page 62


 2056              	.LBB780:
 2057              	.LBB775:
 2058              		.loc 6 63 34 view .LVU457
 2059 006e 3846     		mov	r0, r7
 2060              	.LBE775:
 2061              	.LBE780:
 2062              	.LBB781:
 2063              	.LBB782:
  62:../../DaisySP//Source/Synthesis/oscillator.h ****         phase_inc_ = CalcPhaseInc(f);
 2064              		.loc 6 62 20 view .LVU458
 2065 0070 304C     		ldr	r4, .L45+28
 2066              	.LBE782:
 2067              	.LBE781:
 2068              		.loc 9 35 21 view .LVU459
 2069 0072 B0EE480B 		vmov.f64	d0, d8
 2070              		.loc 9 35 28 view .LVU460
 2071 0076 9FED28BB 		vldr.64	d11, .L45
 2072 007a 28EE0BBB 		vmul.f64	d11, d8, d11
 2073              		.loc 9 35 21 view .LVU461
 2074 007e ABEE090B 		vfma.f64	d0, d11, d9
 2075              		.loc 9 35 15 view .LVU462
 2076 0082 B7EEC00B 		vcvt.f32.f64	s0, d0
 2077              	.LVL73:
 2078              	.LBB786:
 2079              	.LBI773:
  60:../../DaisySP//Source/Synthesis/oscillator.h ****     {
 2080              		.loc 6 60 17 is_stmt 1 view .LVU463
 2081              	.LBB776:
  62:../../DaisySP//Source/Synthesis/oscillator.h ****         phase_inc_ = CalcPhaseInc(f);
 2082              		.loc 6 62 9 view .LVU464
  62:../../DaisySP//Source/Synthesis/oscillator.h ****         phase_inc_ = CalcPhaseInc(f);
 2083              		.loc 6 62 20 is_stmt 0 view .LVU465
 2084 0086 87ED020A 		vstr.32	s0, [r7, #8]
 2085              		.loc 6 63 9 is_stmt 1 view .LVU466
 2086              		.loc 6 63 34 is_stmt 0 view .LVU467
 2087 008a FFF7FEFF 		bl	_ZN7daisysp10Oscillator12CalcPhaseIncEf
 2088              	.LVL74:
 2089              		.loc 6 63 34 view .LVU468
 2090              	.LBE776:
 2091              	.LBE786:
  36:test.cpp      **** 	osc_c.SetFreq(freq - (.05 * freq * detune_knob)); 
 2092              		.loc 9 36 21 view .LVU469
 2093 008e ABEE498B 		vfms.f64	d8, d11, d9
 2094              	.LVL75:
 2095              	.LBB787:
 2096              	.LBB777:
 2097              		.loc 6 63 20 view .LVU470
 2098 0092 87ED080A 		vstr.32	s0, [r7, #32]
 2099              	.LVL76:
 2100              		.loc 6 63 20 view .LVU471
 2101              	.LBE777:
 2102              	.LBE787:
 2103              		.loc 9 36 2 is_stmt 1 view .LVU472
 2104              	.LBB788:
 2105              	.LBB783:
 2106              		.loc 6 63 34 is_stmt 0 view .LVU473
 2107 0096 2046     		mov	r0, r4
ARM GAS  /var/folders/hl/qgbwny5j0fd895c2c41bk3tw0000gp/T//cctD4vl2.s 			page 63


 2108              	.LBE783:
 2109              	.LBE788:
 2110              		.loc 9 36 15 view .LVU474
 2111 0098 B7EEC80B 		vcvt.f32.f64	s0, d8
 2112              	.LVL77:
 2113              	.LBB789:
 2114              	.LBI781:
  60:../../DaisySP//Source/Synthesis/oscillator.h ****     {
 2115              		.loc 6 60 17 is_stmt 1 view .LVU475
 2116              	.LBB784:
  62:../../DaisySP//Source/Synthesis/oscillator.h ****         phase_inc_ = CalcPhaseInc(f);
 2117              		.loc 6 62 9 view .LVU476
  62:../../DaisySP//Source/Synthesis/oscillator.h ****         phase_inc_ = CalcPhaseInc(f);
 2118              		.loc 6 62 20 is_stmt 0 view .LVU477
 2119 009c 84ED020A 		vstr.32	s0, [r4, #8]
 2120              		.loc 6 63 9 is_stmt 1 view .LVU478
 2121              		.loc 6 63 34 is_stmt 0 view .LVU479
 2122 00a0 FFF7FEFF 		bl	_ZN7daisysp10Oscillator12CalcPhaseIncEf
 2123              	.LVL78:
 2124              		.loc 6 63 34 view .LVU480
 2125              	.LBE784:
 2126              	.LBE789:
 2127              	.LBB790:
 2128              	.LBB791:
 109:ensemble.h    ****   
 110:ensemble.h    ****   inline void set_amount(float amount) {
 111:ensemble.h    ****     amount_ = amount;
 112:ensemble.h    ****   }
 113:ensemble.h    ****   
 114:ensemble.h    ****   inline void set_depth(float depth) {
 115:ensemble.h    ****     depth_ = depth * 128.0f;
 2129              		.loc 7 115 20 view .LVU481
 2130 00a4 DFED247A 		vldr.32	s15, .L45+32
 2131              	.LBE791:
 2132              	.LBE790:
 2133              	.LBB794:
 2134              	.LBB795:
 111:ensemble.h    ****   }
 2135              		.loc 7 111 13 view .LVU482
 2136 00a8 244B     		ldr	r3, .L45+36
 2137              	.LBE795:
 2138              	.LBE794:
 2139              	.LBB797:
 2140              	.LBB792:
 2141              		.loc 7 115 20 view .LVU483
 2142 00aa 2AEE27AA 		vmul.f32	s20, s20, s15
 2143              	.LVL79:
 2144              		.loc 7 115 20 view .LVU484
 2145              	.LBE792:
 2146              	.LBE797:
 2147              	.LBB798:
 2148              	.LBB785:
 2149              		.loc 6 63 20 view .LVU485
 2150 00ae 84ED080A 		vstr.32	s0, [r4, #32]
 2151              	.LVL80:
 2152              		.loc 6 63 20 view .LVU486
 2153              	.LBE785:
ARM GAS  /var/folders/hl/qgbwny5j0fd895c2c41bk3tw0000gp/T//cctD4vl2.s 			page 64


 2154              	.LBE798:
  37:test.cpp      **** 
  38:test.cpp      **** 	ens.set_amount(amount);
 2155              		.loc 9 38 2 is_stmt 1 view .LVU487
 2156              	.LBB799:
 2157              	.LBI794:
 110:ensemble.h    ****     amount_ = amount;
 2158              		.loc 7 110 15 view .LVU488
 2159              	.LBB796:
 111:ensemble.h    ****   }
 2160              		.loc 7 111 5 view .LVU489
 111:ensemble.h    ****   }
 2161              		.loc 7 111 13 is_stmt 0 view .LVU490
 2162 00b2 C3ED06AA 		vstr.32	s21, [r3, #24]
 2163              	.LVL81:
 111:ensemble.h    ****   }
 2164              		.loc 7 111 13 view .LVU491
 2165              	.LBE796:
 2166              	.LBE799:
  39:test.cpp      **** 	ens.set_depth(depth);
 2167              		.loc 9 39 2 is_stmt 1 view .LVU492
 2168              	.LBB800:
 2169              	.LBI790:
 114:ensemble.h    ****     depth_ = depth * 128.0f;
 2170              		.loc 7 114 15 view .LVU493
 2171              	.LBB793:
 2172              		.loc 7 115 5 view .LVU494
 2173              		.loc 7 115 12 is_stmt 0 view .LVU495
 2174 00b6 83ED07AA 		vstr.32	s20, [r3, #28]
 2175              	.LVL82:
 2176              		.loc 7 115 12 view .LVU496
 2177              	.LBE793:
 2178              	.LBE800:
  40:test.cpp      **** 
  41:test.cpp      **** 	for (size_t i = 0; i < size; i++)
 2179              		.loc 9 41 2 is_stmt 1 view .LVU497
 2180              	.LBB801:
 2181              		.loc 9 41 23 view .LVU498
 2182 00ba 35B3     		cbz	r5, .L37
 2183              		.loc 9 41 14 is_stmt 0 view .LVU499
 2184 00bc 0024     		movs	r4, #0
 2185              	.LVL83:
 2186              	.L39:
 2187              	.LBB802:
  42:test.cpp      **** 	{
  43:test.cpp      **** 		float output = osc_a.Process() + osc_b.Process() + osc_c.Process(); 
 2188              		.loc 9 43 3 is_stmt 1 discriminator 2 view .LVU500
 2189              		.loc 9 43 31 is_stmt 0 discriminator 2 view .LVU501
 2190 00be 1B48     		ldr	r0, .L45+20
 2191 00c0 FFF7FEFF 		bl	_ZN7daisysp10Oscillator7ProcessEv
 2192              	.LVL84:
 2193 00c4 B0EE408A 		vmov.f32	s16, s0
 2194              		.loc 9 43 49 discriminator 2 view .LVU502
 2195 00c8 1948     		ldr	r0, .L45+24
 2196 00ca FFF7FEFF 		bl	_ZN7daisysp10Oscillator7ProcessEv
 2197              	.LVL85:
 2198              		.loc 9 43 67 discriminator 2 view .LVU503
ARM GAS  /var/folders/hl/qgbwny5j0fd895c2c41bk3tw0000gp/T//cctD4vl2.s 			page 65


 2199 00ce 1948     		ldr	r0, .L45+28
 2200              		.loc 9 43 34 discriminator 2 view .LVU504
 2201 00d0 38EE008A 		vadd.f32	s16, s16, s0
 2202              		.loc 9 43 67 discriminator 2 view .LVU505
 2203 00d4 FFF7FEFF 		bl	_ZN7daisysp10Oscillator7ProcessEv
 2204              	.LVL86:
  44:test.cpp      **** 
  45:test.cpp      **** 		ens.Process(&output, &output, size); 
 2205              		.loc 9 45 14 discriminator 2 view .LVU506
 2206 00d8 01AA     		add	r2, sp, #4
 2207 00da 2B46     		mov	r3, r5
 2208 00dc 1748     		ldr	r0, .L45+36
  43:test.cpp      **** 
 2209              		.loc 9 43 52 discriminator 2 view .LVU507
 2210 00de 38EE000A 		vadd.f32	s0, s16, s0
 2211              		.loc 9 45 14 discriminator 2 view .LVU508
 2212 00e2 1146     		mov	r1, r2
  43:test.cpp      **** 
 2213              		.loc 9 43 68 discriminator 2 view .LVU509
 2214 00e4 8DED010A 		vstr.32	s0, [sp, #4]
 2215              		.loc 9 45 3 is_stmt 1 discriminator 2 view .LVU510
 2216              		.loc 9 45 14 is_stmt 0 discriminator 2 view .LVU511
 2217 00e8 FFF7FEFF 		bl	_ZN7daisysp8Ensemble7ProcessEPfS1_j
 2218              	.LVL87:
  46:test.cpp      **** 
  47:test.cpp      **** 		out[0][i] = output;
 2219              		.loc 9 47 3 is_stmt 1 discriminator 2 view .LVU512
  48:test.cpp      **** 		out[1][i] = output;
 2220              		.loc 9 48 13 is_stmt 0 discriminator 2 view .LVU513
 2221 00ec 7068     		ldr	r0, [r6, #4]
  47:test.cpp      **** 		out[1][i] = output;
 2222              		.loc 9 47 13 discriminator 2 view .LVU514
 2223 00ee 3368     		ldr	r3, [r6]
 2224              		.loc 9 48 13 discriminator 2 view .LVU515
 2225 00f0 00EB8400 		add	r0, r0, r4, lsl #2
  47:test.cpp      **** 		out[1][i] = output;
 2226              		.loc 9 47 13 discriminator 2 view .LVU516
 2227 00f4 DDF804E0 		ldr	lr, [sp, #4]	@ float
 2228 00f8 03EB840C 		add	ip, r3, r4, lsl #2
 2229              	.LBE802:
  41:test.cpp      **** 	{
 2230              		.loc 9 41 2 discriminator 2 view .LVU517
 2231 00fc 0134     		adds	r4, r4, #1
 2232              	.LVL88:
  41:test.cpp      **** 	{
 2233              		.loc 9 41 23 discriminator 2 view .LVU518
 2234 00fe A542     		cmp	r5, r4
 2235              	.LBB803:
  47:test.cpp      **** 		out[1][i] = output;
 2236              		.loc 9 47 13 discriminator 2 view .LVU519
 2237 0100 CCF800E0 		str	lr, [ip]	@ float
 2238              		.loc 9 48 3 is_stmt 1 discriminator 2 view .LVU520
 2239              		.loc 9 48 13 is_stmt 0 discriminator 2 view .LVU521
 2240 0104 C0F800E0 		str	lr, [r0]	@ float
 2241              	.LBE803:
  41:test.cpp      **** 	{
 2242              		.loc 9 41 2 is_stmt 1 discriminator 2 view .LVU522
ARM GAS  /var/folders/hl/qgbwny5j0fd895c2c41bk3tw0000gp/T//cctD4vl2.s 			page 66


 2243              	.LVL89:
  41:test.cpp      **** 	{
 2244              		.loc 9 41 23 discriminator 2 view .LVU523
 2245 0108 D9D1     		bne	.L39
 2246              	.LVL90:
 2247              	.L37:
  41:test.cpp      **** 	{
 2248              		.loc 9 41 23 is_stmt 0 discriminator 2 view .LVU524
 2249              	.LBE801:
  49:test.cpp      **** 	}
  50:test.cpp      **** }
 2250              		.loc 9 50 1 view .LVU525
 2251 010a 03B0     		add	sp, sp, #12
 2252              		.cfi_def_cfa_offset 52
 2253              		@ sp needed
 2254 010c BDEC088B 		vldm	sp!, {d8-d11}
 2255              		.cfi_restore 86
 2256              		.cfi_restore 87
 2257              		.cfi_restore 84
 2258              		.cfi_restore 85
 2259              		.cfi_restore 82
 2260              		.cfi_restore 83
 2261              		.cfi_restore 80
 2262              		.cfi_restore 81
 2263              		.cfi_def_cfa_offset 20
 2264 0110 F0BD     		pop	{r4, r5, r6, r7, pc}
 2265              	.LVL91:
 2266              	.L46:
 2267              		.loc 9 50 1 view .LVU526
 2268 0112 00BFAFF3 		.align	3
 2268      0080
 2269              	.L45:
 2270 0118 9A999999 		.word	-1717986918
 2271 011c 9999A93F 		.word	1068079513
 2272 0120 00000000 		.word	0
 2273 0124 18000000 		.word	.LANCHOR0+24
 2274 0128 00007A44 		.word	1148846080
 2275 012c 00000000 		.word	.LANCHOR1
 2276 0130 00000000 		.word	.LANCHOR2
 2277 0134 00000000 		.word	.LANCHOR3
 2278 0138 00000043 		.word	1124073472
 2279 013c 00000000 		.word	.LANCHOR4
 2280              		.cfi_endproc
 2281              	.LFE4830:
 2283              		.section	.text.startup.main,"ax",%progbits
 2284              		.align	1
 2285              		.p2align 2,,3
 2286              		.global	main
 2287              		.syntax unified
 2288              		.thumb
 2289              		.thumb_func
 2290              		.fpu fpv5-d16
 2292              	main:
 2293              	.LFB4831:
  51:test.cpp      **** 
  52:test.cpp      **** int main(void)
  53:test.cpp      **** {
ARM GAS  /var/folders/hl/qgbwny5j0fd895c2c41bk3tw0000gp/T//cctD4vl2.s 			page 67


 2294              		.loc 9 53 1 is_stmt 1 view -0
 2295              		.cfi_startproc
 2296              		@ args = 0, pretend = 0, frame = 120
 2297              		@ frame_needed = 0, uses_anonymous_args = 0
  54:test.cpp      **** 	hw.Init();
 2298              		.loc 9 54 2 view .LVU528
  53:test.cpp      **** 	hw.Init();
 2299              		.loc 9 53 1 is_stmt 0 view .LVU529
 2300 0000 F0B5     		push	{r4, r5, r6, r7, lr}
 2301              		.cfi_def_cfa_offset 20
 2302              		.cfi_offset 4, -20
 2303              		.cfi_offset 5, -16
 2304              		.cfi_offset 6, -12
 2305              		.cfi_offset 7, -8
 2306              		.cfi_offset 14, -4
 2307              		.loc 9 54 9 view .LVU530
 2308 0002 0021     		movs	r1, #0
  53:test.cpp      **** 	hw.Init();
 2309              		.loc 9 53 1 view .LVU531
 2310 0004 9FB0     		sub	sp, sp, #124
 2311              		.cfi_def_cfa_offset 144
 2312              		.loc 9 54 9 view .LVU532
 2313 0006 3648     		ldr	r0, .L50
 2314 0008 0025     		movs	r5, #0
 2315 000a FFF7FEFF 		bl	_ZN5daisy9DaisySeed4InitEb
 2316              	.LVL92:
  55:test.cpp      **** 	hw.SetAudioBlockSize(4); // number of samples handled per callback
 2317              		.loc 9 55 2 is_stmt 1 view .LVU533
 2318              		.loc 9 55 22 is_stmt 0 view .LVU534
 2319 000e 0421     		movs	r1, #4
 2320 0010 3348     		ldr	r0, .L50
 2321 0012 0227     		movs	r7, #2
 2322 0014 FFF7FEFF 		bl	_ZN5daisy9DaisySeed17SetAudioBlockSizeEj
 2323              	.LVL93:
  56:test.cpp      **** 	hw.SetAudioSampleRate(SaiHandle::Config::SampleRate::SAI_48KHZ);
 2324              		.loc 9 56 2 is_stmt 1 view .LVU535
 2325              		.loc 9 56 23 is_stmt 0 view .LVU536
 2326 0018 0321     		movs	r1, #3
 2327 001a 3148     		ldr	r0, .L50
 2328 001c 0624     		movs	r4, #6
 2329 001e FFF7FEFF 		bl	_ZN5daisy9DaisySeed18SetAudioSampleRateENS_9SaiHandle6Config10SampleRateE
 2330              	.LVL94:
  57:test.cpp      **** 	float samplerate = hw.AudioSampleRate();
 2331              		.loc 9 57 2 is_stmt 1 view .LVU537
 2332              		.loc 9 57 39 is_stmt 0 view .LVU538
 2333 0022 2F48     		ldr	r0, .L50
 2334 0024 FFF7FEFF 		bl	_ZN5daisy9DaisySeed15AudioSampleRateEv
 2335              	.LVL95:
 2336 0028 8DF80C70 		strb	r7, [sp, #12]
 2337 002c 8DF80D50 		strb	r5, [sp, #13]
  58:test.cpp      **** 
  59:test.cpp      **** 	AdcChannelConfig adc_config[NUM_ADC_CHANNELS];
  60:test.cpp      **** 	adc_config[pot1].InitSingle(A0);
 2338              		.loc 9 60 29 view .LVU539
 2339 0030 08A8     		add	r0, sp, #32
 2340 0032 0399     		ldr	r1, [sp, #12]
 2341 0034 0126     		movs	r6, #1
ARM GAS  /var/folders/hl/qgbwny5j0fd895c2c41bk3tw0000gp/T//cctD4vl2.s 			page 68


  57:test.cpp      **** 	float samplerate = hw.AudioSampleRate();
 2342              		.loc 9 57 39 view .LVU540
 2343 0036 8DED010A 		vstr.32	s0, [sp, #4]	@ int
 2344              	.LVL96:
  59:test.cpp      **** 	adc_config[pot1].InitSingle(A0);
 2345              		.loc 9 59 2 is_stmt 1 view .LVU541
 2346              		.loc 9 60 2 view .LVU542
 2347              	.LBB804:
 2348              	.LBI804:
 2349              		.file 11 "../../libDaisy//src/daisy_core.h"
   1:../../libDaisy//src/daisy_core.h **** #pragma once
   2:../../libDaisy//src/daisy_core.h **** #ifndef DSY_CORE_HW_H
   3:../../libDaisy//src/daisy_core.h **** #define DSY_CORE_HW_H /**< & */
   4:../../libDaisy//src/daisy_core.h **** #include <stdint.h>
   5:../../libDaisy//src/daisy_core.h **** #include <stdlib.h>
   6:../../libDaisy//src/daisy_core.h **** 
   7:../../libDaisy//src/daisy_core.h **** #if defined(_MSC_VER)
   8:../../libDaisy//src/daisy_core.h **** #define FORCE_INLINE __forceinline /**< & */
   9:../../libDaisy//src/daisy_core.h **** #elif defined(__clang__)
  10:../../libDaisy//src/daisy_core.h **** #define FORCE_INLINE inline __attribute__((always_inline)) /**< & */
  11:../../libDaisy//src/daisy_core.h **** #pragma clang diagnostic ignored "-Wduplicate-decl-specifier"
  12:../../libDaisy//src/daisy_core.h **** #elif defined(__GNUC__)
  13:../../libDaisy//src/daisy_core.h **** #define FORCE_INLINE inline __attribute__((always_inline)) /**< & */
  14:../../libDaisy//src/daisy_core.h **** #else
  15:../../libDaisy//src/daisy_core.h **** #error unknown compiler
  16:../../libDaisy//src/daisy_core.h **** #endif
  17:../../libDaisy//src/daisy_core.h **** 
  18:../../libDaisy//src/daisy_core.h **** /** @addtogroup utility
  19:../../libDaisy//src/daisy_core.h ****     @{
  20:../../libDaisy//src/daisy_core.h **** */
  21:../../libDaisy//src/daisy_core.h **** 
  22:../../libDaisy//src/daisy_core.h **** /** Macro for area of memory that is configured as cacheless
  23:../../libDaisy//src/daisy_core.h **** This should be used primarily for DMA buffers, and the like.
  24:../../libDaisy//src/daisy_core.h **** */
  25:../../libDaisy//src/daisy_core.h **** #define DMA_BUFFER_MEM_SECTION __attribute__((section(".sram1_bss")))
  26:../../libDaisy//src/daisy_core.h **** /** 
  27:../../libDaisy//src/daisy_core.h **** THE DTCM RAM section is also non-cached. However, is not suitable 
  28:../../libDaisy//src/daisy_core.h **** for DMA transfers. Performance is on par with internal SRAM w/ 
  29:../../libDaisy//src/daisy_core.h **** cache enabled.
  30:../../libDaisy//src/daisy_core.h **** */
  31:../../libDaisy//src/daisy_core.h **** #define DTCM_MEM_SECTION __attribute__((section(".dtcmram_bss")))
  32:../../libDaisy//src/daisy_core.h **** 
  33:../../libDaisy//src/daisy_core.h **** #define FBIPMAX 0.999985f             /**< close to 1.0f-LSB at 16 bit */
  34:../../libDaisy//src/daisy_core.h **** #define FBIPMIN (-FBIPMAX)            /**< - (1 - LSB) */
  35:../../libDaisy//src/daisy_core.h **** #define U82F_SCALE 0.0078740f         /**< 1 / 127 */
  36:../../libDaisy//src/daisy_core.h **** #define F2U8_SCALE 127.0f             /**< 128 - 1 */
  37:../../libDaisy//src/daisy_core.h **** #define S82F_SCALE 0.0078125f         /**< 1 / (2**7) */
  38:../../libDaisy//src/daisy_core.h **** #define F2S8_SCALE 127.0f             /**< (2 ** 7) - 1 */
  39:../../libDaisy//src/daisy_core.h **** #define S162F_SCALE 3.0517578125e-05f /**< 1 / (2** 15) */
  40:../../libDaisy//src/daisy_core.h **** #define F2S16_SCALE 32767.0f          /**< (2 ** 15) - 1 */
  41:../../libDaisy//src/daisy_core.h **** #define F2S24_SCALE 8388608.0f        /**< 2 ** 23 */
  42:../../libDaisy//src/daisy_core.h **** #define S242F_SCALE 1.192092896e-07f  /**< 1 / (2 ** 23) */
  43:../../libDaisy//src/daisy_core.h **** #define S24SIGN 0x800000              /**< 2 ** 23 */
  44:../../libDaisy//src/daisy_core.h **** #define S322F_SCALE 4.6566129e-10f    /**< 1 / (2** 31) */
  45:../../libDaisy//src/daisy_core.h **** #define F2S32_SCALE 2147483647.f      /**< (2 ** 31) - 1 */
  46:../../libDaisy//src/daisy_core.h **** 
  47:../../libDaisy//src/daisy_core.h **** 
ARM GAS  /var/folders/hl/qgbwny5j0fd895c2c41bk3tw0000gp/T//cctD4vl2.s 			page 69


  48:../../libDaisy//src/daisy_core.h **** /** shorthand macro for simplifying the reading of the left 
  49:../../libDaisy//src/daisy_core.h ****  *  channel of a non-interleaved output buffer named out */
  50:../../libDaisy//src/daisy_core.h **** #define OUT_L out[0]
  51:../../libDaisy//src/daisy_core.h **** 
  52:../../libDaisy//src/daisy_core.h **** /** shorthand macro for simplifying the reading of the right 
  53:../../libDaisy//src/daisy_core.h ****  *  channel of a non-interleaved output buffer named out */
  54:../../libDaisy//src/daisy_core.h **** #define OUT_R out[1]
  55:../../libDaisy//src/daisy_core.h **** 
  56:../../libDaisy//src/daisy_core.h **** /** shorthand macro for simplifying the reading of the left 
  57:../../libDaisy//src/daisy_core.h ****  *  channel of a non-interleaved input buffer named in */
  58:../../libDaisy//src/daisy_core.h **** #define IN_L in[0]
  59:../../libDaisy//src/daisy_core.h **** 
  60:../../libDaisy//src/daisy_core.h **** /** shorthand macro for simplifying the reading of the right 
  61:../../libDaisy//src/daisy_core.h ****  *  channel of a non-interleaved input buffer named in */
  62:../../libDaisy//src/daisy_core.h **** #define IN_R in[1]
  63:../../libDaisy//src/daisy_core.h **** 
  64:../../libDaisy//src/daisy_core.h **** /** 
  65:../../libDaisy//src/daisy_core.h ****     Computes cube.
  66:../../libDaisy//src/daisy_core.h ****     \param x Number to be cubed
  67:../../libDaisy//src/daisy_core.h ****     \return x ^ 3
  68:../../libDaisy//src/daisy_core.h **** */
  69:../../libDaisy//src/daisy_core.h **** FORCE_INLINE float cube(float x)
  70:../../libDaisy//src/daisy_core.h **** {
  71:../../libDaisy//src/daisy_core.h ****     return (x * x) * x;
  72:../../libDaisy//src/daisy_core.h **** }
  73:../../libDaisy//src/daisy_core.h **** 
  74:../../libDaisy//src/daisy_core.h **** /** 
  75:../../libDaisy//src/daisy_core.h ****     Converts unsigned 8-bit to float
  76:../../libDaisy//src/daisy_core.h ****     \param x Number to be scaled.
  77:../../libDaisy//src/daisy_core.h ****     \return Scaled number.
  78:../../libDaisy//src/daisy_core.h **** */
  79:../../libDaisy//src/daisy_core.h **** FORCE_INLINE float u82f(uint8_t x)
  80:../../libDaisy//src/daisy_core.h **** {
  81:../../libDaisy//src/daisy_core.h ****     return ((float)x - 127.f) * U82F_SCALE;
  82:../../libDaisy//src/daisy_core.h **** }
  83:../../libDaisy//src/daisy_core.h **** 
  84:../../libDaisy//src/daisy_core.h **** /**
  85:../../libDaisy//src/daisy_core.h ****     Converts float to unsigned 8-bit
  86:../../libDaisy//src/daisy_core.h **** */
  87:../../libDaisy//src/daisy_core.h **** FORCE_INLINE uint8_t f2u8(float x)
  88:../../libDaisy//src/daisy_core.h **** {
  89:../../libDaisy//src/daisy_core.h ****     x = x <= FBIPMIN ? FBIPMIN : x;
  90:../../libDaisy//src/daisy_core.h ****     x = x >= FBIPMAX ? FBIPMAX : x;
  91:../../libDaisy//src/daisy_core.h ****     return (uint8_t)((x * F2U8_SCALE) + F2U8_SCALE);
  92:../../libDaisy//src/daisy_core.h **** }
  93:../../libDaisy//src/daisy_core.h **** 
  94:../../libDaisy//src/daisy_core.h **** 
  95:../../libDaisy//src/daisy_core.h **** /** 
  96:../../libDaisy//src/daisy_core.h ****     Converts Signed 8-bit to float
  97:../../libDaisy//src/daisy_core.h ****     \param x Number to be scaled.
  98:../../libDaisy//src/daisy_core.h ****     \return Scaled number.
  99:../../libDaisy//src/daisy_core.h **** */
 100:../../libDaisy//src/daisy_core.h **** FORCE_INLINE float s82f(int8_t x)
 101:../../libDaisy//src/daisy_core.h **** {
 102:../../libDaisy//src/daisy_core.h ****     return (float)x * S82F_SCALE;
 103:../../libDaisy//src/daisy_core.h **** }
 104:../../libDaisy//src/daisy_core.h **** 
ARM GAS  /var/folders/hl/qgbwny5j0fd895c2c41bk3tw0000gp/T//cctD4vl2.s 			page 70


 105:../../libDaisy//src/daisy_core.h **** /**
 106:../../libDaisy//src/daisy_core.h ****     Converts float to Signed 8-bit
 107:../../libDaisy//src/daisy_core.h **** */
 108:../../libDaisy//src/daisy_core.h **** FORCE_INLINE int8_t f2s8(float x)
 109:../../libDaisy//src/daisy_core.h **** {
 110:../../libDaisy//src/daisy_core.h ****     x = x <= FBIPMIN ? FBIPMIN : x;
 111:../../libDaisy//src/daisy_core.h ****     x = x >= FBIPMAX ? FBIPMAX : x;
 112:../../libDaisy//src/daisy_core.h ****     return (int32_t)(x * F2S8_SCALE);
 113:../../libDaisy//src/daisy_core.h **** }
 114:../../libDaisy//src/daisy_core.h **** 
 115:../../libDaisy//src/daisy_core.h **** /** 
 116:../../libDaisy//src/daisy_core.h ****     Converts Signed 16-bit to float
 117:../../libDaisy//src/daisy_core.h ****     \param x Number to be scaled.
 118:../../libDaisy//src/daisy_core.h ****     \return Scaled number.
 119:../../libDaisy//src/daisy_core.h **** */
 120:../../libDaisy//src/daisy_core.h **** FORCE_INLINE float s162f(int16_t x)
 121:../../libDaisy//src/daisy_core.h **** {
 122:../../libDaisy//src/daisy_core.h ****     return (float)x * S162F_SCALE;
 123:../../libDaisy//src/daisy_core.h **** }
 124:../../libDaisy//src/daisy_core.h **** 
 125:../../libDaisy//src/daisy_core.h **** /**
 126:../../libDaisy//src/daisy_core.h ****     Converts float to Signed 16-bit
 127:../../libDaisy//src/daisy_core.h **** */
 128:../../libDaisy//src/daisy_core.h **** FORCE_INLINE int16_t f2s16(float x)
 129:../../libDaisy//src/daisy_core.h **** {
 130:../../libDaisy//src/daisy_core.h ****     x = x <= FBIPMIN ? FBIPMIN : x;
 131:../../libDaisy//src/daisy_core.h ****     x = x >= FBIPMAX ? FBIPMAX : x;
 132:../../libDaisy//src/daisy_core.h ****     return (int32_t)(x * F2S16_SCALE);
 133:../../libDaisy//src/daisy_core.h **** }
 134:../../libDaisy//src/daisy_core.h **** 
 135:../../libDaisy//src/daisy_core.h **** /**
 136:../../libDaisy//src/daisy_core.h ****     Converts Signed 24-bit to float
 137:../../libDaisy//src/daisy_core.h ****  */
 138:../../libDaisy//src/daisy_core.h **** FORCE_INLINE float s242f(int32_t x)
 139:../../libDaisy//src/daisy_core.h **** {
 140:../../libDaisy//src/daisy_core.h ****     x = (x ^ S24SIGN) - S24SIGN; //sign extend aka ((x<<8)>>8)
 141:../../libDaisy//src/daisy_core.h ****     return (float)x * S242F_SCALE;
 142:../../libDaisy//src/daisy_core.h **** }
 143:../../libDaisy//src/daisy_core.h **** /**
 144:../../libDaisy//src/daisy_core.h ****     Converts float to Signed 24-bit
 145:../../libDaisy//src/daisy_core.h ****  */
 146:../../libDaisy//src/daisy_core.h **** FORCE_INLINE int32_t f2s24(float x)
 147:../../libDaisy//src/daisy_core.h **** {
 148:../../libDaisy//src/daisy_core.h ****     x = x <= FBIPMIN ? FBIPMIN : x;
 149:../../libDaisy//src/daisy_core.h ****     x = x >= FBIPMAX ? FBIPMAX : x;
 150:../../libDaisy//src/daisy_core.h ****     return (int32_t)(x * F2S24_SCALE);
 151:../../libDaisy//src/daisy_core.h **** }
 152:../../libDaisy//src/daisy_core.h **** 
 153:../../libDaisy//src/daisy_core.h **** /**
 154:../../libDaisy//src/daisy_core.h ****     Converts Signed 32-bit to float
 155:../../libDaisy//src/daisy_core.h ****  */
 156:../../libDaisy//src/daisy_core.h **** FORCE_INLINE float s322f(int32_t x)
 157:../../libDaisy//src/daisy_core.h **** {
 158:../../libDaisy//src/daisy_core.h ****     return (float)x * S322F_SCALE;
 159:../../libDaisy//src/daisy_core.h **** }
 160:../../libDaisy//src/daisy_core.h **** /**
 161:../../libDaisy//src/daisy_core.h ****     Converts float to Signed 24-bit
ARM GAS  /var/folders/hl/qgbwny5j0fd895c2c41bk3tw0000gp/T//cctD4vl2.s 			page 71


 162:../../libDaisy//src/daisy_core.h ****  */
 163:../../libDaisy//src/daisy_core.h **** FORCE_INLINE int32_t f2s32(float x)
 164:../../libDaisy//src/daisy_core.h **** {
 165:../../libDaisy//src/daisy_core.h ****     x = x <= FBIPMIN ? FBIPMIN : x;
 166:../../libDaisy//src/daisy_core.h ****     x = x >= FBIPMAX ? FBIPMAX : x;
 167:../../libDaisy//src/daisy_core.h ****     return (int32_t)(x * F2S32_SCALE);
 168:../../libDaisy//src/daisy_core.h **** }
 169:../../libDaisy//src/daisy_core.h **** 
 170:../../libDaisy//src/daisy_core.h **** 
 171:../../libDaisy//src/daisy_core.h **** /** Enums and a simple struct for defining a hardware pin on the MCU
 172:../../libDaisy//src/daisy_core.h ****  *  These correlate with the stm32 datasheet, and are used to configure
 173:../../libDaisy//src/daisy_core.h ****  *  the hardware.
 174:../../libDaisy//src/daisy_core.h ****  * 
 175:../../libDaisy//src/daisy_core.h ****  *  This along with the dsy_gpio_pin class should no longer be used.
 176:../../libDaisy//src/daisy_core.h ****  *  They are available for backwards compatability. 
 177:../../libDaisy//src/daisy_core.h ****  * 
 178:../../libDaisy//src/daisy_core.h ****  *  Please use GPIOPort enum and the Pin struct instead.
 179:../../libDaisy//src/daisy_core.h ****  */
 180:../../libDaisy//src/daisy_core.h **** typedef enum
 181:../../libDaisy//src/daisy_core.h **** {
 182:../../libDaisy//src/daisy_core.h ****     DSY_GPIOA, /**< & */
 183:../../libDaisy//src/daisy_core.h ****     DSY_GPIOB, /**< & */
 184:../../libDaisy//src/daisy_core.h ****     DSY_GPIOC, /**< & */
 185:../../libDaisy//src/daisy_core.h ****     DSY_GPIOD, /**< & */
 186:../../libDaisy//src/daisy_core.h ****     DSY_GPIOE, /**< & */
 187:../../libDaisy//src/daisy_core.h ****     DSY_GPIOF, /**< & */
 188:../../libDaisy//src/daisy_core.h ****     DSY_GPIOG, /**< & */
 189:../../libDaisy//src/daisy_core.h ****     DSY_GPIOH, /**< & */
 190:../../libDaisy//src/daisy_core.h ****     DSY_GPIOI, /**< & */
 191:../../libDaisy//src/daisy_core.h ****     DSY_GPIOJ, /**< & */
 192:../../libDaisy//src/daisy_core.h ****     DSY_GPIOK, /**< & */
 193:../../libDaisy//src/daisy_core.h ****     DSY_GPIOX, /** This is a non-existant port for unsupported bits of hardware. */
 194:../../libDaisy//src/daisy_core.h ****     DSY_GPIO_LAST, /** Final enum member */
 195:../../libDaisy//src/daisy_core.h **** } dsy_gpio_port;
 196:../../libDaisy//src/daisy_core.h **** 
 197:../../libDaisy//src/daisy_core.h **** /** Hardware define pins 
 198:../../libDaisy//src/daisy_core.h ****  *  
 199:../../libDaisy//src/daisy_core.h ****  *  The dsy_gpio_pin struct should no longer be used, and is only available for
 200:../../libDaisy//src/daisy_core.h ****  *  backwards compatability.
 201:../../libDaisy//src/daisy_core.h ****  * 
 202:../../libDaisy//src/daisy_core.h ****  *  Please use Pin struct instead.
 203:../../libDaisy//src/daisy_core.h ****  */
 204:../../libDaisy//src/daisy_core.h **** typedef struct
 205:../../libDaisy//src/daisy_core.h **** {
 206:../../libDaisy//src/daisy_core.h ****     dsy_gpio_port port; /**< & */
 207:../../libDaisy//src/daisy_core.h ****     uint8_t       pin;  /**< number 0-15 */
 208:../../libDaisy//src/daisy_core.h **** } dsy_gpio_pin;
 209:../../libDaisy//src/daisy_core.h **** 
 210:../../libDaisy//src/daisy_core.h **** /** Helper for creating pins from port/pin combos easily
 211:../../libDaisy//src/daisy_core.h ****  * 
 212:../../libDaisy//src/daisy_core.h ****  *  The dsy_gpio_pin struct should no longer be used, and is only available for
 213:../../libDaisy//src/daisy_core.h ****  *  backwards compatability.
 214:../../libDaisy//src/daisy_core.h ****  * 
 215:../../libDaisy//src/daisy_core.h ****  *  Please use Pin struct instead.
 216:../../libDaisy//src/daisy_core.h **** */
 217:../../libDaisy//src/daisy_core.h **** FORCE_INLINE dsy_gpio_pin dsy_pin(dsy_gpio_port port, uint8_t pin)
 218:../../libDaisy//src/daisy_core.h **** {
ARM GAS  /var/folders/hl/qgbwny5j0fd895c2c41bk3tw0000gp/T//cctD4vl2.s 			page 72


 219:../../libDaisy//src/daisy_core.h ****     dsy_gpio_pin p;
 220:../../libDaisy//src/daisy_core.h ****     p.port = port;
 221:../../libDaisy//src/daisy_core.h ****     p.pin  = pin;
 222:../../libDaisy//src/daisy_core.h ****     return p;
 223:../../libDaisy//src/daisy_core.h **** }
 224:../../libDaisy//src/daisy_core.h **** 
 225:../../libDaisy//src/daisy_core.h **** /** Helper for testing sameness of two dsy_gpio_pins
 226:../../libDaisy//src/daisy_core.h ****  *  \return    1 if same, 0 if different
 227:../../libDaisy//src/daisy_core.h ****  * 
 228:../../libDaisy//src/daisy_core.h ****  *  The dsy_gpio_pin struct should no longer be used, and is only available for
 229:../../libDaisy//src/daisy_core.h ****  *  backwards compatability.
 230:../../libDaisy//src/daisy_core.h ****  * 
 231:../../libDaisy//src/daisy_core.h ****  *  Please use Pin struct instead.
 232:../../libDaisy//src/daisy_core.h ****  */
 233:../../libDaisy//src/daisy_core.h **** FORCE_INLINE uint8_t dsy_pin_cmp(dsy_gpio_pin *a, dsy_gpio_pin *b)
 234:../../libDaisy//src/daisy_core.h **** {
 235:../../libDaisy//src/daisy_core.h ****     return ((a->port == b->port) && (a->pin == b->pin));
 236:../../libDaisy//src/daisy_core.h **** }
 237:../../libDaisy//src/daisy_core.h **** 
 238:../../libDaisy//src/daisy_core.h **** #ifdef __cplusplus
 239:../../libDaisy//src/daisy_core.h **** 
 240:../../libDaisy//src/daisy_core.h **** namespace daisy
 241:../../libDaisy//src/daisy_core.h **** {
 242:../../libDaisy//src/daisy_core.h **** /** @brief GPIO Port names */
 243:../../libDaisy//src/daisy_core.h **** enum GPIOPort
 244:../../libDaisy//src/daisy_core.h **** {
 245:../../libDaisy//src/daisy_core.h ****     PORTA, /**< Port A */
 246:../../libDaisy//src/daisy_core.h ****     PORTB, /**< Port B */
 247:../../libDaisy//src/daisy_core.h ****     PORTC, /**< Port C */
 248:../../libDaisy//src/daisy_core.h ****     PORTD, /**< Port D */
 249:../../libDaisy//src/daisy_core.h ****     PORTE, /**< Port E */
 250:../../libDaisy//src/daisy_core.h ****     PORTF, /**< Port F */
 251:../../libDaisy//src/daisy_core.h ****     PORTG, /**< Port G */
 252:../../libDaisy//src/daisy_core.h ****     PORTH, /**< Port H */
 253:../../libDaisy//src/daisy_core.h ****     PORTI, /**< Port I */
 254:../../libDaisy//src/daisy_core.h ****     PORTJ, /**< Port J */
 255:../../libDaisy//src/daisy_core.h ****     PORTK, /**< Port K */
 256:../../libDaisy//src/daisy_core.h ****     PORTX, /**< Used as a dummy port to signal an invalid pin. */
 257:../../libDaisy//src/daisy_core.h **** };
 258:../../libDaisy//src/daisy_core.h **** 
 259:../../libDaisy//src/daisy_core.h **** /** @brief representation of hardware port/pin combination */
 260:../../libDaisy//src/daisy_core.h **** struct Pin
 261:../../libDaisy//src/daisy_core.h **** {
 262:../../libDaisy//src/daisy_core.h ****     GPIOPort port;
 263:../../libDaisy//src/daisy_core.h ****     uint8_t  pin;
 264:../../libDaisy//src/daisy_core.h **** 
 265:../../libDaisy//src/daisy_core.h ****     /** @brief Constructor creates a valid pin. 
 266:../../libDaisy//src/daisy_core.h ****      *  @param pt GPIOPort between PA, and PK corresponding to STM32 Port.
 267:../../libDaisy//src/daisy_core.h ****      *  @param pn pin number in range of 0-15
 268:../../libDaisy//src/daisy_core.h ****     */
 269:../../libDaisy//src/daisy_core.h ****     constexpr Pin(const GPIOPort pt, const uint8_t pn) : port(pt), pin(pn) {}
 270:../../libDaisy//src/daisy_core.h **** 
 271:../../libDaisy//src/daisy_core.h ****     /** @brief Basic Constructor creates an invalid Pin object */
 272:../../libDaisy//src/daisy_core.h ****     constexpr Pin() : port(PORTX), pin(255) {}
 273:../../libDaisy//src/daisy_core.h **** 
 274:../../libDaisy//src/daisy_core.h ****     /** @brief checks validity of a Pin 
 275:../../libDaisy//src/daisy_core.h ****      *  @retval returns true if the port is a valid hardware pin, otherwise false.
ARM GAS  /var/folders/hl/qgbwny5j0fd895c2c41bk3tw0000gp/T//cctD4vl2.s 			page 73


 276:../../libDaisy//src/daisy_core.h ****     */
 277:../../libDaisy//src/daisy_core.h ****     constexpr bool IsValid() const { return port != PORTX && pin < 16; }
 278:../../libDaisy//src/daisy_core.h **** 
 279:../../libDaisy//src/daisy_core.h ****     /** @brief comparison operator for checking equality between Pin objects */
 280:../../libDaisy//src/daisy_core.h ****     constexpr bool operator==(const Pin &rhs) const
 281:../../libDaisy//src/daisy_core.h ****     {
 282:../../libDaisy//src/daisy_core.h ****         return (rhs.port == port) && (rhs.pin == pin);
 283:../../libDaisy//src/daisy_core.h ****     }
 284:../../libDaisy//src/daisy_core.h **** 
 285:../../libDaisy//src/daisy_core.h ****     /** @brief comparison operator for checking inequality between Pin objects */
 286:../../libDaisy//src/daisy_core.h ****     constexpr bool operator!=(const Pin &rhs) const { return !operator==(rhs); }
 287:../../libDaisy//src/daisy_core.h **** 
 288:../../libDaisy//src/daisy_core.h ****     /** @brief conversion operation for converting to the old-style representation
 289:../../libDaisy//src/daisy_core.h ****      *         of a pin.
 290:../../libDaisy//src/daisy_core.h ****      * 
 291:../../libDaisy//src/daisy_core.h ****      *  This allows the new Pin type to be used in place of the older, dsy_gpio_pin
 292:../../libDaisy//src/daisy_core.h ****      *  type.
 293:../../libDaisy//src/daisy_core.h ****      */
 294:../../libDaisy//src/daisy_core.h ****     operator dsy_gpio_pin() const
 2350              		.loc 11 294 5 view .LVU543
 2351              	.LBE804:
 295:../../libDaisy//src/daisy_core.h ****     {
 296:../../libDaisy//src/daisy_core.h ****         return dsy_pin(static_cast<dsy_gpio_port>(port), pin);
 2352              		.loc 11 296 9 view .LVU544
 2353              	.LBB806:
 2354              	.LBB805:
 2355              	.LBI805:
 217:../../libDaisy//src/daisy_core.h **** {
 2356              		.loc 11 217 27 view .LVU545
 2357              	.LBE805:
 2358              	.LBE806:
 219:../../libDaisy//src/daisy_core.h ****     p.port = port;
 2359              		.loc 11 219 5 view .LVU546
 220:../../libDaisy//src/daisy_core.h ****     p.pin  = pin;
 2360              		.loc 11 220 5 view .LVU547
 221:../../libDaisy//src/daisy_core.h ****     return p;
 2361              		.loc 11 221 5 view .LVU548
 222:../../libDaisy//src/daisy_core.h **** }
 2362              		.loc 11 222 5 view .LVU549
 2363              		.loc 9 60 29 is_stmt 0 view .LVU550
 2364 003a FFF7FEFF 		bl	_ZN5daisy16AdcChannelConfig10InitSingleE12dsy_gpio_pin
 2365              	.LVL97:
  61:test.cpp      **** 	adc_config[pot2].InitSingle(A1);
 2366              		.loc 9 61 2 is_stmt 1 view .LVU551
 2367              	.LBB807:
 2368              	.LBI807:
 294:../../libDaisy//src/daisy_core.h ****     {
 2369              		.loc 11 294 5 view .LVU552
 2370              	.LBE807:
 2371              		.loc 11 296 9 view .LVU553
 2372              	.LBB809:
 2373              	.LBB808:
 2374              	.LBI808:
 217:../../libDaisy//src/daisy_core.h **** {
 2375              		.loc 11 217 27 view .LVU554
 2376              	.LBE808:
 2377              	.LBE809:
ARM GAS  /var/folders/hl/qgbwny5j0fd895c2c41bk3tw0000gp/T//cctD4vl2.s 			page 74


 219:../../libDaisy//src/daisy_core.h ****     p.port = port;
 2378              		.loc 11 219 5 view .LVU555
 220:../../libDaisy//src/daisy_core.h ****     p.pin  = pin;
 2379              		.loc 11 220 5 view .LVU556
 221:../../libDaisy//src/daisy_core.h ****     return p;
 2380              		.loc 11 221 5 view .LVU557
 222:../../libDaisy//src/daisy_core.h **** }
 2381              		.loc 11 222 5 view .LVU558
 222:../../libDaisy//src/daisy_core.h **** }
 2382              		.loc 11 222 5 is_stmt 0 view .LVU559
 2383 003e 0323     		movs	r3, #3
 2384 0040 8DF81050 		strb	r5, [sp, #16]
 2385              		.loc 9 61 29 view .LVU560
 2386 0044 0DF13100 		add	r0, sp, #49
 2387 0048 8DF81130 		strb	r3, [sp, #17]
 2388              	.LVL98:
 2389              		.loc 9 61 29 view .LVU561
 2390 004c 0499     		ldr	r1, [sp, #16]
 2391 004e FFF7FEFF 		bl	_ZN5daisy16AdcChannelConfig10InitSingleE12dsy_gpio_pin
 2392              	.LVL99:
  62:test.cpp      **** 	adc_config[pot3].InitSingle(A4);
 2393              		.loc 9 62 2 is_stmt 1 view .LVU562
 2394              	.LBB810:
 2395              	.LBI810:
 294:../../libDaisy//src/daisy_core.h ****     {
 2396              		.loc 11 294 5 view .LVU563
 2397              	.LBE810:
 2398              		.loc 11 296 9 view .LVU564
 2399              	.LBB812:
 2400              	.LBB811:
 2401              	.LBI811:
 217:../../libDaisy//src/daisy_core.h **** {
 2402              		.loc 11 217 27 view .LVU565
 2403              	.LBE811:
 2404              	.LBE812:
 219:../../libDaisy//src/daisy_core.h ****     p.port = port;
 2405              		.loc 11 219 5 view .LVU566
 220:../../libDaisy//src/daisy_core.h ****     p.pin  = pin;
 2406              		.loc 11 220 5 view .LVU567
 221:../../libDaisy//src/daisy_core.h ****     return p;
 2407              		.loc 11 221 5 view .LVU568
 222:../../libDaisy//src/daisy_core.h **** }
 2408              		.loc 11 222 5 view .LVU569
 222:../../libDaisy//src/daisy_core.h **** }
 2409              		.loc 11 222 5 is_stmt 0 view .LVU570
 2410 0052 8DF81450 		strb	r5, [sp, #20]
 2411 0056 8DF81540 		strb	r4, [sp, #21]
 2412              	.LVL100:
 2413              		.loc 9 62 29 view .LVU571
 2414 005a 0DF14200 		add	r0, sp, #66
 2415 005e 0599     		ldr	r1, [sp, #20]
 2416 0060 FFF7FEFF 		bl	_ZN5daisy16AdcChannelConfig10InitSingleE12dsy_gpio_pin
 2417              	.LVL101:
  63:test.cpp      **** 	adc_config[pot4].InitSingle(A5);
 2418              		.loc 9 63 2 is_stmt 1 view .LVU572
 2419              	.LBB813:
 2420              	.LBI813:
ARM GAS  /var/folders/hl/qgbwny5j0fd895c2c41bk3tw0000gp/T//cctD4vl2.s 			page 75


 294:../../libDaisy//src/daisy_core.h ****     {
 2421              		.loc 11 294 5 view .LVU573
 2422              	.LBE813:
 2423              		.loc 11 296 9 view .LVU574
 2424              	.LBB815:
 2425              	.LBB814:
 2426              	.LBI814:
 217:../../libDaisy//src/daisy_core.h **** {
 2427              		.loc 11 217 27 view .LVU575
 2428              	.LBE814:
 2429              	.LBE815:
 219:../../libDaisy//src/daisy_core.h ****     p.port = port;
 2430              		.loc 11 219 5 view .LVU576
 220:../../libDaisy//src/daisy_core.h ****     p.pin  = pin;
 2431              		.loc 11 220 5 view .LVU577
 221:../../libDaisy//src/daisy_core.h ****     return p;
 2432              		.loc 11 221 5 view .LVU578
 222:../../libDaisy//src/daisy_core.h **** }
 2433              		.loc 11 222 5 view .LVU579
 222:../../libDaisy//src/daisy_core.h **** }
 2434              		.loc 11 222 5 is_stmt 0 view .LVU580
 2435 0064 8DF81870 		strb	r7, [sp, #24]
 2436 0068 8DF81960 		strb	r6, [sp, #25]
 2437              	.LVL102:
 2438              		.loc 9 63 29 view .LVU581
 2439 006c 0DF15300 		add	r0, sp, #83
 2440 0070 0699     		ldr	r1, [sp, #24]
 2441 0072 FFF7FEFF 		bl	_ZN5daisy16AdcChannelConfig10InitSingleE12dsy_gpio_pin
 2442              	.LVL103:
  64:test.cpp      **** 	adc_config[pot5].InitSingle(A9);
 2443              		.loc 9 64 2 is_stmt 1 view .LVU582
 2444              	.LBB816:
 2445              	.LBI816:
 294:../../libDaisy//src/daisy_core.h ****     {
 2446              		.loc 11 294 5 view .LVU583
 2447              	.LBE816:
 2448              		.loc 11 296 9 view .LVU584
 2449              	.LBB818:
 2450              	.LBB817:
 2451              	.LBI817:
 217:../../libDaisy//src/daisy_core.h **** {
 2452              		.loc 11 217 27 view .LVU585
 2453              	.LBE817:
 2454              	.LBE818:
 219:../../libDaisy//src/daisy_core.h ****     p.port = port;
 2455              		.loc 11 219 5 view .LVU586
 220:../../libDaisy//src/daisy_core.h ****     p.pin  = pin;
 2456              		.loc 11 220 5 view .LVU587
 221:../../libDaisy//src/daisy_core.h ****     return p;
 2457              		.loc 11 221 5 view .LVU588
 222:../../libDaisy//src/daisy_core.h **** }
 2458              		.loc 11 222 5 view .LVU589
 222:../../libDaisy//src/daisy_core.h **** }
 2459              		.loc 11 222 5 is_stmt 0 view .LVU590
 2460 0076 8DF81C50 		strb	r5, [sp, #28]
 2461 007a 8DF81D60 		strb	r6, [sp, #29]
 2462              	.LVL104:
ARM GAS  /var/folders/hl/qgbwny5j0fd895c2c41bk3tw0000gp/T//cctD4vl2.s 			page 76


 2463              		.loc 9 64 29 view .LVU591
 2464 007e 19A8     		add	r0, sp, #100
 2465 0080 0799     		ldr	r1, [sp, #28]
 2466 0082 FFF7FEFF 		bl	_ZN5daisy16AdcChannelConfig10InitSingleE12dsy_gpio_pin
 2467              	.LVL105:
  65:test.cpp      **** 	hw.adc.Init(adc_config,NUM_ADC_CHANNELS);
 2468              		.loc 9 65 2 is_stmt 1 view .LVU592
  66:test.cpp      **** 	hw.adc.Start();
  67:test.cpp      **** 
  68:test.cpp      **** 	// set up oscillators 
  69:test.cpp      **** 	osc_a.Init(samplerate);
 2469              		.loc 9 69 12 is_stmt 0 view .LVU593
 2470 0086 174F     		ldr	r7, .L50+4
  65:test.cpp      **** 	hw.adc.Init(adc_config,NUM_ADC_CHANNELS);
 2471              		.loc 9 65 13 view .LVU594
 2472 0088 08A9     		add	r1, sp, #32
 2473 008a 0423     		movs	r3, #4
 2474 008c 0522     		movs	r2, #5
 2475 008e 1648     		ldr	r0, .L50+8
 2476 0090 FFF7FEFF 		bl	_ZN5daisy9AdcHandle4InitEPNS_16AdcChannelConfigEjNS0_12OverSamplingE
 2477              	.LVL106:
  66:test.cpp      **** 	hw.adc.Start();
 2478              		.loc 9 66 2 is_stmt 1 view .LVU595
  70:test.cpp      **** 	osc_a.SetWaveform(osc_a.WAVE_POLYBLEP_SAW); 
  71:test.cpp      **** 
  72:test.cpp      **** 	osc_b.Init(samplerate);
 2479              		.loc 9 72 12 is_stmt 0 view .LVU596
 2480 0094 154E     		ldr	r6, .L50+12
  66:test.cpp      **** 	hw.adc.Start();
 2481              		.loc 9 66 14 view .LVU597
 2482 0096 1448     		ldr	r0, .L50+8
 2483 0098 FFF7FEFF 		bl	_ZN5daisy9AdcHandle5StartEv
 2484              	.LVL107:
  69:test.cpp      **** 	osc_a.SetWaveform(osc_a.WAVE_POLYBLEP_SAW); 
 2485              		.loc 9 69 2 is_stmt 1 view .LVU598
  73:test.cpp      **** 	osc_b.SetWaveform(osc_a.WAVE_POLYBLEP_SAW); 
  74:test.cpp      **** 	
  75:test.cpp      **** 	osc_c.Init(samplerate);
 2486              		.loc 9 75 12 is_stmt 0 view .LVU599
 2487 009c 144D     		ldr	r5, .L50+16
  69:test.cpp      **** 	osc_a.SetWaveform(osc_a.WAVE_POLYBLEP_SAW); 
 2488              		.loc 9 69 12 view .LVU600
 2489 009e 9DED010A 		vldr.32	s0, [sp, #4]	@ int
 2490 00a2 3846     		mov	r0, r7
 2491 00a4 FFF7FEFF 		bl	_ZN7daisysp10Oscillator4InitEf
 2492              	.LVL108:
  70:test.cpp      **** 
 2493              		.loc 9 70 2 is_stmt 1 view .LVU601
 2494              	.LBB819:
 2495              	.LBI819:
  64:../../DaisySP//Source/Synthesis/oscillator.h ****     }
  65:../../DaisySP//Source/Synthesis/oscillator.h **** 
  66:../../DaisySP//Source/Synthesis/oscillator.h **** 
  67:../../DaisySP//Source/Synthesis/oscillator.h ****     /** Sets the amplitude of the waveform.
  68:../../DaisySP//Source/Synthesis/oscillator.h ****     */
  69:../../DaisySP//Source/Synthesis/oscillator.h ****     inline void SetAmp(const float a) { amp_ = a; }
  70:../../DaisySP//Source/Synthesis/oscillator.h ****     /** Sets the waveform to be synthesized by the Process() function.
ARM GAS  /var/folders/hl/qgbwny5j0fd895c2c41bk3tw0000gp/T//cctD4vl2.s 			page 77


  71:../../DaisySP//Source/Synthesis/oscillator.h ****     */
  72:../../DaisySP//Source/Synthesis/oscillator.h ****     inline void SetWaveform(const uint8_t wf)
 2496              		.loc 6 72 17 view .LVU602
 2497              	.LBB820:
  73:../../DaisySP//Source/Synthesis/oscillator.h ****     {
  74:../../DaisySP//Source/Synthesis/oscillator.h ****         waveform_ = wf < WAVE_LAST ? wf : WAVE_SIN;
 2498              		.loc 6 74 9 view .LVU603
 2499              	.LBE820:
 2500              	.LBE819:
  72:test.cpp      **** 	osc_b.SetWaveform(osc_a.WAVE_POLYBLEP_SAW); 
 2501              		.loc 9 72 12 is_stmt 0 view .LVU604
 2502 00a8 9DED010A 		vldr.32	s0, [sp, #4]	@ int
 2503 00ac 3046     		mov	r0, r6
 2504              	.LBB822:
 2505              	.LBB821:
 2506              		.loc 6 74 19 view .LVU605
 2507 00ae 3C70     		strb	r4, [r7]
 2508              	.LVL109:
 2509              		.loc 6 74 19 view .LVU606
 2510              	.LBE821:
 2511              	.LBE822:
  72:test.cpp      **** 	osc_b.SetWaveform(osc_a.WAVE_POLYBLEP_SAW); 
 2512              		.loc 9 72 2 is_stmt 1 view .LVU607
  72:test.cpp      **** 	osc_b.SetWaveform(osc_a.WAVE_POLYBLEP_SAW); 
 2513              		.loc 9 72 12 is_stmt 0 view .LVU608
 2514 00b0 FFF7FEFF 		bl	_ZN7daisysp10Oscillator4InitEf
 2515              	.LVL110:
  73:test.cpp      **** 	
 2516              		.loc 9 73 2 is_stmt 1 view .LVU609
 2517              	.LBB823:
 2518              	.LBI823:
  72:../../DaisySP//Source/Synthesis/oscillator.h ****     {
 2519              		.loc 6 72 17 view .LVU610
 2520              	.LBB824:
 2521              		.loc 6 74 9 view .LVU611
 2522              	.LBE824:
 2523              	.LBE823:
 2524              		.loc 9 75 12 is_stmt 0 view .LVU612
 2525 00b4 2846     		mov	r0, r5
 2526 00b6 9DED010A 		vldr.32	s0, [sp, #4]	@ int
 2527              	.LBB826:
 2528              	.LBB825:
 2529              		.loc 6 74 19 view .LVU613
 2530 00ba 3470     		strb	r4, [r6]
 2531              	.LVL111:
 2532              		.loc 6 74 19 view .LVU614
 2533              	.LBE825:
 2534              	.LBE826:
 2535              		.loc 9 75 2 is_stmt 1 view .LVU615
 2536              		.loc 9 75 12 is_stmt 0 view .LVU616
 2537 00bc FFF7FEFF 		bl	_ZN7daisysp10Oscillator4InitEf
 2538              	.LVL112:
  76:test.cpp      **** 	osc_c.SetWaveform(osc_a.WAVE_POLYBLEP_SAW); 
 2539              		.loc 9 76 2 is_stmt 1 view .LVU617
 2540              	.LBB827:
 2541              	.LBI827:
  72:../../DaisySP//Source/Synthesis/oscillator.h ****     {
ARM GAS  /var/folders/hl/qgbwny5j0fd895c2c41bk3tw0000gp/T//cctD4vl2.s 			page 78


 2542              		.loc 6 72 17 view .LVU618
 2543              	.LBB828:
 2544              		.loc 6 74 9 view .LVU619
 2545              	.LBE828:
 2546              	.LBE827:
 2547              	.LBB830:
 2548              	.LBB831:
 2549              	.LBB832:
 2550              	.LBB833:
 145:fx_engine.h   ****         lfo_phase_[0] = 0.f;
 2551              		.loc 8 145 23 is_stmt 0 view .LVU620
 2552 00c0 0C4B     		ldr	r3, .L50+20
 146:fx_engine.h   ****         lfo_phase_[1] = 0.f;
 2553              		.loc 8 146 23 view .LVU621
 2554 00c2 0022     		movs	r2, #0
 145:fx_engine.h   ****         lfo_phase_[0] = 0.f;
 2555              		.loc 8 145 23 view .LVU622
 2556 00c4 0C49     		ldr	r1, .L50+24
 2557              	.LBE833:
 2558              	.LBE832:
 2559              	.LBE831:
 2560              	.LBE830:
  77:test.cpp      **** 
  78:test.cpp      **** 	ens.Init(reverb_buffer);
  79:test.cpp      **** 
  80:test.cpp      **** 	hw.StartAudio(AudioCallback);
 2561              		.loc 9 80 15 view .LVU623
 2562 00c6 0648     		ldr	r0, .L50
 2563              	.LBB842:
 2564              	.LBB839:
 2565              	.LBB836:
 2566              	.LBB834:
 145:fx_engine.h   ****         lfo_phase_[0] = 0.f;
 2567              		.loc 8 145 23 view .LVU624
 2568 00c8 5960     		str	r1, [r3, #4]
 146:fx_engine.h   ****         lfo_phase_[1] = 0.f;
 2569              		.loc 8 146 23 view .LVU625
 2570 00ca 9A60     		str	r2, [r3, #8]	@ float
 2571              	.LBE834:
 2572              	.LBE836:
 2573              	.LBE839:
 2574              	.LBE842:
 2575              		.loc 9 80 15 view .LVU626
 2576 00cc 0B49     		ldr	r1, .L50+28
 2577              	.LBB843:
 2578              	.LBB840:
 2579              	.LBB837:
 2580              	.LBB835:
 147:fx_engine.h   **** 
 2581              		.loc 8 147 23 view .LVU627
 2582 00ce DA60     		str	r2, [r3, #12]	@ float
 149:fx_engine.h   ****         lfo_freq_[1] = 0.f;
 2583              		.loc 8 149 22 view .LVU628
 2584 00d0 1A61     		str	r2, [r3, #16]	@ float
 150:fx_engine.h   ****     }
 2585              		.loc 8 150 22 view .LVU629
 2586 00d2 5A61     		str	r2, [r3, #20]	@ float
ARM GAS  /var/folders/hl/qgbwny5j0fd895c2c41bk3tw0000gp/T//cctD4vl2.s 			page 79


 2587              	.LBE835:
 2588              	.LBE837:
 2589              	.LBE840:
 2590              	.LBE843:
 2591              	.LBB844:
 2592              	.LBB829:
 2593              		.loc 6 74 19 view .LVU630
 2594 00d4 2C70     		strb	r4, [r5]
 2595              	.LVL113:
 2596              		.loc 6 74 19 view .LVU631
 2597              	.LBE829:
 2598              	.LBE844:
  78:test.cpp      **** 
 2599              		.loc 9 78 2 is_stmt 1 view .LVU632
 2600              	.LBB845:
 2601              	.LBI830:
  45:ensemble.h    ****     engine_.Init(buffer);
 2602              		.loc 7 45 8 view .LVU633
 2603              	.LBB841:
  46:ensemble.h    ****     phase_1_ = 0;
 2604              		.loc 7 46 5 view .LVU634
 2605              	.LBB838:
 2606              	.LBI832:
 143:fx_engine.h   ****     {
 2607              		.loc 8 143 10 view .LVU635
 143:fx_engine.h   ****     {
 2608              		.loc 8 143 10 is_stmt 0 view .LVU636
 2609              	.LBE838:
  47:ensemble.h    ****     phase_2_ = 0;
 2610              		.loc 7 47 5 is_stmt 1 view .LVU637
  47:ensemble.h    ****     phase_2_ = 0;
 2611              		.loc 7 47 14 is_stmt 0 view .LVU638
 2612 00d6 1A62     		str	r2, [r3, #32]	@ float
  48:ensemble.h    ****   }
 2613              		.loc 7 48 5 is_stmt 1 view .LVU639
  48:ensemble.h    ****   }
 2614              		.loc 7 48 14 is_stmt 0 view .LVU640
 2615 00d8 5A62     		str	r2, [r3, #36]	@ float
 2616              	.LVL114:
  48:ensemble.h    ****   }
 2617              		.loc 7 48 14 view .LVU641
 2618              	.LBE841:
 2619              	.LBE845:
 2620              		.loc 9 80 2 is_stmt 1 view .LVU642
 2621              		.loc 9 80 15 is_stmt 0 view .LVU643
 2622 00da FFF7FEFF 		bl	_ZN5daisy9DaisySeed10StartAudioEPFvPKPKfPPfjE
 2623              	.LVL115:
 2624              	.L48:
  81:test.cpp      **** 	while(1) {}
 2625              		.loc 9 81 2 is_stmt 1 discriminator 1 view .LVU644
 2626              		.loc 9 81 2 discriminator 1 view .LVU645
 2627              		.loc 9 81 2 discriminator 1 view .LVU646
 2628              		.loc 9 81 2 discriminator 1 view .LVU647
 2629 00de FEE7     		b	.L48
 2630              	.L51:
 2631              		.align	2
 2632              	.L50:
ARM GAS  /var/folders/hl/qgbwny5j0fd895c2c41bk3tw0000gp/T//cctD4vl2.s 			page 80


 2633 00e0 00000000 		.word	.LANCHOR0
 2634 00e4 00000000 		.word	.LANCHOR1
 2635 00e8 18000000 		.word	.LANCHOR0+24
 2636 00ec 00000000 		.word	.LANCHOR2
 2637 00f0 00000000 		.word	.LANCHOR3
 2638 00f4 00000000 		.word	.LANCHOR4
 2639 00f8 00000000 		.word	reverb_buffer
 2640 00fc 00000000 		.word	_Z13AudioCallbackPKPKfPPfj
 2641              		.cfi_endproc
 2642              	.LFE4831:
 2644              		.section	.text.startup._GLOBAL__sub_I_hw,"ax",%progbits
 2645              		.align	1
 2646              		.p2align 2,,3
 2647              		.syntax unified
 2648              		.thumb
 2649              		.thumb_func
 2650              		.fpu fpv5-d16
 2652              	_GLOBAL__sub_I_hw:
 2653              	.LFB5413:
  82:test.cpp      **** }
 2654              		.loc 9 82 1 view -0
 2655              		.cfi_startproc
 2656              		@ args = 0, pretend = 0, frame = 0
 2657              		@ frame_needed = 0, uses_anonymous_args = 0
 2658              	.LBB874:
 2659              	.LBI874:
 2660              		.loc 9 82 1 view .LVU649
 2661              	.LVL116:
 2662              	.LBB875:
 2663              	.LBB876:
 2664              	.LBI876:
  21:../../libDaisy//src/daisy_seed.h ****     ~DaisySeed() {}
 2665              		.loc 1 21 5 view .LVU650
 2666              	.LBB877:
 2667              	.LBB878:
 2668              	.LBI878:
 2669              		.file 12 "../../libDaisy//src/per/qspi.h"
   1:../../libDaisy//src/per/qspi.h **** #ifndef DSY_QSPI
   2:../../libDaisy//src/per/qspi.h **** #define DSY_QSPI /**< Macro */
   3:../../libDaisy//src/per/qspi.h **** 
   4:../../libDaisy//src/per/qspi.h **** #ifndef UNIT_TEST // for unit tests, a dummy implementation
   5:../../libDaisy//src/per/qspi.h **** 
   6:../../libDaisy//src/per/qspi.h **** #include <cstdint>
   7:../../libDaisy//src/per/qspi.h **** #include "daisy_core.h" // Added for dsy_gpio_pin typedef
   8:../../libDaisy//src/per/qspi.h **** 
   9:../../libDaisy//src/per/qspi.h **** #define DSY_QSPI_TEXT       \
  10:../../libDaisy//src/per/qspi.h ****     __attribute__((section( \
  11:../../libDaisy//src/per/qspi.h ****         ".qspiflash_text"))) /**< used for reading memory in memory_mapped mode. */
  12:../../libDaisy//src/per/qspi.h **** #define DSY_QSPI_DATA       \
  13:../../libDaisy//src/per/qspi.h ****     __attribute__((section( \
  14:../../libDaisy//src/per/qspi.h ****         ".qspiflash_data"))) /**< used for reading memory in memory_mapped mode. */
  15:../../libDaisy//src/per/qspi.h **** #define DSY_QSPI_BSS        \
  16:../../libDaisy//src/per/qspi.h ****     __attribute__((section( \
  17:../../libDaisy//src/per/qspi.h ****         ".qspiflash_bss"))) /**< used for reading memory in memory_mapped mode. */
  18:../../libDaisy//src/per/qspi.h **** 
  19:../../libDaisy//src/per/qspi.h **** namespace daisy
  20:../../libDaisy//src/per/qspi.h **** {
ARM GAS  /var/folders/hl/qgbwny5j0fd895c2c41bk3tw0000gp/T//cctD4vl2.s 			page 81


  21:../../libDaisy//src/per/qspi.h **** /** @addtogroup serial
  22:../../libDaisy//src/per/qspi.h **** @{
  23:../../libDaisy//src/per/qspi.h **** */
  24:../../libDaisy//src/per/qspi.h **** 
  25:../../libDaisy//src/per/qspi.h **** /** 
  26:../../libDaisy//src/per/qspi.h ****  Driver for QSPI peripheral to interface with external flash memory. \n 
  27:../../libDaisy//src/per/qspi.h ****     Currently supported QSPI Devices: \n 
  28:../../libDaisy//src/per/qspi.h ****     * IS25LP080D
  29:../../libDaisy//src/per/qspi.h **** */
  30:../../libDaisy//src/per/qspi.h **** class QSPIHandle
  31:../../libDaisy//src/per/qspi.h **** {
  32:../../libDaisy//src/per/qspi.h ****   public:
  33:../../libDaisy//src/per/qspi.h ****     enum Result
  34:../../libDaisy//src/per/qspi.h ****     {
  35:../../libDaisy//src/per/qspi.h ****         OK = 0,
  36:../../libDaisy//src/per/qspi.h ****         ERR
  37:../../libDaisy//src/per/qspi.h ****     };
  38:../../libDaisy//src/per/qspi.h **** 
  39:../../libDaisy//src/per/qspi.h ****     /** Indicates the current status of the module. 
  40:../../libDaisy//src/per/qspi.h ****          *  Warnings are indicated by a leading W.
  41:../../libDaisy//src/per/qspi.h ****          *  Errors are indicated by a leading E and cause an immediate exit.
  42:../../libDaisy//src/per/qspi.h ****          * 
  43:../../libDaisy//src/per/qspi.h ****          *  \param GOOD - No errors have been reported.
  44:../../libDaisy//src/per/qspi.h ****          *  \param E_HAL_ERROR - HAL code did not return HAL_OK.
  45:../../libDaisy//src/per/qspi.h ****          *  \param E_SWITCHING_MODES - An error was encountered while switching QSPI peripheral mod
  46:../../libDaisy//src/per/qspi.h ****          *  \param E_INVALID_MODE - QSPI should not be written to while the program is executing fr
  47:../../libDaisy//src/per/qspi.h ****          */
  48:../../libDaisy//src/per/qspi.h ****     enum Status
  49:../../libDaisy//src/per/qspi.h ****     {
  50:../../libDaisy//src/per/qspi.h ****         GOOD = 0,
  51:../../libDaisy//src/per/qspi.h ****         E_HAL_ERROR,
  52:../../libDaisy//src/per/qspi.h ****         E_SWITCHING_MODES,
  53:../../libDaisy//src/per/qspi.h ****         E_INVALID_MODE,
  54:../../libDaisy//src/per/qspi.h ****     };
  55:../../libDaisy//src/per/qspi.h **** 
  56:../../libDaisy//src/per/qspi.h ****     /** Configuration structure for interfacing with QSPI Driver */
  57:../../libDaisy//src/per/qspi.h ****     struct Config
  58:../../libDaisy//src/per/qspi.h ****     {
  59:../../libDaisy//src/per/qspi.h ****         /** Flash Devices supported. (Both of these are more-or-less the same, just different sizes
  60:../../libDaisy//src/per/qspi.h ****         enum Device
  61:../../libDaisy//src/per/qspi.h ****         {
  62:../../libDaisy//src/per/qspi.h ****             IS25LP080D,  /**< & */
  63:../../libDaisy//src/per/qspi.h ****             IS25LP064A,  /**< & */
  64:../../libDaisy//src/per/qspi.h ****             DEVICE_LAST, /**< & */
  65:../../libDaisy//src/per/qspi.h ****         };
  66:../../libDaisy//src/per/qspi.h **** 
  67:../../libDaisy//src/per/qspi.h ****         /** 
  68:../../libDaisy//src/per/qspi.h ****         Modes of operation.
  69:../../libDaisy//src/per/qspi.h ****         Memory Mapped mode: QSPI configured so that the QSPI can be
  70:../../libDaisy//src/per/qspi.h ****         read from starting address 0x90000000. Writing is not
  71:../../libDaisy//src/per/qspi.h ****         possible in this mode. \n 
  72:../../libDaisy//src/per/qspi.h ****         Indirect Polling mode: Device driver enabled. 
  73:../../libDaisy//src/per/qspi.h ****         */
  74:../../libDaisy//src/per/qspi.h ****         enum Mode
  75:../../libDaisy//src/per/qspi.h ****         {
  76:../../libDaisy//src/per/qspi.h ****             MEMORY_MAPPED,    /**< & */
  77:../../libDaisy//src/per/qspi.h ****             INDIRECT_POLLING, /**< & */
ARM GAS  /var/folders/hl/qgbwny5j0fd895c2c41bk3tw0000gp/T//cctD4vl2.s 			page 82


  78:../../libDaisy//src/per/qspi.h ****             MODE_LAST,
  79:../../libDaisy//src/per/qspi.h ****         };
  80:../../libDaisy//src/per/qspi.h **** 
  81:../../libDaisy//src/per/qspi.h ****         //SCK,  CE# (active low)
  82:../../libDaisy//src/per/qspi.h ****         struct
  83:../../libDaisy//src/per/qspi.h ****         {
  84:../../libDaisy//src/per/qspi.h ****             dsy_gpio_pin io0; /**< & */
  85:../../libDaisy//src/per/qspi.h ****             dsy_gpio_pin io1; /**< & */
  86:../../libDaisy//src/per/qspi.h ****             dsy_gpio_pin io2; /**< & */
  87:../../libDaisy//src/per/qspi.h ****             dsy_gpio_pin io3; /**< & */
  88:../../libDaisy//src/per/qspi.h ****             dsy_gpio_pin clk; /**< & */
  89:../../libDaisy//src/per/qspi.h ****             dsy_gpio_pin ncs; /**< & */
  90:../../libDaisy//src/per/qspi.h ****         } pin_config;
  91:../../libDaisy//src/per/qspi.h **** 
  92:../../libDaisy//src/per/qspi.h ****         Device device;
  93:../../libDaisy//src/per/qspi.h ****         Mode   mode;
  94:../../libDaisy//src/per/qspi.h ****     };
  95:../../libDaisy//src/per/qspi.h **** 
  96:../../libDaisy//src/per/qspi.h ****     /** 
  97:../../libDaisy//src/per/qspi.h ****         Initializes QSPI peripheral, and Resets, and prepares memory for access.
  98:../../libDaisy//src/per/qspi.h ****         \param config should be populated with the mode, device and pin_config before calling this 
  99:../../libDaisy//src/per/qspi.h ****         \return Result::OK or Result::ERR
 100:../../libDaisy//src/per/qspi.h ****         */
 101:../../libDaisy//src/per/qspi.h ****     Result Init(const Config& config);
 102:../../libDaisy//src/per/qspi.h **** 
 103:../../libDaisy//src/per/qspi.h ****     /** Returns the current config. */
 104:../../libDaisy//src/per/qspi.h ****     const Config& GetConfig() const;
 105:../../libDaisy//src/per/qspi.h **** 
 106:../../libDaisy//src/per/qspi.h ****     // Couldn't this just be called before anything else in init? That
 107:../../libDaisy//src/per/qspi.h ****     // would make manually calling it unnecessary.
 108:../../libDaisy//src/per/qspi.h ****     /** 
 109:../../libDaisy//src/per/qspi.h ****         Deinitializes the peripheral
 110:../../libDaisy//src/per/qspi.h ****         This should be called before reinitializing QSPI in a different mode.
 111:../../libDaisy//src/per/qspi.h ****         \return Result::OK or Result::ERR
 112:../../libDaisy//src/per/qspi.h ****         */
 113:../../libDaisy//src/per/qspi.h ****     Result DeInit();
 114:../../libDaisy//src/per/qspi.h **** 
 115:../../libDaisy//src/per/qspi.h ****     /** 
 116:../../libDaisy//src/per/qspi.h ****         Writes a single page to to the specified address on the QSPI chip.
 117:../../libDaisy//src/per/qspi.h ****         For IS25LP*, page size is 256 bytes.
 118:../../libDaisy//src/per/qspi.h ****         \param address Address to write to
 119:../../libDaisy//src/per/qspi.h ****         \param size Buffer size
 120:../../libDaisy//src/per/qspi.h ****         \param buffer Buffer to write
 121:../../libDaisy//src/per/qspi.h ****         \return Result::OK or Result::ERR
 122:../../libDaisy//src/per/qspi.h ****         */
 123:../../libDaisy//src/per/qspi.h ****     Result WritePage(uint32_t address, uint32_t size, uint8_t* buffer);
 124:../../libDaisy//src/per/qspi.h **** 
 125:../../libDaisy//src/per/qspi.h ****     /** 
 126:../../libDaisy//src/per/qspi.h ****         Writes data in buffer to to the QSPI. Starting at address to address+size 
 127:../../libDaisy//src/per/qspi.h ****         \param address Address to write to
 128:../../libDaisy//src/per/qspi.h ****         \param size Buffer size
 129:../../libDaisy//src/per/qspi.h ****         \param buffer Buffer to write
 130:../../libDaisy//src/per/qspi.h ****         \return Result::OK or Result::ERR
 131:../../libDaisy//src/per/qspi.h ****         */
 132:../../libDaisy//src/per/qspi.h ****     Result Write(uint32_t address, uint32_t size, uint8_t* buffer);
 133:../../libDaisy//src/per/qspi.h **** 
 134:../../libDaisy//src/per/qspi.h ****     /** 
ARM GAS  /var/folders/hl/qgbwny5j0fd895c2c41bk3tw0000gp/T//cctD4vl2.s 			page 83


 135:../../libDaisy//src/per/qspi.h ****         Erases the area specified on the chip.
 136:../../libDaisy//src/per/qspi.h ****         Erasures will happen by 4K, 32K or 64K increments.
 137:../../libDaisy//src/per/qspi.h ****         Smallest erase possible is 4kB at a time. (on IS25LP*)
 138:../../libDaisy//src/per/qspi.h ****         \param start_addr Address to begin erasing from
 139:../../libDaisy//src/per/qspi.h ****         \param end_addr  Address to stop erasing at
 140:../../libDaisy//src/per/qspi.h ****         \return Result::OK or Result::ERR
 141:../../libDaisy//src/per/qspi.h ****         */
 142:../../libDaisy//src/per/qspi.h ****     Result Erase(uint32_t start_addr, uint32_t end_addr);
 143:../../libDaisy//src/per/qspi.h **** 
 144:../../libDaisy//src/per/qspi.h ****     /**  
 145:../../libDaisy//src/per/qspi.h ****          Erases a single sector of the chip.  
 146:../../libDaisy//src/per/qspi.h ****         TODO: Document the size of this function. 
 147:../../libDaisy//src/per/qspi.h ****         \param address Address of sector to erase
 148:../../libDaisy//src/per/qspi.h ****         \return Result::OK or Result::ERR
 149:../../libDaisy//src/per/qspi.h ****         */
 150:../../libDaisy//src/per/qspi.h ****     Result EraseSector(uint32_t address);
 151:../../libDaisy//src/per/qspi.h **** 
 152:../../libDaisy//src/per/qspi.h ****     /** Returns the current class status. Useful for debugging.
 153:../../libDaisy//src/per/qspi.h ****      *  \returns Status
 154:../../libDaisy//src/per/qspi.h ****      */
 155:../../libDaisy//src/per/qspi.h ****     Status GetStatus();
 156:../../libDaisy//src/per/qspi.h **** 
 157:../../libDaisy//src/per/qspi.h ****     /** Returns a pointer to the actual memory used 
 158:../../libDaisy//src/per/qspi.h ****      *  The memory at this address is read-only
 159:../../libDaisy//src/per/qspi.h ****      *  to write to it use the Write function.
 160:../../libDaisy//src/per/qspi.h ****      * 
 161:../../libDaisy//src/per/qspi.h ****      *  \param offset returns the pointer starting this 
 162:../../libDaisy//src/per/qspi.h ****      *                many bytes into the memory
 163:../../libDaisy//src/per/qspi.h ****     */
 164:../../libDaisy//src/per/qspi.h ****     void* GetData(uint32_t offset = 0);
 165:../../libDaisy//src/per/qspi.h **** 
 166:../../libDaisy//src/per/qspi.h ****     QSPIHandle() : pimpl_(nullptr) {}
 2670              		.loc 12 166 5 view .LVU651
 2671              	.LBE878:
 2672              	.LBE877:
 2673              	.LBE876:
 2674              	.LBE875:
 2675              	.LBE874:
 2676              		.loc 9 82 1 is_stmt 0 view .LVU652
 2677 0000 08B5     		push	{r3, lr}
 2678              		.cfi_def_cfa_offset 8
 2679              		.cfi_offset 3, -8
 2680              		.cfi_offset 14, -4
 2681              	.LBB906:
 2682              	.LBB904:
 2683              	.LBB896:
 2684              	.LBB894:
 2685              	.LBB883:
 2686              	.LBB879:
 2687              	.LBB880:
 2688              		.loc 12 166 34 view .LVU653
 2689 0002 0F48     		ldr	r0, .L54
 2690 0004 0023     		movs	r3, #0
 2691              	.LBE880:
 2692              	.LBE879:
 2693              	.LBE883:
 2694              	.LBE894:
ARM GAS  /var/folders/hl/qgbwny5j0fd895c2c41bk3tw0000gp/T//cctD4vl2.s 			page 84


 2695              	.LBE896:
   9:test.cpp      **** Oscillator				osc_a,osc_b,osc_c; 
 2696              		.loc 9 9 14 view .LVU654
 2697 0006 0F4A     		ldr	r2, .L54+4
 2698              	.LBB897:
 2699              	.LBB895:
 2700              	.LBB884:
 2701              	.LBB882:
 2702              	.LBB881:
 2703              		.loc 12 166 34 view .LVU655
 2704 0008 0360     		str	r3, [r0]
 2705              	.LVL117:
 2706              		.loc 12 166 34 view .LVU656
 2707              	.LBE881:
 2708              	.LBE882:
 2709              	.LBE884:
 2710              	.LBB885:
 2711              	.LBI885:
  95:../../libDaisy//src/hid/audio.h ****     ~AudioHandle() {}
 2712              		.loc 5 95 5 is_stmt 1 view .LVU657
 2713              	.LBB886:
 2714              	.LBB887:
  95:../../libDaisy//src/hid/audio.h ****     ~AudioHandle() {}
 2715              		.loc 5 95 35 is_stmt 0 view .LVU658
 2716 000a 4361     		str	r3, [r0, #20]
 2717              	.LVL118:
  95:../../libDaisy//src/hid/audio.h ****     ~AudioHandle() {}
 2718              		.loc 5 95 35 view .LVU659
 2719              	.LBE887:
 2720              	.LBE886:
 2721              	.LBE885:
 2722              	.LBB888:
 2723              	.LBI888:
  92:../../libDaisy//src/per/adc.h ****     ~AdcHandle() {}
 2724              		.loc 4 92 5 is_stmt 1 view .LVU660
  92:../../libDaisy//src/per/adc.h ****     ~AdcHandle() {}
 2725              		.loc 4 92 5 is_stmt 0 view .LVU661
 2726              	.LBE888:
 2727              	.LBB889:
 2728              	.LBI889:
 2729              		.file 13 "../../libDaisy//src/per/dac.h"
   1:../../libDaisy//src/per/dac.h **** #pragma once
   2:../../libDaisy//src/per/dac.h **** #ifndef DSY_DAC_H
   3:../../libDaisy//src/per/dac.h **** #define DSY_DAC_H
   4:../../libDaisy//src/per/dac.h **** 
   5:../../libDaisy//src/per/dac.h **** #include "daisy_core.h"
   6:../../libDaisy//src/per/dac.h **** 
   7:../../libDaisy//src/per/dac.h **** namespace daisy
   8:../../libDaisy//src/per/dac.h **** {
   9:../../libDaisy//src/per/dac.h **** /** @brief DAC handle for Built-in DAC Peripheral 
  10:../../libDaisy//src/per/dac.h ****  *  @ingroup per_analog
  11:../../libDaisy//src/per/dac.h ****  ** 
  12:../../libDaisy//src/per/dac.h ****  ** For now only Normal Mode is supported,
  13:../../libDaisy//src/per/dac.h ****  ** Sample and hold mode provides reduced power consumption, but requires a bit more setup.
  14:../../libDaisy//src/per/dac.h ****  **
  15:../../libDaisy//src/per/dac.h ****  ** For now connecting the DAC through other internal peripherals is also not supported.
  16:../../libDaisy//src/per/dac.h ****  **
ARM GAS  /var/folders/hl/qgbwny5j0fd895c2c41bk3tw0000gp/T//cctD4vl2.s 			page 85


  17:../../libDaisy//src/per/dac.h ****  ** Since the DAC channels have dedicated pins we don't need to pass in a pin config like with
  18:../../libDaisy//src/per/dac.h ****  ** other modules. However, it is still important to not try to use the DAC pins for anything else.
  19:../../libDaisy//src/per/dac.h ****  ** DAC Channel 1 is on PA4, and DAC Channel 2 is on PA5
  20:../../libDaisy//src/per/dac.h ****  ***/
  21:../../libDaisy//src/per/dac.h **** class DacHandle
  22:../../libDaisy//src/per/dac.h **** {
  23:../../libDaisy//src/per/dac.h ****   public:
  24:../../libDaisy//src/per/dac.h ****     /** Return Values for the DacHandle class */
  25:../../libDaisy//src/per/dac.h ****     enum class Result
  26:../../libDaisy//src/per/dac.h ****     {
  27:../../libDaisy//src/per/dac.h ****         OK,
  28:../../libDaisy//src/per/dac.h ****         ERR,
  29:../../libDaisy//src/per/dac.h ****     };
  30:../../libDaisy//src/per/dac.h **** 
  31:../../libDaisy//src/per/dac.h ****     /** Selects which channel(s) will be configured for use. */
  32:../../libDaisy//src/per/dac.h ****     enum class Channel
  33:../../libDaisy//src/per/dac.h ****     {
  34:../../libDaisy//src/per/dac.h ****         ONE,
  35:../../libDaisy//src/per/dac.h ****         TWO,
  36:../../libDaisy//src/per/dac.h ****         BOTH,
  37:../../libDaisy//src/per/dac.h ****     };
  38:../../libDaisy//src/per/dac.h **** 
  39:../../libDaisy//src/per/dac.h ****     /** Sets the Mode for the DAC channels.
  40:../../libDaisy//src/per/dac.h ****      **
  41:../../libDaisy//src/per/dac.h ****      ** Polling mode uses the blocking mode to transmit a single value at a time.
  42:../../libDaisy//src/per/dac.h ****      **
  43:../../libDaisy//src/per/dac.h ****      ** DMA mode uses a buffer, and periodically transmits it triggering a 
  44:../../libDaisy//src/per/dac.h ****      ** callback to fill the buffer when it is ready for more samples.
  45:../../libDaisy//src/per/dac.h ****      ***/
  46:../../libDaisy//src/per/dac.h ****     enum class Mode
  47:../../libDaisy//src/per/dac.h ****     {
  48:../../libDaisy//src/per/dac.h ****         POLLING,
  49:../../libDaisy//src/per/dac.h ****         DMA,
  50:../../libDaisy//src/per/dac.h ****     };
  51:../../libDaisy//src/per/dac.h **** 
  52:../../libDaisy//src/per/dac.h ****     /** Sets the number of bits per sample transmitted out of the DAC.
  53:../../libDaisy//src/per/dac.h ****      ** The output range will be: 0V - VDDA
  54:../../libDaisy//src/per/dac.h ****      ** The resolution will be roughly: bitdepth / (VDDA - 0V) 
  55:../../libDaisy//src/per/dac.h ****      ***/
  56:../../libDaisy//src/per/dac.h ****     enum class BitDepth
  57:../../libDaisy//src/per/dac.h ****     {
  58:../../libDaisy//src/per/dac.h ****         BITS_8,
  59:../../libDaisy//src/per/dac.h ****         BITS_12
  60:../../libDaisy//src/per/dac.h ****     };
  61:../../libDaisy//src/per/dac.h **** 
  62:../../libDaisy//src/per/dac.h ****     /** Sets whether the DAC output is buffered for higher drive ability. */
  63:../../libDaisy//src/per/dac.h ****     enum class BufferState
  64:../../libDaisy//src/per/dac.h ****     {
  65:../../libDaisy//src/per/dac.h ****         ENABLED,
  66:../../libDaisy//src/per/dac.h ****         DISABLED,
  67:../../libDaisy//src/per/dac.h ****     };
  68:../../libDaisy//src/per/dac.h **** 
  69:../../libDaisy//src/per/dac.h ****     /** Configuration structure for initializing the DAC structure. */
  70:../../libDaisy//src/per/dac.h ****     struct Config
  71:../../libDaisy//src/per/dac.h ****     {
  72:../../libDaisy//src/per/dac.h ****         /** Target Samplerate in Hz used to configure the internal 
  73:../../libDaisy//src/per/dac.h ****          ** timebase for DMA mode. Does nothing in POLLING mode.
ARM GAS  /var/folders/hl/qgbwny5j0fd895c2c41bk3tw0000gp/T//cctD4vl2.s 			page 86


  74:../../libDaisy//src/per/dac.h ****          ** If the value is 0 at Init time this will default to 48000Hz 
  75:../../libDaisy//src/per/dac.h ****          ** otherwise the driver will attempt meet the target.*/
  76:../../libDaisy//src/per/dac.h ****         uint32_t target_samplerate;
  77:../../libDaisy//src/per/dac.h **** 
  78:../../libDaisy//src/per/dac.h ****         Channel     chn;
  79:../../libDaisy//src/per/dac.h ****         Mode        mode;
  80:../../libDaisy//src/per/dac.h ****         BitDepth    bitdepth;
  81:../../libDaisy//src/per/dac.h ****         BufferState buff_state;
  82:../../libDaisy//src/per/dac.h ****     };
  83:../../libDaisy//src/per/dac.h **** 
  84:../../libDaisy//src/per/dac.h ****     DacHandle() : pimpl_(nullptr) {}
 2730              		.loc 13 84 5 is_stmt 1 view .LVU662
 2731              	.LBB890:
 2732              	.LBB891:
 2733              		.loc 13 84 33 is_stmt 0 view .LVU663
 2734 000c 0362     		str	r3, [r0, #32]
 2735              	.LVL119:
 2736              		.loc 13 84 33 view .LVU664
 2737              	.LBE891:
 2738              	.LBE890:
 2739              	.LBE889:
 2740              	.LBB892:
 2741              	.LBI892:
  40:../../libDaisy//src/hid/usb.h **** 
 2742              		.loc 3 40 5 is_stmt 1 view .LVU665
  40:../../libDaisy//src/hid/usb.h **** 
 2743              		.loc 3 40 5 is_stmt 0 view .LVU666
 2744              	.LBE892:
 2745              	.LBB893:
 2746              	.LBI893:
  77:../../libDaisy//src/sys/system.h ****     ~System() {}
 2747              		.loc 2 77 5 is_stmt 1 view .LVU667
  77:../../libDaisy//src/sys/system.h ****     ~System() {}
 2748              		.loc 2 77 5 is_stmt 0 view .LVU668
 2749              	.LBE893:
 2750              	.LBE895:
 2751              	.LBE897:
   9:test.cpp      **** Oscillator				osc_a,osc_b,osc_c; 
 2752              		.loc 9 9 14 view .LVU669
 2753 000e 0E49     		ldr	r1, .L54+8
 2754 0010 FFF7FEFF 		bl	__aeabi_atexit
 2755              	.LVL120:
 2756              	.LBB898:
 2757              	.LBI898:
  15:../../DaisySP//Source/Synthesis/oscillator.h ****     ~Oscillator() {}
 2758              		.loc 6 15 5 is_stmt 1 view .LVU670
  15:../../DaisySP//Source/Synthesis/oscillator.h ****     ~Oscillator() {}
 2759              		.loc 6 15 5 is_stmt 0 view .LVU671
 2760              	.LBE898:
  10:test.cpp      **** Ensemble				ens;
 2761              		.loc 9 10 15 view .LVU672
 2762 0014 0D49     		ldr	r1, .L54+12
 2763 0016 0B4A     		ldr	r2, .L54+4
 2764 0018 0D48     		ldr	r0, .L54+16
 2765 001a FFF7FEFF 		bl	__aeabi_atexit
 2766              	.LVL121:
 2767              	.LBB899:
ARM GAS  /var/folders/hl/qgbwny5j0fd895c2c41bk3tw0000gp/T//cctD4vl2.s 			page 87


 2768              	.LBI899:
  15:../../DaisySP//Source/Synthesis/oscillator.h ****     ~Oscillator() {}
 2769              		.loc 6 15 5 is_stmt 1 view .LVU673
  15:../../DaisySP//Source/Synthesis/oscillator.h ****     ~Oscillator() {}
 2770              		.loc 6 15 5 is_stmt 0 view .LVU674
 2771              	.LBE899:
  10:test.cpp      **** Ensemble				ens;
 2772              		.loc 9 10 21 view .LVU675
 2773 001e 094A     		ldr	r2, .L54+4
 2774 0020 0A49     		ldr	r1, .L54+12
 2775 0022 0C48     		ldr	r0, .L54+20
 2776 0024 FFF7FEFF 		bl	__aeabi_atexit
 2777              	.LVL122:
 2778              	.LBB900:
 2779              	.LBI900:
  15:../../DaisySP//Source/Synthesis/oscillator.h ****     ~Oscillator() {}
 2780              		.loc 6 15 5 is_stmt 1 view .LVU676
  15:../../DaisySP//Source/Synthesis/oscillator.h ****     ~Oscillator() {}
 2781              		.loc 6 15 5 is_stmt 0 view .LVU677
 2782              	.LBE900:
  10:test.cpp      **** Ensemble				ens;
 2783              		.loc 9 10 27 view .LVU678
 2784 0028 064A     		ldr	r2, .L54+4
 2785 002a 0849     		ldr	r1, .L54+12
 2786 002c 0A48     		ldr	r0, .L54+24
 2787 002e FFF7FEFF 		bl	__aeabi_atexit
 2788              	.LVL123:
 2789              	.LBB901:
 2790              	.LBI901:
  42:ensemble.h    ****   ~Ensemble() { }
 2791              		.loc 7 42 3 is_stmt 1 view .LVU679
 2792              	.LBB902:
 2793              	.LBB903:
 2794              	.LBI903:
 140:fx_engine.h   ****     ~FxEngine() {}
 2795              		.loc 8 140 5 view .LVU680
 140:fx_engine.h   ****     ~FxEngine() {}
 2796              		.loc 8 140 5 is_stmt 0 view .LVU681
 2797              	.LBE903:
 2798              	.LBE902:
 2799              	.LBE901:
  11:test.cpp      **** 
 2800              		.loc 9 11 13 view .LVU682
 2801 0032 044A     		ldr	r2, .L54+4
 2802 0034 0949     		ldr	r1, .L54+28
 2803 0036 0A48     		ldr	r0, .L54+32
 2804              	.LBE904:
 2805              	.LBE906:
 2806              		.loc 9 82 1 view .LVU683
 2807 0038 BDE80840 		pop	{r3, lr}
 2808              		.cfi_restore 14
 2809              		.cfi_restore 3
 2810              		.cfi_def_cfa_offset 0
 2811              	.LBB907:
 2812              	.LBB905:
  11:test.cpp      **** 
 2813              		.loc 9 11 13 view .LVU684
ARM GAS  /var/folders/hl/qgbwny5j0fd895c2c41bk3tw0000gp/T//cctD4vl2.s 			page 88


 2814 003c FFF7FEBF 		b	__aeabi_atexit
 2815              	.LVL124:
 2816              	.L55:
 2817              		.align	2
 2818              	.L54:
 2819 0040 00000000 		.word	.LANCHOR0
 2820 0044 00000000 		.word	__dso_handle
 2821 0048 00000000 		.word	_ZN5daisy9DaisySeedD1Ev
 2822 004c 00000000 		.word	_ZN7daisysp10OscillatorD1Ev
 2823 0050 00000000 		.word	.LANCHOR1
 2824 0054 00000000 		.word	.LANCHOR2
 2825 0058 00000000 		.word	.LANCHOR3
 2826 005c 00000000 		.word	_ZN7daisysp8EnsembleD1Ev
 2827 0060 00000000 		.word	.LANCHOR4
 2828              	.LBE905:
 2829              	.LBE907:
 2830              		.cfi_endproc
 2831              	.LFE5413:
 2833              		.section	.init_array,"aw",%init_array
 2834              		.align	2
 2835 0000 00000000 		.word	_GLOBAL__sub_I_hw(target1)
 2836              		.global	reverb_buffer
 2837              		.global	ens
 2838              		.global	osc_c
 2839              		.global	osc_b
 2840              		.global	osc_a
 2841              		.global	hw
 2842              		.section	.bss.ens,"aw",%nobits
 2843              		.align	2
 2844              		.set	.LANCHOR4,. + 0
 2847              	ens:
 2848 0000 00000000 		.space	40
 2848      00000000 
 2848      00000000 
 2848      00000000 
 2848      00000000 
 2849              		.section	.bss.hw,"aw",%nobits
 2850              		.align	2
 2851              		.set	.LANCHOR0,. + 0
 2854              	hw:
 2855 0000 00000000 		.space	60
 2855      00000000 
 2855      00000000 
 2855      00000000 
 2855      00000000 
 2856              		.section	.bss.osc_a,"aw",%nobits
 2857              		.align	2
 2858              		.set	.LANCHOR1,. + 0
 2861              	osc_a:
 2862 0000 00000000 		.space	48
 2862      00000000 
 2862      00000000 
 2862      00000000 
 2862      00000000 
 2863              		.section	.bss.osc_b,"aw",%nobits
 2864              		.align	2
 2865              		.set	.LANCHOR2,. + 0
ARM GAS  /var/folders/hl/qgbwny5j0fd895c2c41bk3tw0000gp/T//cctD4vl2.s 			page 89


 2868              	osc_b:
 2869 0000 00000000 		.space	48
 2869      00000000 
 2869      00000000 
 2869      00000000 
 2869      00000000 
 2870              		.section	.bss.osc_c,"aw",%nobits
 2871              		.align	2
 2872              		.set	.LANCHOR3,. + 0
 2875              	osc_c:
 2876 0000 00000000 		.space	48
 2876      00000000 
 2876      00000000 
 2876      00000000 
 2876      00000000 
 2877              		.section	.bss.reverb_buffer,"aw",%nobits
 2878              		.align	2
 2881              	reverb_buffer:
 2882 0000 00000000 		.space	131072
 2882      00000000 
 2882      00000000 
 2882      00000000 
 2882      00000000 
 2883              		.text
 2884              	.Letext0:
 2885              		.file 14 "/opt/homebrew/Cellar/arm-none-eabi-gcc/10.3-2021.07/gcc/arm-none-eabi/include/machine/_d
 2886              		.file 15 "/opt/homebrew/Cellar/arm-none-eabi-gcc/10.3-2021.07/gcc/arm-none-eabi/include/sys/_stdin
 2887              		.file 16 "/opt/homebrew/Cellar/arm-none-eabi-gcc/10.3-2021.07/gcc/arm-none-eabi/include/stdint.h"
 2888              		.file 17 "/opt/homebrew/Cellar/arm-none-eabi-gcc/10.3-2021.07/gcc/lib/gcc/arm-none-eabi/10.3.1/inc
 2889              		.file 18 "/opt/homebrew/Cellar/arm-none-eabi-gcc/10.3-2021.07/gcc/arm-none-eabi/include/c++/10.3.1
 2890              		.file 19 "/opt/homebrew/Cellar/arm-none-eabi-gcc/10.3-2021.07/gcc/arm-none-eabi/include/c++/10.3.1
 2891              		.file 20 "/opt/homebrew/Cellar/arm-none-eabi-gcc/10.3-2021.07/gcc/arm-none-eabi/include/c++/10.3.1
 2892              		.file 21 "/opt/homebrew/Cellar/arm-none-eabi-gcc/10.3-2021.07/gcc/arm-none-eabi/include/c++/10.3.1
 2893              		.file 22 "/opt/homebrew/Cellar/arm-none-eabi-gcc/10.3-2021.07/gcc/arm-none-eabi/include/c++/10.3.1
 2894              		.file 23 "/opt/homebrew/Cellar/arm-none-eabi-gcc/10.3-2021.07/gcc/arm-none-eabi/include/c++/10.3.1
 2895              		.file 24 "/opt/homebrew/Cellar/arm-none-eabi-gcc/10.3-2021.07/gcc/arm-none-eabi/include/c++/10.3.1
 2896              		.file 25 "/opt/homebrew/Cellar/arm-none-eabi-gcc/10.3-2021.07/gcc/arm-none-eabi/include/c++/10.3.1
 2897              		.file 26 "/opt/homebrew/Cellar/arm-none-eabi-gcc/10.3-2021.07/gcc/arm-none-eabi/include/c++/10.3.1
 2898              		.file 27 "/opt/homebrew/Cellar/arm-none-eabi-gcc/10.3-2021.07/gcc/arm-none-eabi/include/c++/10.3.1
 2899              		.file 28 "/opt/homebrew/Cellar/arm-none-eabi-gcc/10.3-2021.07/gcc/arm-none-eabi/include/c++/10.3.1
 2900              		.file 29 "/opt/homebrew/Cellar/arm-none-eabi-gcc/10.3-2021.07/gcc/arm-none-eabi/include/c++/10.3.1
 2901              		.file 30 "/opt/homebrew/Cellar/arm-none-eabi-gcc/10.3-2021.07/gcc/arm-none-eabi/include/c++/10.3.1
 2902              		.file 31 "/opt/homebrew/Cellar/arm-none-eabi-gcc/10.3-2021.07/gcc/arm-none-eabi/include/c++/10.3.1
 2903              		.file 32 "/opt/homebrew/Cellar/arm-none-eabi-gcc/10.3-2021.07/gcc/arm-none-eabi/include/c++/10.3.1
 2904              		.file 33 "/opt/homebrew/Cellar/arm-none-eabi-gcc/10.3-2021.07/gcc/arm-none-eabi/include/c++/10.3.1
 2905              		.file 34 "/opt/homebrew/Cellar/arm-none-eabi-gcc/10.3-2021.07/gcc/arm-none-eabi/include/c++/10.3.1
 2906              		.file 35 "/opt/homebrew/Cellar/arm-none-eabi-gcc/10.3-2021.07/gcc/arm-none-eabi/include/c++/10.3.1
 2907              		.file 36 "/opt/homebrew/Cellar/arm-none-eabi-gcc/10.3-2021.07/gcc/arm-none-eabi/include/sys/_types
 2908              		.file 37 "/opt/homebrew/Cellar/arm-none-eabi-gcc/10.3-2021.07/gcc/arm-none-eabi/include/sys/reent.
 2909              		.file 38 "/opt/homebrew/Cellar/arm-none-eabi-gcc/10.3-2021.07/gcc/arm-none-eabi/include/sys/lock.h
 2910              		.file 39 "/opt/homebrew/Cellar/arm-none-eabi-gcc/10.3-2021.07/gcc/arm-none-eabi/include/math.h"
 2911              		.file 40 "/opt/homebrew/Cellar/arm-none-eabi-gcc/10.3-2021.07/gcc/arm-none-eabi/include/stdlib.h"
 2912              		.file 41 "/opt/homebrew/Cellar/arm-none-eabi-gcc/10.3-2021.07/gcc/arm-none-eabi/include/c++/10.3.1
 2913              		.file 42 "/opt/homebrew/Cellar/arm-none-eabi-gcc/10.3-2021.07/gcc/arm-none-eabi/include/c++/10.3.1
 2914              		.file 43 "../../libDaisy//src/per/tim.h"
 2915              		.file 44 "../../libDaisy//src/per/sai.h"
 2916              		.file 45 "../../libDaisy//src/util/wav_format.h"
ARM GAS  /var/folders/hl/qgbwny5j0fd895c2c41bk3tw0000gp/T//cctD4vl2.s 			page 90


 2917              		.file 46 "../../libDaisy//src/dev/max11300.h"
 2918              		.file 47 "../../libDaisy//src/per/gpio.h"
 2919              		.file 48 "../../libDaisy//src/dev/sdram.h"
 2920              		.file 49 "/opt/homebrew/Cellar/arm-none-eabi-gcc/10.3-2021.07/gcc/lib/gcc/arm-none-eabi/10.3.1/inc
