ARM GAS  /var/folders/hl/qgbwny5j0fd895c2c41bk3tw0000gp/T//ccTphaKR.s 			page 1


   1              		.cpu cortex-m7
   2              		.eabi_attribute 28, 1
   3              		.eabi_attribute 20, 1
   4              		.eabi_attribute 21, 1
   5              		.eabi_attribute 23, 3
   6              		.eabi_attribute 24, 1
   7              		.eabi_attribute 25, 1
   8              		.eabi_attribute 26, 1
   9              		.eabi_attribute 30, 2
  10              		.eabi_attribute 34, 1
  11              		.eabi_attribute 18, 4
  12              		.file	"plinks.cpp"
  13              		.text
  14              	.Ltext0:
  15              		.cfi_sections	.debug_frame
  16              		.section	.text._ZN5daisy9DaisySeedD2Ev,"axG",%progbits,_ZN5daisy9DaisySeedD5Ev,comdat
  17              		.align	1
  18              		.p2align 2,,3
  19              		.weak	_ZN5daisy9DaisySeedD2Ev
  20              		.arch armv7e-m
  21              		.syntax unified
  22              		.thumb
  23              		.thumb_func
  24              		.fpu fpv5-d16
  26              	_ZN5daisy9DaisySeedD2Ev:
  27              	.LVL0:
  28              	.LFB2529:
  29              		.file 1 "../../libDaisy//src/daisy_seed.h"
   1:../../libDaisy//src/daisy_seed.h **** #pragma once
   2:../../libDaisy//src/daisy_seed.h **** #ifndef DSY_SEED_H
   3:../../libDaisy//src/daisy_seed.h **** #define DSY_SEED_H
   4:../../libDaisy//src/daisy_seed.h **** 
   5:../../libDaisy//src/daisy_seed.h **** #include "daisy.h"
   6:../../libDaisy//src/daisy_seed.h **** 
   7:../../libDaisy//src/daisy_seed.h **** //Uncomment this out if you're still using the rev2 hardware
   8:../../libDaisy//src/daisy_seed.h **** //#define SEED_REV2
   9:../../libDaisy//src/daisy_seed.h **** 
  10:../../libDaisy//src/daisy_seed.h **** namespace daisy
  11:../../libDaisy//src/daisy_seed.h **** {
  12:../../libDaisy//src/daisy_seed.h **** /**
  13:../../libDaisy//src/daisy_seed.h ****    @brief This is the higher-level interface for the Daisy board. \n 
  14:../../libDaisy//src/daisy_seed.h ****     All basic peripheral configuration/initialization is setup here. \n
  15:../../libDaisy//src/daisy_seed.h **** 
  16:../../libDaisy//src/daisy_seed.h ****    @ingroup boards
  17:../../libDaisy//src/daisy_seed.h **** */
  18:../../libDaisy//src/daisy_seed.h **** class DaisySeed
  19:../../libDaisy//src/daisy_seed.h **** {
  20:../../libDaisy//src/daisy_seed.h ****   public:
  21:../../libDaisy//src/daisy_seed.h ****     DaisySeed() {}
  22:../../libDaisy//src/daisy_seed.h ****     ~DaisySeed() {}
  30              		.loc 1 22 5 view -0
  31              		.cfi_startproc
  32              		@ args = 0, pretend = 0, frame = 0
  33              		@ frame_needed = 0, uses_anonymous_args = 0
  34              		@ link register save eliminated.
  35              	.LBB270:
  36              	.LBI270:
ARM GAS  /var/folders/hl/qgbwny5j0fd895c2c41bk3tw0000gp/T//ccTphaKR.s 			page 2


  37              		.file 2 "../../libDaisy//src/sys/system.h"
   1:../../libDaisy//src/sys/system.h **** #ifndef DSY_SYSTEM_H
   2:../../libDaisy//src/sys/system.h **** #define DSY_SYSTEM_H
   3:../../libDaisy//src/sys/system.h **** 
   4:../../libDaisy//src/sys/system.h **** #ifndef UNIT_TEST // for unit tests, a dummy implementation is provided below
   5:../../libDaisy//src/sys/system.h **** 
   6:../../libDaisy//src/sys/system.h **** #include <cstdint>
   7:../../libDaisy//src/sys/system.h **** #include "per/tim.h"
   8:../../libDaisy//src/sys/system.h **** 
   9:../../libDaisy//src/sys/system.h **** namespace daisy
  10:../../libDaisy//src/sys/system.h **** {
  11:../../libDaisy//src/sys/system.h **** /** A handle for interacting with the Core System. 
  12:../../libDaisy//src/sys/system.h ****  ** This includes the Clock tree, MPU, global DMA initialization,
  13:../../libDaisy//src/sys/system.h ****  ** cache handling, and any other necessary global initiailzation
  14:../../libDaisy//src/sys/system.h ****  **
  15:../../libDaisy//src/sys/system.h ****  ** @author shensley
  16:../../libDaisy//src/sys/system.h ****  ** @ingroup system
  17:../../libDaisy//src/sys/system.h ****  */
  18:../../libDaisy//src/sys/system.h **** class System
  19:../../libDaisy//src/sys/system.h **** {
  20:../../libDaisy//src/sys/system.h ****   public:
  21:../../libDaisy//src/sys/system.h ****     /** Contains settings for initializing the System */
  22:../../libDaisy//src/sys/system.h ****     struct Config
  23:../../libDaisy//src/sys/system.h ****     {
  24:../../libDaisy//src/sys/system.h ****         /** Specifies the system clock frequency that feeds APB/AHB clocks, etc. */
  25:../../libDaisy//src/sys/system.h ****         enum class SysClkFreq
  26:../../libDaisy//src/sys/system.h ****         {
  27:../../libDaisy//src/sys/system.h ****             FREQ_400MHZ,
  28:../../libDaisy//src/sys/system.h ****             FREQ_480MHZ,
  29:../../libDaisy//src/sys/system.h ****         };
  30:../../libDaisy//src/sys/system.h **** 
  31:../../libDaisy//src/sys/system.h ****         /** Method to call on the struct to set to defaults
  32:../../libDaisy//src/sys/system.h ****          ** CPU Freq set to 400MHz
  33:../../libDaisy//src/sys/system.h ****          ** Cache Enabled 
  34:../../libDaisy//src/sys/system.h ****          ** */
  35:../../libDaisy//src/sys/system.h ****         void Defaults()
  36:../../libDaisy//src/sys/system.h ****         {
  37:../../libDaisy//src/sys/system.h ****             cpu_freq    = SysClkFreq::FREQ_400MHZ;
  38:../../libDaisy//src/sys/system.h ****             use_dcache  = true;
  39:../../libDaisy//src/sys/system.h ****             use_icache  = true;
  40:../../libDaisy//src/sys/system.h ****             skip_clocks = false;
  41:../../libDaisy//src/sys/system.h ****         }
  42:../../libDaisy//src/sys/system.h **** 
  43:../../libDaisy//src/sys/system.h ****         /** Method to call on the struct to set to boost mode:
  44:../../libDaisy//src/sys/system.h ****          ** CPU Freq set to 480MHz
  45:../../libDaisy//src/sys/system.h ****          ** Cache Enabled 
  46:../../libDaisy//src/sys/system.h ****          ** */
  47:../../libDaisy//src/sys/system.h ****         void Boost()
  48:../../libDaisy//src/sys/system.h ****         {
  49:../../libDaisy//src/sys/system.h ****             cpu_freq    = SysClkFreq::FREQ_480MHZ;
  50:../../libDaisy//src/sys/system.h ****             use_dcache  = true;
  51:../../libDaisy//src/sys/system.h ****             use_icache  = true;
  52:../../libDaisy//src/sys/system.h ****             skip_clocks = false;
  53:../../libDaisy//src/sys/system.h ****         }
  54:../../libDaisy//src/sys/system.h **** 
  55:../../libDaisy//src/sys/system.h ****         SysClkFreq cpu_freq;
  56:../../libDaisy//src/sys/system.h ****         bool       use_dcache;
ARM GAS  /var/folders/hl/qgbwny5j0fd895c2c41bk3tw0000gp/T//ccTphaKR.s 			page 3


  57:../../libDaisy//src/sys/system.h ****         bool       use_icache;
  58:../../libDaisy//src/sys/system.h ****         bool       skip_clocks;
  59:../../libDaisy//src/sys/system.h ****     };
  60:../../libDaisy//src/sys/system.h **** 
  61:../../libDaisy//src/sys/system.h ****     /** Describes the different regions of memory available to the Daisy
  62:../../libDaisy//src/sys/system.h ****      * 
  63:../../libDaisy//src/sys/system.h ****      */
  64:../../libDaisy//src/sys/system.h ****     enum MemoryRegion
  65:../../libDaisy//src/sys/system.h ****     {
  66:../../libDaisy//src/sys/system.h ****         INTERNAL_FLASH = 0,
  67:../../libDaisy//src/sys/system.h ****         ITCMRAM,
  68:../../libDaisy//src/sys/system.h ****         DTCMRAM,
  69:../../libDaisy//src/sys/system.h ****         SRAM_D1,
  70:../../libDaisy//src/sys/system.h ****         SRAM_D2,
  71:../../libDaisy//src/sys/system.h ****         SRAM_D3,
  72:../../libDaisy//src/sys/system.h ****         SDRAM,
  73:../../libDaisy//src/sys/system.h ****         QSPI,
  74:../../libDaisy//src/sys/system.h ****         INVALID_ADDRESS,
  75:../../libDaisy//src/sys/system.h ****     };
  76:../../libDaisy//src/sys/system.h **** 
  77:../../libDaisy//src/sys/system.h ****     System() {}
  78:../../libDaisy//src/sys/system.h ****     ~System() {}
  38              		.loc 2 78 5 view .LVU1
  39              		.loc 2 78 5 is_stmt 0 view .LVU2
  40              	.LBE270:
  41              	.LBB271:
  42              	.LBI271:
  43              		.file 3 "../../libDaisy//src/hid/usb.h"
   1:../../libDaisy//src/hid/usb.h **** #pragma once
   2:../../libDaisy//src/hid/usb.h **** #ifndef DSY_HID_USB_H
   3:../../libDaisy//src/hid/usb.h **** #define DSY_HID_USB_H
   4:../../libDaisy//src/hid/usb.h **** #include <stdint.h>
   5:../../libDaisy//src/hid/usb.h **** #include <stdlib.h>
   6:../../libDaisy//src/hid/usb.h **** 
   7:../../libDaisy//src/hid/usb.h **** namespace daisy
   8:../../libDaisy//src/hid/usb.h **** /** @addtogroup human_interface
   9:../../libDaisy//src/hid/usb.h ****     @{
  10:../../libDaisy//src/hid/usb.h **** */
  11:../../libDaisy//src/hid/usb.h **** 
  12:../../libDaisy//src/hid/usb.h **** {
  13:../../libDaisy//src/hid/usb.h **** /** 
  14:../../libDaisy//src/hid/usb.h ****     @brief Interface for initializing and using the USB Peripherals on the daisy
  15:../../libDaisy//src/hid/usb.h ****     @author Stephen Hensley
  16:../../libDaisy//src/hid/usb.h ****     @date December 2019
  17:../../libDaisy//src/hid/usb.h **** */
  18:../../libDaisy//src/hid/usb.h **** class UsbHandle
  19:../../libDaisy//src/hid/usb.h **** {
  20:../../libDaisy//src/hid/usb.h ****   public:
  21:../../libDaisy//src/hid/usb.h ****     /** Return values for USBHandle Functions */
  22:../../libDaisy//src/hid/usb.h ****     enum class Result
  23:../../libDaisy//src/hid/usb.h ****     {
  24:../../libDaisy//src/hid/usb.h ****         OK,
  25:../../libDaisy//src/hid/usb.h ****         ERR,
  26:../../libDaisy//src/hid/usb.h ****     };
  27:../../libDaisy//src/hid/usb.h **** 
  28:../../libDaisy//src/hid/usb.h ****     /** Specified which of the two USB Peripherals to initialize. */
  29:../../libDaisy//src/hid/usb.h ****     enum UsbPeriph
ARM GAS  /var/folders/hl/qgbwny5j0fd895c2c41bk3tw0000gp/T//ccTphaKR.s 			page 4


  30:../../libDaisy//src/hid/usb.h ****     {
  31:../../libDaisy//src/hid/usb.h ****         FS_INTERNAL, /**< Internal pin */
  32:../../libDaisy//src/hid/usb.h ****         FS_EXTERNAL, /**< FS External D+ pin is Pin 38 (GPIO32). FS External D- pin is Pin 37 (GPIO
  33:../../libDaisy//src/hid/usb.h ****         FS_BOTH,     /**< Both */
  34:../../libDaisy//src/hid/usb.h ****     };
  35:../../libDaisy//src/hid/usb.h **** 
  36:../../libDaisy//src/hid/usb.h **** 
  37:../../libDaisy//src/hid/usb.h ****     /** Function called upon reception of a buffer */
  38:../../libDaisy//src/hid/usb.h ****     typedef void (*ReceiveCallback)(uint8_t* buff, uint32_t* len);
  39:../../libDaisy//src/hid/usb.h **** 
  40:../../libDaisy//src/hid/usb.h ****     UsbHandle() {}
  41:../../libDaisy//src/hid/usb.h **** 
  42:../../libDaisy//src/hid/usb.h ****     ~UsbHandle() {}
  44              		.loc 3 42 5 is_stmt 1 view .LVU3
  45              		.loc 3 42 5 is_stmt 0 view .LVU4
  46              	.LBE271:
  47              	.LBB272:
  48              	.LBI272:
  49              		.file 4 "../../libDaisy//src/per/adc.h"
   1:../../libDaisy//src/per/adc.h **** #pragma once
   2:../../libDaisy//src/per/adc.h **** #ifndef DSY_ADC_H
   3:../../libDaisy//src/per/adc.h **** #define DSY_ADC_H /**< Macro */
   4:../../libDaisy//src/per/adc.h **** #include <stdint.h>
   5:../../libDaisy//src/per/adc.h **** #include <stdlib.h>
   6:../../libDaisy//src/per/adc.h **** #include "daisy_core.h"
   7:../../libDaisy//src/per/adc.h **** #include "per/gpio.h"
   8:../../libDaisy//src/per/adc.h **** 
   9:../../libDaisy//src/per/adc.h **** #define DSY_ADC_MAX_CHANNELS 16 /**< Maximum number of ADC channels */
  10:../../libDaisy//src/per/adc.h **** 
  11:../../libDaisy//src/per/adc.h **** namespace daisy
  12:../../libDaisy//src/per/adc.h **** {
  13:../../libDaisy//src/per/adc.h **** /** @addtogroup per_analog
  14:../../libDaisy//src/per/adc.h ****     @{
  15:../../libDaisy//src/per/adc.h **** */
  16:../../libDaisy//src/per/adc.h **** 
  17:../../libDaisy//src/per/adc.h **** /* While there may not be many configuration options here,
  18:../../libDaisy//src/per/adc.h **** using a struct like this allows us to add more configuration
  19:../../libDaisy//src/per/adc.h **** later without breaking existing functionality.
  20:../../libDaisy//src/per/adc.h **** */
  21:../../libDaisy//src/per/adc.h **** 
  22:../../libDaisy//src/per/adc.h **** /** @brief   Configuration Structure for an ADC Channel 
  23:../../libDaisy//src/per/adc.h ****  *  @details This can be used to configure a a single input, 
  24:../../libDaisy//src/per/adc.h ****  *           or a multiplexed input, allowing up to 8 inputs on 
  25:../../libDaisy//src/per/adc.h ****  *           one channel.
  26:../../libDaisy//src/per/adc.h ****  *  @note    Sharing data lines to multiple muxes _is_ possible, but
  27:../../libDaisy//src/per/adc.h ****  *           each channel sharing data lines must be set to the maximum
  28:../../libDaisy//src/per/adc.h ****  *           number of channels, even if some multiplexers have fewer
  29:../../libDaisy//src/per/adc.h ****  *           inputs connected.
  30:../../libDaisy//src/per/adc.h **** */
  31:../../libDaisy//src/per/adc.h **** struct AdcChannelConfig
  32:../../libDaisy//src/per/adc.h **** {
  33:../../libDaisy//src/per/adc.h ****     /** Which pin to use for multiplexing */
  34:../../libDaisy//src/per/adc.h ****     enum MuxPin
  35:../../libDaisy//src/per/adc.h ****     {
  36:../../libDaisy//src/per/adc.h ****         MUX_SEL_0,    /**< & */
  37:../../libDaisy//src/per/adc.h ****         MUX_SEL_1,    /**< & */
  38:../../libDaisy//src/per/adc.h ****         MUX_SEL_2,    /**< & */
ARM GAS  /var/folders/hl/qgbwny5j0fd895c2c41bk3tw0000gp/T//ccTphaKR.s 			page 5


  39:../../libDaisy//src/per/adc.h ****         MUX_SEL_LAST, /**< & */
  40:../../libDaisy//src/per/adc.h ****     };
  41:../../libDaisy//src/per/adc.h **** 
  42:../../libDaisy//src/per/adc.h ****     /** Initializes a single ADC pin as an ADC. 
  43:../../libDaisy//src/per/adc.h ****     \param pin Pin to init.
  44:../../libDaisy//src/per/adc.h ****      */
  45:../../libDaisy//src/per/adc.h ****     void InitSingle(dsy_gpio_pin pin);
  46:../../libDaisy//src/per/adc.h **** 
  47:../../libDaisy//src/per/adc.h ****     /** 
  48:../../libDaisy//src/per/adc.h ****     Initializes a single ADC pin as a Multiplexed ADC.
  49:../../libDaisy//src/per/adc.h ****     Requires a CD405X Multiplexer connected to the pin.
  50:../../libDaisy//src/per/adc.h ****     You only need to supply the mux pins that are required,
  51:../../libDaisy//src/per/adc.h ****     e.g. a 4052 mux would only require mux_0 and mux_1.
  52:../../libDaisy//src/per/adc.h ****     Internal Callbacks handle the pin addressing.
  53:../../libDaisy//src/per/adc.h ****     \param mux_channels must be 1-8
  54:../../libDaisy//src/per/adc.h ****     \param mux_0 First mux pin
  55:../../libDaisy//src/per/adc.h ****     \param mux_1 Second mux pin
  56:../../libDaisy//src/per/adc.h ****     \param mux_2 Third mux pin
  57:../../libDaisy//src/per/adc.h ****     \param adc_pin &
  58:../../libDaisy//src/per/adc.h ****     */
  59:../../libDaisy//src/per/adc.h ****     void InitMux(dsy_gpio_pin adc_pin,
  60:../../libDaisy//src/per/adc.h ****                  size_t       mux_channels,
  61:../../libDaisy//src/per/adc.h ****                  dsy_gpio_pin mux_0,
  62:../../libDaisy//src/per/adc.h ****                  dsy_gpio_pin mux_1 = {DSY_GPIOX, 0},
  63:../../libDaisy//src/per/adc.h ****                  dsy_gpio_pin mux_2 = {DSY_GPIOX, 0});
  64:../../libDaisy//src/per/adc.h **** 
  65:../../libDaisy//src/per/adc.h ****     dsy_gpio pin_;                   /**< & */
  66:../../libDaisy//src/per/adc.h ****     dsy_gpio mux_pin_[MUX_SEL_LAST]; /**< & */
  67:../../libDaisy//src/per/adc.h ****     uint8_t  mux_channels_;          /**< & */
  68:../../libDaisy//src/per/adc.h **** };
  69:../../libDaisy//src/per/adc.h **** 
  70:../../libDaisy//src/per/adc.h **** /**
  71:../../libDaisy//src/per/adc.h ****    @brief Handler for analog to digital conversion
  72:../../libDaisy//src/per/adc.h **** */
  73:../../libDaisy//src/per/adc.h **** class AdcHandle
  74:../../libDaisy//src/per/adc.h **** {
  75:../../libDaisy//src/per/adc.h ****   public:
  76:../../libDaisy//src/per/adc.h ****     /** Supported oversampling amounts */
  77:../../libDaisy//src/per/adc.h ****     enum OverSampling
  78:../../libDaisy//src/per/adc.h ****     {
  79:../../libDaisy//src/per/adc.h ****         OVS_NONE, /**< & */
  80:../../libDaisy//src/per/adc.h ****         OVS_4,    /**< & */
  81:../../libDaisy//src/per/adc.h ****         OVS_8,    /**< & */
  82:../../libDaisy//src/per/adc.h ****         OVS_16,   /**< & */
  83:../../libDaisy//src/per/adc.h ****         OVS_32,   /**< & */
  84:../../libDaisy//src/per/adc.h ****         OVS_64,   /**< & */
  85:../../libDaisy//src/per/adc.h ****         OVS_128,  /**< & */
  86:../../libDaisy//src/per/adc.h ****         OVS_256,  /**< & */
  87:../../libDaisy//src/per/adc.h ****         OVS_512,  /**< & */
  88:../../libDaisy//src/per/adc.h ****         OVS_1024, /**< & */
  89:../../libDaisy//src/per/adc.h ****         OVS_LAST, /**< & */
  90:../../libDaisy//src/per/adc.h ****     };
  91:../../libDaisy//src/per/adc.h **** 
  92:../../libDaisy//src/per/adc.h ****     AdcHandle() {}
  93:../../libDaisy//src/per/adc.h ****     ~AdcHandle() {}
  50              		.loc 4 93 5 is_stmt 1 view .LVU5
  51              		.loc 4 93 5 is_stmt 0 view .LVU6
ARM GAS  /var/folders/hl/qgbwny5j0fd895c2c41bk3tw0000gp/T//ccTphaKR.s 			page 6


  52              	.LBE272:
  53              	.LBB273:
  54              	.LBI273:
  55              		.file 5 "../../libDaisy//src/hid/audio.h"
   1:../../libDaisy//src/hid/audio.h **** #ifndef DSY_AUDIO_H
   2:../../libDaisy//src/hid/audio.h **** #define DSY_AUDIO_H /**< & */
   3:../../libDaisy//src/hid/audio.h **** 
   4:../../libDaisy//src/hid/audio.h **** #include "per/sai.h"
   5:../../libDaisy//src/hid/audio.h **** 
   6:../../libDaisy//src/hid/audio.h **** namespace daisy
   7:../../libDaisy//src/hid/audio.h **** {
   8:../../libDaisy//src/hid/audio.h **** /** @brief Audio Engine Handle
   9:../../libDaisy//src/hid/audio.h ****  *  @ingroup audio 
  10:../../libDaisy//src/hid/audio.h ****  *  @details This class allows for higher level access to an audio engine.
  11:../../libDaisy//src/hid/audio.h ****  *           If you're using a SOM like the DaisySeed or DaisyPatchSM (or any 
  12:../../libDaisy//src/hid/audio.h ****  *            board that includes one of those objects) then the intialization
  13:../../libDaisy//src/hid/audio.h ****  *            is already taken  care of.
  14:../../libDaisy//src/hid/audio.h ****  *           If you're setting up your own custom hardware, or need to make changes
  15:../../libDaisy//src/hid/audio.h ****  *           you will have to take the following steps:
  16:../../libDaisy//src/hid/audio.h ****  *             1. Create and Initialize an SaiHandle or two depending on your requirements
  17:../../libDaisy//src/hid/audio.h ****  *             2. Initialize the Audio Handle with the desired settings and the Initialized SaiHand
  18:../../libDaisy//src/hid/audio.h ****  *             3. If the connected codec requires special configuration or initialization, do so
  19:../../libDaisy//src/hid/audio.h ****  *             4. Write a callback method using either the AudioCallback or the InterleavingAudioCa
  20:../../libDaisy//src/hid/audio.h ****  *             5. Start the Audio using one of the StartAudio function
  21:../../libDaisy//src/hid/audio.h ****  */
  22:../../libDaisy//src/hid/audio.h **** class AudioHandle
  23:../../libDaisy//src/hid/audio.h **** {
  24:../../libDaisy//src/hid/audio.h ****   public:
  25:../../libDaisy//src/hid/audio.h ****     /** Manually configurable details about the Audio Engine */
  26:../../libDaisy//src/hid/audio.h ****     /** TODO: Figure out how to get samplerate in here. */
  27:../../libDaisy//src/hid/audio.h ****     struct Config
  28:../../libDaisy//src/hid/audio.h ****     {
  29:../../libDaisy//src/hid/audio.h ****         /** number of samples to process per callback */
  30:../../libDaisy//src/hid/audio.h ****         size_t blocksize;
  31:../../libDaisy//src/hid/audio.h **** 
  32:../../libDaisy//src/hid/audio.h ****         /**< Sample rate of audio */
  33:../../libDaisy//src/hid/audio.h ****         SaiHandle::Config::SampleRate samplerate;
  34:../../libDaisy//src/hid/audio.h **** 
  35:../../libDaisy//src/hid/audio.h ****         /** factor for adjustment before and after callback for hardware that may have extra headro
  36:../../libDaisy//src/hid/audio.h ****         float postgain;
  37:../../libDaisy//src/hid/audio.h **** 
  38:../../libDaisy//src/hid/audio.h ****         /** factor for additional one-sided compensation to audio path for hardware that may
  39:../../libDaisy//src/hid/audio.h ****          *  have unequal input/output ranges
  40:../../libDaisy//src/hid/audio.h ****          */
  41:../../libDaisy//src/hid/audio.h ****         float output_compensation;
  42:../../libDaisy//src/hid/audio.h **** 
  43:../../libDaisy//src/hid/audio.h ****         /** Sets default values for config struct */
  44:../../libDaisy//src/hid/audio.h ****         Config()
  45:../../libDaisy//src/hid/audio.h ****         : blocksize(48),
  46:../../libDaisy//src/hid/audio.h ****           samplerate(SaiHandle::Config::SampleRate::SAI_48KHZ),
  47:../../libDaisy//src/hid/audio.h ****           postgain(1.f),
  48:../../libDaisy//src/hid/audio.h ****           output_compensation(1.f)
  49:../../libDaisy//src/hid/audio.h ****         {
  50:../../libDaisy//src/hid/audio.h ****         }
  51:../../libDaisy//src/hid/audio.h ****     };
  52:../../libDaisy//src/hid/audio.h **** 
  53:../../libDaisy//src/hid/audio.h ****     enum class Result
ARM GAS  /var/folders/hl/qgbwny5j0fd895c2c41bk3tw0000gp/T//ccTphaKR.s 			page 7


  54:../../libDaisy//src/hid/audio.h ****     {
  55:../../libDaisy//src/hid/audio.h ****         OK,
  56:../../libDaisy//src/hid/audio.h ****         ERR,
  57:../../libDaisy//src/hid/audio.h ****     };
  58:../../libDaisy//src/hid/audio.h **** 
  59:../../libDaisy//src/hid/audio.h ****     /** Non-Interleaving input buffer
  60:../../libDaisy//src/hid/audio.h ****      * Buffer arranged by float[chn][sample] 
  61:../../libDaisy//src/hid/audio.h ****      * const so that the user can't modify the input
  62:../../libDaisy//src/hid/audio.h ****      */
  63:../../libDaisy//src/hid/audio.h ****     typedef const float* const* InputBuffer;
  64:../../libDaisy//src/hid/audio.h **** 
  65:../../libDaisy//src/hid/audio.h ****     /** Non-Interleaving output buffer
  66:../../libDaisy//src/hid/audio.h ****      * Arranged by float[chn][sample] 
  67:../../libDaisy//src/hid/audio.h ****      */
  68:../../libDaisy//src/hid/audio.h ****     typedef float** OutputBuffer;
  69:../../libDaisy//src/hid/audio.h **** 
  70:../../libDaisy//src/hid/audio.h ****     /** Type for a Non-Interleaving audio callback 
  71:../../libDaisy//src/hid/audio.h ****      * Non-Interleaving audio callbacks in daisy will be of this type
  72:../../libDaisy//src/hid/audio.h ****      */
  73:../../libDaisy//src/hid/audio.h ****     typedef void (*AudioCallback)(InputBuffer  in,
  74:../../libDaisy//src/hid/audio.h ****                                   OutputBuffer out,
  75:../../libDaisy//src/hid/audio.h ****                                   size_t       size);
  76:../../libDaisy//src/hid/audio.h **** 
  77:../../libDaisy//src/hid/audio.h ****     /** Interleaving Input buffer
  78:../../libDaisy//src/hid/audio.h ****      ** audio is prepared as { L0, R0, L1, R1, . . . LN, RN }]
  79:../../libDaisy//src/hid/audio.h ****      ** this is const, as the user shouldn't modify it
  80:../../libDaisy//src/hid/audio.h ****     */
  81:../../libDaisy//src/hid/audio.h ****     typedef const float* InterleavingInputBuffer;
  82:../../libDaisy//src/hid/audio.h **** 
  83:../../libDaisy//src/hid/audio.h ****     /** Interleaving Output buffer 
  84:../../libDaisy//src/hid/audio.h ****      ** audio is prepared as { L0, R0, L1, R1, . . . LN, RN }
  85:../../libDaisy//src/hid/audio.h ****     */
  86:../../libDaisy//src/hid/audio.h ****     typedef float* InterleavingOutputBuffer;
  87:../../libDaisy//src/hid/audio.h **** 
  88:../../libDaisy//src/hid/audio.h ****     /** Interleaving Audio Callback 
  89:../../libDaisy//src/hid/audio.h ****      * Interleaving audio callbacks in daisy must be of this type
  90:../../libDaisy//src/hid/audio.h ****      */
  91:../../libDaisy//src/hid/audio.h ****     typedef void (*InterleavingAudioCallback)(InterleavingInputBuffer  in,
  92:../../libDaisy//src/hid/audio.h ****                                               InterleavingOutputBuffer out,
  93:../../libDaisy//src/hid/audio.h ****                                               size_t                   size);
  94:../../libDaisy//src/hid/audio.h **** 
  95:../../libDaisy//src/hid/audio.h ****     AudioHandle() : pimpl_(nullptr) {}
  96:../../libDaisy//src/hid/audio.h ****     ~AudioHandle() {}
  56              		.loc 5 96 5 is_stmt 1 view .LVU7
  57              		.loc 5 96 5 is_stmt 0 view .LVU8
  58              	.LBE273:
  59              		.loc 1 22 19 view .LVU9
  60 0000 7047     		bx	lr
  61              		.cfi_endproc
  62              	.LFE2529:
  64              		.weak	_ZN5daisy9DaisySeedD1Ev
  65              		.thumb_set _ZN5daisy9DaisySeedD1Ev,_ZN5daisy9DaisySeedD2Ev
  66 0002 00BF     		.section	.text._ZN7daisysp8ReverbScD2Ev,"axG",%progbits,_ZN7daisysp8ReverbScD5Ev,comdat
  67              		.align	1
  68              		.p2align 2,,3
  69              		.weak	_ZN7daisysp8ReverbScD2Ev
  70              		.syntax unified
ARM GAS  /var/folders/hl/qgbwny5j0fd895c2c41bk3tw0000gp/T//ccTphaKR.s 			page 8


  71              		.thumb
  72              		.thumb_func
  73              		.fpu fpv5-d16
  75              	_ZN7daisysp8ReverbScD2Ev:
  76              	.LVL1:
  77              	.LFB4423:
  78              		.file 6 "../../DaisySP//Source/Effects/reverbsc.h"
   1:../../DaisySP//Source/Effects/reverbsc.h **** #pragma once
   2:../../DaisySP//Source/Effects/reverbsc.h **** #ifndef DSYSP_REVERBSC_H
   3:../../DaisySP//Source/Effects/reverbsc.h **** #define DSYSP_REVERBSC_H
   4:../../DaisySP//Source/Effects/reverbsc.h **** 
   5:../../DaisySP//Source/Effects/reverbsc.h **** #define DSY_REVERBSC_MAX_SIZE 98936
   6:../../DaisySP//Source/Effects/reverbsc.h **** 
   7:../../DaisySP//Source/Effects/reverbsc.h **** namespace daisysp
   8:../../DaisySP//Source/Effects/reverbsc.h **** {
   9:../../DaisySP//Source/Effects/reverbsc.h **** /**Delay line for internal reverb use
  10:../../DaisySP//Source/Effects/reverbsc.h **** */
  11:../../DaisySP//Source/Effects/reverbsc.h **** typedef struct
  12:../../DaisySP//Source/Effects/reverbsc.h **** {
  13:../../DaisySP//Source/Effects/reverbsc.h ****     int    write_pos;         /**< write position */
  14:../../DaisySP//Source/Effects/reverbsc.h ****     int    buffer_size;       /**< buffer size */
  15:../../DaisySP//Source/Effects/reverbsc.h ****     int    read_pos;          /**< read position */
  16:../../DaisySP//Source/Effects/reverbsc.h ****     int    read_pos_frac;     /**< fractional component of read pos */
  17:../../DaisySP//Source/Effects/reverbsc.h ****     int    read_pos_frac_inc; /**< increment for fractional */
  18:../../DaisySP//Source/Effects/reverbsc.h ****     int    dummy;             /**<  dummy var */
  19:../../DaisySP//Source/Effects/reverbsc.h ****     int    seed_val;          /**< randseed */
  20:../../DaisySP//Source/Effects/reverbsc.h ****     int    rand_line_cnt;     /**< number of random lines */
  21:../../DaisySP//Source/Effects/reverbsc.h ****     float  filter_state;      /**< state of filter */
  22:../../DaisySP//Source/Effects/reverbsc.h ****     float *buf;               /**< buffer ptr */
  23:../../DaisySP//Source/Effects/reverbsc.h **** } ReverbScDl;
  24:../../DaisySP//Source/Effects/reverbsc.h **** 
  25:../../DaisySP//Source/Effects/reverbsc.h **** /** Stereo Reverb
  26:../../DaisySP//Source/Effects/reverbsc.h **** 
  27:../../DaisySP//Source/Effects/reverbsc.h **** Reverb SC:               Ported from csound/soundpipe
  28:../../DaisySP//Source/Effects/reverbsc.h **** 
  29:../../DaisySP//Source/Effects/reverbsc.h **** Original author(s):        Sean Costello, Istvan Varga
  30:../../DaisySP//Source/Effects/reverbsc.h **** 
  31:../../DaisySP//Source/Effects/reverbsc.h **** Year:                    1999, 2005
  32:../../DaisySP//Source/Effects/reverbsc.h **** 
  33:../../DaisySP//Source/Effects/reverbsc.h **** Ported to soundpipe by:  Paul Batchelor
  34:../../DaisySP//Source/Effects/reverbsc.h **** 
  35:../../DaisySP//Source/Effects/reverbsc.h **** Ported by:                Stephen Hensley
  36:../../DaisySP//Source/Effects/reverbsc.h **** */
  37:../../DaisySP//Source/Effects/reverbsc.h **** class ReverbSc
  38:../../DaisySP//Source/Effects/reverbsc.h **** {
  39:../../DaisySP//Source/Effects/reverbsc.h ****   public:
  40:../../DaisySP//Source/Effects/reverbsc.h ****     ReverbSc() {}
  41:../../DaisySP//Source/Effects/reverbsc.h ****     ~ReverbSc() {}
  79              		.loc 6 41 5 is_stmt 1 view -0
  80              		.cfi_startproc
  81              		@ args = 0, pretend = 0, frame = 0
  82              		@ frame_needed = 0, uses_anonymous_args = 0
  83              		@ link register save eliminated.
  84              		.loc 6 41 18 is_stmt 0 view .LVU11
  85 0000 7047     		bx	lr
  86              		.cfi_endproc
  87              	.LFE4423:
ARM GAS  /var/folders/hl/qgbwny5j0fd895c2c41bk3tw0000gp/T//ccTphaKR.s 			page 9


  89              		.weak	_ZN7daisysp8ReverbScD1Ev
  90              		.thumb_set _ZN7daisysp8ReverbScD1Ev,_ZN7daisysp8ReverbScD2Ev
  91 0002 00BF     		.section	.text._ZN7daisysp10MoogLadderD2Ev,"axG",%progbits,_ZN7daisysp10MoogLadderD5Ev,comdat
  92              		.align	1
  93              		.p2align 2,,3
  94              		.weak	_ZN7daisysp10MoogLadderD2Ev
  95              		.syntax unified
  96              		.thumb
  97              		.thumb_func
  98              		.fpu fpv5-d16
 100              	_ZN7daisysp10MoogLadderD2Ev:
 101              	.LVL2:
 102              	.LFB4522:
 103              		.file 7 "../../DaisySP//Source/Filters/moogladder.h"
   1:../../DaisySP//Source/Filters/moogladder.h **** #pragma once
   2:../../DaisySP//Source/Filters/moogladder.h **** #ifndef DSY_MOOGLADDER_H
   3:../../DaisySP//Source/Filters/moogladder.h **** #define DSY_MOOGLADDER_H
   4:../../DaisySP//Source/Filters/moogladder.h **** 
   5:../../DaisySP//Source/Filters/moogladder.h **** #include <stdint.h>
   6:../../DaisySP//Source/Filters/moogladder.h **** #ifdef __cplusplus
   7:../../DaisySP//Source/Filters/moogladder.h **** 
   8:../../DaisySP//Source/Filters/moogladder.h **** namespace daisysp
   9:../../DaisySP//Source/Filters/moogladder.h **** {
  10:../../DaisySP//Source/Filters/moogladder.h **** /** Moog ladder filter module
  11:../../DaisySP//Source/Filters/moogladder.h **** 
  12:../../DaisySP//Source/Filters/moogladder.h **** Ported from soundpipe
  13:../../DaisySP//Source/Filters/moogladder.h **** 
  14:../../DaisySP//Source/Filters/moogladder.h **** Original author(s) : Victor Lazzarini, John ffitch (fast tanh), Bob Moog
  15:../../DaisySP//Source/Filters/moogladder.h **** 
  16:../../DaisySP//Source/Filters/moogladder.h **** */
  17:../../DaisySP//Source/Filters/moogladder.h **** class MoogLadder
  18:../../DaisySP//Source/Filters/moogladder.h **** {
  19:../../DaisySP//Source/Filters/moogladder.h ****   public:
  20:../../DaisySP//Source/Filters/moogladder.h ****     MoogLadder() {}
  21:../../DaisySP//Source/Filters/moogladder.h ****     ~MoogLadder() {}
 104              		.loc 7 21 5 is_stmt 1 view -0
 105              		.cfi_startproc
 106              		@ args = 0, pretend = 0, frame = 0
 107              		@ frame_needed = 0, uses_anonymous_args = 0
 108              		@ link register save eliminated.
 109              		.loc 7 21 20 is_stmt 0 view .LVU13
 110 0000 7047     		bx	lr
 111              		.cfi_endproc
 112              	.LFE4522:
 114              		.weak	_ZN7daisysp10MoogLadderD1Ev
 115              		.thumb_set _ZN7daisysp10MoogLadderD1Ev,_ZN7daisysp10MoogLadderD2Ev
 116 0002 00BF     		.section	.text._ZN7daisysp5MetroD2Ev,"axG",%progbits,_ZN7daisysp5MetroD5Ev,comdat
 117              		.align	1
 118              		.p2align 2,,3
 119              		.weak	_ZN7daisysp5MetroD2Ev
 120              		.syntax unified
 121              		.thumb
 122              		.thumb_func
 123              		.fpu fpv5-d16
 125              	_ZN7daisysp5MetroD2Ev:
 126              	.LVL3:
 127              	.LFB4760:
ARM GAS  /var/folders/hl/qgbwny5j0fd895c2c41bk3tw0000gp/T//ccTphaKR.s 			page 10


 128              		.file 8 "../../DaisySP//Source/Utility/metro.h"
   1:../../DaisySP//Source/Utility/metro.h **** #pragma once
   2:../../DaisySP//Source/Utility/metro.h **** #ifndef DSY_METRO_H
   3:../../DaisySP//Source/Utility/metro.h **** #define DSY_METRO_H
   4:../../DaisySP//Source/Utility/metro.h **** #include <stdint.h>
   5:../../DaisySP//Source/Utility/metro.h **** #ifdef __cplusplus
   6:../../DaisySP//Source/Utility/metro.h **** 
   7:../../DaisySP//Source/Utility/metro.h **** namespace daisysp
   8:../../DaisySP//Source/Utility/metro.h **** {
   9:../../DaisySP//Source/Utility/metro.h **** /** Creates a clock signal at a specific frequency.
  10:../../DaisySP//Source/Utility/metro.h **** */
  11:../../DaisySP//Source/Utility/metro.h **** class Metro
  12:../../DaisySP//Source/Utility/metro.h **** {
  13:../../DaisySP//Source/Utility/metro.h ****   public:
  14:../../DaisySP//Source/Utility/metro.h ****     Metro() {}
  15:../../DaisySP//Source/Utility/metro.h ****     ~Metro() {}
 129              		.loc 8 15 5 is_stmt 1 view -0
 130              		.cfi_startproc
 131              		@ args = 0, pretend = 0, frame = 0
 132              		@ frame_needed = 0, uses_anonymous_args = 0
 133              		@ link register save eliminated.
 134              		.loc 8 15 15 is_stmt 0 view .LVU15
 135 0000 7047     		bx	lr
 136              		.cfi_endproc
 137              	.LFE4760:
 139              		.weak	_ZN7daisysp5MetroD1Ev
 140              		.thumb_set _ZN7daisysp5MetroD1Ev,_ZN7daisysp5MetroD2Ev
 141 0002 00BF     		.section	.text._ZN7daisysp9PolyPluckILj32EED2Ev,"axG",%progbits,_ZN7daisysp9PolyPluckILj32EED5Ev,c
 142              		.align	1
 143              		.p2align 2,,3
 144              		.weak	_ZN7daisysp9PolyPluckILj32EED2Ev
 145              		.syntax unified
 146              		.thumb
 147              		.thumb_func
 148              		.fpu fpv5-d16
 150              	_ZN7daisysp9PolyPluckILj32EED2Ev:
 151              	.LVL4:
 152              	.LFB5357:
 153              		.file 9 "../../DaisySP//Source/PhysicalModeling/PolyPluck.h"
   1:../../DaisySP//Source/PhysicalModeling/PolyPluck.h **** #pragma once
   2:../../DaisySP//Source/PhysicalModeling/PolyPluck.h **** #ifndef DSY_POLYPLUCK_H
   3:../../DaisySP//Source/PhysicalModeling/PolyPluck.h **** #define DSY_POLYPLUCK_H
   4:../../DaisySP//Source/PhysicalModeling/PolyPluck.h **** 
   5:../../DaisySP//Source/PhysicalModeling/PolyPluck.h **** #include <stdlib.h>
   6:../../DaisySP//Source/PhysicalModeling/PolyPluck.h **** #include "Utility/dsp.h"
   7:../../DaisySP//Source/PhysicalModeling/PolyPluck.h **** #include "PhysicalModeling/pluck.h"
   8:../../DaisySP//Source/PhysicalModeling/PolyPluck.h **** #include "Utility/dcblock.h"
   9:../../DaisySP//Source/PhysicalModeling/PolyPluck.h **** 
  10:../../DaisySP//Source/PhysicalModeling/PolyPluck.h **** namespace daisysp
  11:../../DaisySP//Source/PhysicalModeling/PolyPluck.h **** {
  12:../../DaisySP//Source/PhysicalModeling/PolyPluck.h **** /** Simplified Pseudo-Polyphonic Pluck Voice
  13:../../DaisySP//Source/PhysicalModeling/PolyPluck.h **** 
  14:../../DaisySP//Source/PhysicalModeling/PolyPluck.h **** Template Based Pluck Voice, with configurable number of voices and simple pseudo-polyphony.
  15:../../DaisySP//Source/PhysicalModeling/PolyPluck.h **** 
  16:../../DaisySP//Source/PhysicalModeling/PolyPluck.h **** DC Blocking included to prevent biases from causing unwanted saturation distortion.
  17:../../DaisySP//Source/PhysicalModeling/PolyPluck.h **** 
  18:../../DaisySP//Source/PhysicalModeling/PolyPluck.h **** **Author**: shensley
ARM GAS  /var/folders/hl/qgbwny5j0fd895c2c41bk3tw0000gp/T//ccTphaKR.s 			page 11


  19:../../DaisySP//Source/PhysicalModeling/PolyPluck.h **** 
  20:../../DaisySP//Source/PhysicalModeling/PolyPluck.h **** **Date Added**: March 2020
  21:../../DaisySP//Source/PhysicalModeling/PolyPluck.h **** */
  22:../../DaisySP//Source/PhysicalModeling/PolyPluck.h **** template <size_t num_voices>
  23:../../DaisySP//Source/PhysicalModeling/PolyPluck.h **** class PolyPluck
 154              		.loc 9 23 7 is_stmt 1 view -0
 155              		.cfi_startproc
 156              		@ args = 0, pretend = 0, frame = 0
 157              		@ frame_needed = 0, uses_anonymous_args = 0
 158              		@ link register save eliminated.
 159              	.LBB274:
 160              	.LBI274:
 161              		.file 10 "../../DaisySP//Source/Utility/dcblock.h"
   1:../../DaisySP//Source/Utility/dcblock.h **** 
   2:../../DaisySP//Source/Utility/dcblock.h **** #pragma once
   3:../../DaisySP//Source/Utility/dcblock.h **** #ifndef DSY_DCBLOCK_H
   4:../../DaisySP//Source/Utility/dcblock.h **** #define DSY_DCBLOCK_H
   5:../../DaisySP//Source/Utility/dcblock.h **** #ifdef __cplusplus
   6:../../DaisySP//Source/Utility/dcblock.h **** 
   7:../../DaisySP//Source/Utility/dcblock.h **** namespace daisysp
   8:../../DaisySP//Source/Utility/dcblock.h **** {
   9:../../DaisySP//Source/Utility/dcblock.h **** /** Removes DC component of a signal
  10:../../DaisySP//Source/Utility/dcblock.h ****     */
  11:../../DaisySP//Source/Utility/dcblock.h **** class DcBlock
  12:../../DaisySP//Source/Utility/dcblock.h **** {
  13:../../DaisySP//Source/Utility/dcblock.h ****   public:
  14:../../DaisySP//Source/Utility/dcblock.h ****     DcBlock(){};
  15:../../DaisySP//Source/Utility/dcblock.h ****     ~DcBlock(){};
 162              		.loc 10 15 5 view .LVU17
 163              		.loc 10 15 5 is_stmt 0 view .LVU18
 164              	.LBE274:
 165              		.loc 9 23 7 view .LVU19
 166 0000 7047     		bx	lr
 167              		.cfi_endproc
 168              	.LFE5357:
 170              		.weak	_ZN7daisysp9PolyPluckILj32EED1Ev
 171              		.thumb_set _ZN7daisysp9PolyPluckILj32EED1Ev,_ZN7daisysp9PolyPluckILj32EED2Ev
 172 0002 00BF     		.section	.text._Z13AudioCallbackPKPKfPPfj,"ax",%progbits
 173              		.align	1
 174              		.p2align 2,,3
 175              		.global	_Z13AudioCallbackPKPKfPPfj
 176              		.syntax unified
 177              		.thumb
 178              		.thumb_func
 179              		.fpu fpv5-d16
 181              	_Z13AudioCallbackPKPKfPPfj:
 182              	.LVL5:
 183              	.LFB4792:
 184              		.file 11 "plinks.cpp"
   1:plinks.cpp    **** #include "daisy_seed.h"
   2:plinks.cpp    **** #include "daisysp.h"
   3:plinks.cpp    **** 
   4:plinks.cpp    **** using namespace daisy;
   5:plinks.cpp    **** using namespace daisysp;
   6:plinks.cpp    **** using namespace seed;
   7:plinks.cpp    **** 
   8:plinks.cpp    **** DaisySeed		hw;
ARM GAS  /var/folders/hl/qgbwny5j0fd895c2c41bk3tw0000gp/T//ccTphaKR.s 			page 12


   9:plinks.cpp    **** PolyPluck<32>	pp;
  10:plinks.cpp    **** Metro			tick;
  11:plinks.cpp    **** ReverbSc		rv;
  12:plinks.cpp    **** MoogLadder		ladder;
  13:plinks.cpp    **** 
  14:plinks.cpp    **** enum AdcChannel {
  15:plinks.cpp    ****    pot1 = 0,
  16:plinks.cpp    ****    pot2,
  17:plinks.cpp    ****    pot3,
  18:plinks.cpp    ****    pot4,
  19:plinks.cpp    ****    pot5,
  20:plinks.cpp    ****    NUM_ADC_CHANNELS
  21:plinks.cpp    **** };
  22:plinks.cpp    **** 
  23:plinks.cpp    **** // MIDI note numbers for a major triad
  24:plinks.cpp    **** const float kArpeggio[3] = {48.0f, 52.0f, 55.0f};
  25:plinks.cpp    **** uint8_t     arp_idx;
  26:plinks.cpp    **** 
  27:plinks.cpp    **** void AudioCallback(AudioHandle::InputBuffer in, AudioHandle::OutputBuffer out, size_t size)
  28:plinks.cpp    **** {
 185              		.loc 11 28 1 is_stmt 1 view -0
 186              		.cfi_startproc
 187              		@ args = 0, pretend = 0, frame = 16
 188              		@ frame_needed = 0, uses_anonymous_args = 0
  29:plinks.cpp    **** 	float trig, freq, sig_out;
 189              		.loc 11 29 2 view .LVU21
  30:plinks.cpp    **** 	trig = 0.f; 
 190              		.loc 11 30 2 view .LVU22
  31:plinks.cpp    **** 
  32:plinks.cpp    **** 	float speed = fmap(hw.adc.GetFloat(pot4), 1.f, 40.f);
 191              		.loc 11 32 2 view .LVU23
  28:plinks.cpp    **** 	float trig, freq, sig_out;
 192              		.loc 11 28 1 is_stmt 0 view .LVU24
 193 0000 2DE9F04F 		push	{r4, r5, r6, r7, r8, r9, r10, fp, lr}
 194              		.cfi_def_cfa_offset 36
 195              		.cfi_offset 4, -36
 196              		.cfi_offset 5, -32
 197              		.cfi_offset 6, -28
 198              		.cfi_offset 7, -24
 199              		.cfi_offset 8, -20
 200              		.cfi_offset 9, -16
 201              		.cfi_offset 10, -12
 202              		.cfi_offset 11, -8
 203              		.cfi_offset 14, -4
 204 0004 2DED068B 		vpush.64	{d8, d9, d10}
 205              		.cfi_def_cfa_offset 60
 206              		.cfi_offset 80, -60
 207              		.cfi_offset 81, -56
 208              		.cfi_offset 82, -52
 209              		.cfi_offset 83, -48
 210              		.cfi_offset 84, -44
 211              		.cfi_offset 85, -40
 212              	.LBB362:
 213              	.LBB363:
 214              		.file 12 "../../DaisySP//Source/Utility/dsp.h"
   1:../../DaisySP//Source/Utility/dsp.h **** /** Helpful defines, functions, and other utilities for use in/with daisysp modules.
   2:../../DaisySP//Source/Utility/dsp.h **** */
ARM GAS  /var/folders/hl/qgbwny5j0fd895c2c41bk3tw0000gp/T//ccTphaKR.s 			page 13


   3:../../DaisySP//Source/Utility/dsp.h **** #pragma once
   4:../../DaisySP//Source/Utility/dsp.h **** #ifndef DSY_CORE_DSP
   5:../../DaisySP//Source/Utility/dsp.h **** #define DSY_CORE_DSP
   6:../../DaisySP//Source/Utility/dsp.h **** #include <cassert>
   7:../../DaisySP//Source/Utility/dsp.h **** #include <cstdint>
   8:../../DaisySP//Source/Utility/dsp.h **** #include <random>
   9:../../DaisySP//Source/Utility/dsp.h **** #include <cmath>
  10:../../DaisySP//Source/Utility/dsp.h **** 
  11:../../DaisySP//Source/Utility/dsp.h **** /** PIs
  12:../../DaisySP//Source/Utility/dsp.h **** */
  13:../../DaisySP//Source/Utility/dsp.h **** #define PI_F 3.1415927410125732421875f
  14:../../DaisySP//Source/Utility/dsp.h **** #define TWOPI_F (2.0f * PI_F)
  15:../../DaisySP//Source/Utility/dsp.h **** #define HALFPI_F (PI_F * 0.5f)
  16:../../DaisySP//Source/Utility/dsp.h **** #define DSY_MIN(in, mn) (in < mn ? in : mn)
  17:../../DaisySP//Source/Utility/dsp.h **** #define DSY_MAX(in, mx) (in > mx ? in : mx)
  18:../../DaisySP//Source/Utility/dsp.h **** #define DSY_CLAMP(in, mn, mx) (DSY_MIN(DSY_MAX(in, mn), mx))
  19:../../DaisySP//Source/Utility/dsp.h **** #define DSY_COUNTOF(_arr) (sizeof(_arr) / sizeof(_arr[0]))
  20:../../DaisySP//Source/Utility/dsp.h **** 
  21:../../DaisySP//Source/Utility/dsp.h **** namespace daisysp
  22:../../DaisySP//Source/Utility/dsp.h **** {
  23:../../DaisySP//Source/Utility/dsp.h **** //Avoids division for random floats. e.g. rand() * kRandFrac
  24:../../DaisySP//Source/Utility/dsp.h **** static constexpr float kRandFrac = 1.f / (float)RAND_MAX;
  25:../../DaisySP//Source/Utility/dsp.h **** 
  26:../../DaisySP//Source/Utility/dsp.h **** //Convert from semitones to other units. e.g. 2 ^ (kOneTwelfth * x)
  27:../../DaisySP//Source/Utility/dsp.h **** static constexpr float kOneTwelfth = 1.f / 12.f;
  28:../../DaisySP//Source/Utility/dsp.h **** 
  29:../../DaisySP//Source/Utility/dsp.h **** /** efficient floating point min/max
  30:../../DaisySP//Source/Utility/dsp.h **** c/o stephen mccaul
  31:../../DaisySP//Source/Utility/dsp.h **** */
  32:../../DaisySP//Source/Utility/dsp.h **** inline float fmax(float a, float b)
  33:../../DaisySP//Source/Utility/dsp.h **** {
  34:../../DaisySP//Source/Utility/dsp.h ****     float r;
  35:../../DaisySP//Source/Utility/dsp.h **** #ifdef __arm__
  36:../../DaisySP//Source/Utility/dsp.h ****     asm("vmaxnm.f32 %[d], %[n], %[m]" : [d] "=t"(r) : [n] "t"(a), [m] "t"(b) :);
  37:../../DaisySP//Source/Utility/dsp.h **** #else
  38:../../DaisySP//Source/Utility/dsp.h ****     r = (a > b) ? a : b;
  39:../../DaisySP//Source/Utility/dsp.h **** #endif // __arm__
  40:../../DaisySP//Source/Utility/dsp.h ****     return r;
  41:../../DaisySP//Source/Utility/dsp.h **** }
  42:../../DaisySP//Source/Utility/dsp.h **** 
  43:../../DaisySP//Source/Utility/dsp.h **** inline float fmin(float a, float b)
  44:../../DaisySP//Source/Utility/dsp.h **** {
  45:../../DaisySP//Source/Utility/dsp.h ****     float r;
  46:../../DaisySP//Source/Utility/dsp.h **** #ifdef __arm__
  47:../../DaisySP//Source/Utility/dsp.h ****     asm("vminnm.f32 %[d], %[n], %[m]" : [d] "=t"(r) : [n] "t"(a), [m] "t"(b) :);
  48:../../DaisySP//Source/Utility/dsp.h **** #else
  49:../../DaisySP//Source/Utility/dsp.h ****     r = (a < b) ? a : b;
  50:../../DaisySP//Source/Utility/dsp.h **** #endif // __arm__
  51:../../DaisySP//Source/Utility/dsp.h ****     return r;
  52:../../DaisySP//Source/Utility/dsp.h **** }
  53:../../DaisySP//Source/Utility/dsp.h **** 
  54:../../DaisySP//Source/Utility/dsp.h **** /** quick fp clamp
  55:../../DaisySP//Source/Utility/dsp.h **** */
  56:../../DaisySP//Source/Utility/dsp.h **** inline float fclamp(float in, float min, float max)
  57:../../DaisySP//Source/Utility/dsp.h **** {
  58:../../DaisySP//Source/Utility/dsp.h ****     return fmin(fmax(in, min), max);
  59:../../DaisySP//Source/Utility/dsp.h **** }
ARM GAS  /var/folders/hl/qgbwny5j0fd895c2c41bk3tw0000gp/T//ccTphaKR.s 			page 14


  60:../../DaisySP//Source/Utility/dsp.h **** 
  61:../../DaisySP//Source/Utility/dsp.h **** /** From Musicdsp.org "Fast power and root estimates for 32bit floats)
  62:../../DaisySP//Source/Utility/dsp.h **** Original code by Stefan Stenzel
  63:../../DaisySP//Source/Utility/dsp.h **** These are approximations
  64:../../DaisySP//Source/Utility/dsp.h **** */
  65:../../DaisySP//Source/Utility/dsp.h **** inline float fastpower(float f, int n)
  66:../../DaisySP//Source/Utility/dsp.h **** {
  67:../../DaisySP//Source/Utility/dsp.h ****     long *lp, l;
  68:../../DaisySP//Source/Utility/dsp.h ****     lp = (long *)(&f);
  69:../../DaisySP//Source/Utility/dsp.h ****     l  = *lp;
  70:../../DaisySP//Source/Utility/dsp.h ****     l -= 0x3F800000;
  71:../../DaisySP//Source/Utility/dsp.h ****     l <<= (n - 1);
  72:../../DaisySP//Source/Utility/dsp.h ****     l += 0x3F800000;
  73:../../DaisySP//Source/Utility/dsp.h ****     *lp = l;
  74:../../DaisySP//Source/Utility/dsp.h ****     return f;
  75:../../DaisySP//Source/Utility/dsp.h **** }
  76:../../DaisySP//Source/Utility/dsp.h **** 
  77:../../DaisySP//Source/Utility/dsp.h **** inline float fastroot(float f, int n)
  78:../../DaisySP//Source/Utility/dsp.h **** {
  79:../../DaisySP//Source/Utility/dsp.h ****     long *lp, l;
  80:../../DaisySP//Source/Utility/dsp.h ****     lp = (long *)(&f);
  81:../../DaisySP//Source/Utility/dsp.h ****     l  = *lp;
  82:../../DaisySP//Source/Utility/dsp.h ****     l -= 0x3F800000;
  83:../../DaisySP//Source/Utility/dsp.h ****     l >>= (n = 1);
  84:../../DaisySP//Source/Utility/dsp.h ****     l += 0x3F800000;
  85:../../DaisySP//Source/Utility/dsp.h ****     *lp = l;
  86:../../DaisySP//Source/Utility/dsp.h ****     return f;
  87:../../DaisySP//Source/Utility/dsp.h **** }
  88:../../DaisySP//Source/Utility/dsp.h **** 
  89:../../DaisySP//Source/Utility/dsp.h **** /** From http://openaudio.blogspot.com/2017/02/faster-log10-and-pow.html
  90:../../DaisySP//Source/Utility/dsp.h **** No approximation, pow10f(x) gives a 90% speed increase over powf(10.f, x)
  91:../../DaisySP//Source/Utility/dsp.h **** */
  92:../../DaisySP//Source/Utility/dsp.h **** inline float pow10f(float f)
  93:../../DaisySP//Source/Utility/dsp.h **** {
  94:../../DaisySP//Source/Utility/dsp.h ****     return expf(2.302585092994046f * f);
  95:../../DaisySP//Source/Utility/dsp.h **** }
  96:../../DaisySP//Source/Utility/dsp.h **** 
  97:../../DaisySP//Source/Utility/dsp.h **** /* Original code for fastlog2f by Dr. Paul Beckmann from the ARM community forum, adapted from the 
  98:../../DaisySP//Source/Utility/dsp.h **** About 25% performance increase over std::log10f
  99:../../DaisySP//Source/Utility/dsp.h **** */
 100:../../DaisySP//Source/Utility/dsp.h **** inline float fastlog2f(float f)
 101:../../DaisySP//Source/Utility/dsp.h **** {
 102:../../DaisySP//Source/Utility/dsp.h ****     float frac;
 103:../../DaisySP//Source/Utility/dsp.h ****     int   exp;
 104:../../DaisySP//Source/Utility/dsp.h ****     frac = frexpf(fabsf(f), &exp);
 105:../../DaisySP//Source/Utility/dsp.h ****     f    = 1.23149591368684f;
 106:../../DaisySP//Source/Utility/dsp.h ****     f *= frac;
 107:../../DaisySP//Source/Utility/dsp.h ****     f += -4.11852516267426f;
 108:../../DaisySP//Source/Utility/dsp.h ****     f *= frac;
 109:../../DaisySP//Source/Utility/dsp.h ****     f += 6.02197014179219f;
 110:../../DaisySP//Source/Utility/dsp.h ****     f *= frac;
 111:../../DaisySP//Source/Utility/dsp.h ****     f += -3.13396450166353f;
 112:../../DaisySP//Source/Utility/dsp.h ****     f += exp;
 113:../../DaisySP//Source/Utility/dsp.h ****     return (f);
 114:../../DaisySP//Source/Utility/dsp.h **** }
 115:../../DaisySP//Source/Utility/dsp.h **** 
 116:../../DaisySP//Source/Utility/dsp.h **** inline float fastlog10f(float f)
ARM GAS  /var/folders/hl/qgbwny5j0fd895c2c41bk3tw0000gp/T//ccTphaKR.s 			page 15


 117:../../DaisySP//Source/Utility/dsp.h **** {
 118:../../DaisySP//Source/Utility/dsp.h ****     return fastlog2f(f) * 0.3010299956639812f;
 119:../../DaisySP//Source/Utility/dsp.h **** }
 120:../../DaisySP//Source/Utility/dsp.h **** 
 121:../../DaisySP//Source/Utility/dsp.h **** /** Midi to frequency helper
 122:../../DaisySP//Source/Utility/dsp.h **** */
 123:../../DaisySP//Source/Utility/dsp.h **** inline float mtof(float m)
 124:../../DaisySP//Source/Utility/dsp.h **** {
 125:../../DaisySP//Source/Utility/dsp.h ****     return powf(2, (m - 69.0f) / 12.0f) * 440.0f;
 126:../../DaisySP//Source/Utility/dsp.h **** }
 127:../../DaisySP//Source/Utility/dsp.h **** 
 128:../../DaisySP//Source/Utility/dsp.h **** 
 129:../../DaisySP//Source/Utility/dsp.h **** /** one pole lpf
 130:../../DaisySP//Source/Utility/dsp.h **** out is passed by reference, and must be retained between
 131:../../DaisySP//Source/Utility/dsp.h **** calls to properly filter the signal
 132:../../DaisySP//Source/Utility/dsp.h **** coeff can be calculated:
 133:../../DaisySP//Source/Utility/dsp.h **** coeff = 1.0 / (time * sample_rate) ; where time is in seconds
 134:../../DaisySP//Source/Utility/dsp.h **** */
 135:../../DaisySP//Source/Utility/dsp.h **** inline void fonepole(float &out, float in, float coeff)
 136:../../DaisySP//Source/Utility/dsp.h **** {
 137:../../DaisySP//Source/Utility/dsp.h ****     out += coeff * (in - out);
 138:../../DaisySP//Source/Utility/dsp.h **** }
 139:../../DaisySP//Source/Utility/dsp.h **** 
 140:../../DaisySP//Source/Utility/dsp.h **** /** Curves to use with the fmap function */
 141:../../DaisySP//Source/Utility/dsp.h **** enum class Mapping
 142:../../DaisySP//Source/Utility/dsp.h **** {
 143:../../DaisySP//Source/Utility/dsp.h ****     LINEAR,
 144:../../DaisySP//Source/Utility/dsp.h ****     EXP,
 145:../../DaisySP//Source/Utility/dsp.h ****     LOG,
 146:../../DaisySP//Source/Utility/dsp.h **** };
 147:../../DaisySP//Source/Utility/dsp.h **** 
 148:../../DaisySP//Source/Utility/dsp.h **** /** Maps a float between a specified range, using a specified curve. 
 149:../../DaisySP//Source/Utility/dsp.h ****  * 
 150:../../DaisySP//Source/Utility/dsp.h ****  *  \param in a value between 0 to 1 that will be mapped to the new range.
 151:../../DaisySP//Source/Utility/dsp.h ****  *  \param min the new minimum value
 152:../../DaisySP//Source/Utility/dsp.h ****  *  \param max the new maxmimum value
 153:../../DaisySP//Source/Utility/dsp.h ****  *  \param curve a Mapping Value to adjust the response curve of the transformation
 154:../../DaisySP//Source/Utility/dsp.h ****  *               defaults to Linear. @see Mapping
 155:../../DaisySP//Source/Utility/dsp.h ****  * 
 156:../../DaisySP//Source/Utility/dsp.h ****  *  When using the log curve min and max, must be greater than zero.
 157:../../DaisySP//Source/Utility/dsp.h ****  * 
 158:../../DaisySP//Source/Utility/dsp.h ****  *  \retval returns the transformed float within the new range.
 159:../../DaisySP//Source/Utility/dsp.h **** */
 160:../../DaisySP//Source/Utility/dsp.h **** inline float
 161:../../DaisySP//Source/Utility/dsp.h **** fmap(float in, float min, float max, Mapping curve = Mapping::LINEAR)
 162:../../DaisySP//Source/Utility/dsp.h **** {
 163:../../DaisySP//Source/Utility/dsp.h ****     switch(curve)
 164:../../DaisySP//Source/Utility/dsp.h ****     {
 165:../../DaisySP//Source/Utility/dsp.h ****         case Mapping::EXP:
 166:../../DaisySP//Source/Utility/dsp.h ****             return fclamp(min + (in * in) * (max - min), min, max);
 167:../../DaisySP//Source/Utility/dsp.h ****         case Mapping::LOG:
 168:../../DaisySP//Source/Utility/dsp.h ****         {
 169:../../DaisySP//Source/Utility/dsp.h ****             const float a = 1.f / log10f(max / min);
 170:../../DaisySP//Source/Utility/dsp.h ****             return fclamp(min * powf(10, in / a), min, max);
 171:../../DaisySP//Source/Utility/dsp.h ****         }
 172:../../DaisySP//Source/Utility/dsp.h ****         case Mapping::LINEAR:
 173:../../DaisySP//Source/Utility/dsp.h ****         default: return fclamp(min + in * (max - min), min, max);
ARM GAS  /var/folders/hl/qgbwny5j0fd895c2c41bk3tw0000gp/T//ccTphaKR.s 			page 16


 215              		.loc 12 173 31 view .LVU25
 216 0008 B7EE009A 		vmov.f32	s18, #1.0e+0
 217              	.LBE363:
 218              	.LBE362:
  28:plinks.cpp    **** 	float trig, freq, sig_out;
 219              		.loc 11 28 1 view .LVU26
 220 000c 87B0     		sub	sp, sp, #28
 221              		.cfi_def_cfa_offset 88
 222              		.loc 11 32 20 view .LVU27
 223 000e 8A48     		ldr	r0, .L26
 224              	.LVL6:
  28:plinks.cpp    **** 	float trig, freq, sig_out;
 225              		.loc 11 28 1 view .LVU28
 226 0010 0F46     		mov	r7, r1
 227              		.loc 11 32 20 view .LVU29
 228 0012 0321     		movs	r1, #3
 229              	.LVL7:
  28:plinks.cpp    **** 	float trig, freq, sig_out;
 230              		.loc 11 28 1 view .LVU30
 231 0014 1646     		mov	r6, r2
 232 0016 0392     		str	r2, [sp, #12]
 233              		.loc 11 32 20 view .LVU31
 234 0018 FFF7FEFF 		bl	_ZNK5daisy9AdcHandle8GetFloatEh
 235              	.LVL8:
 236              	.LBB380:
 237              	.LBI362:
 161:../../DaisySP//Source/Utility/dsp.h **** {
 238              		.loc 12 161 1 is_stmt 1 view .LVU32
 239              	.LBE380:
 163:../../DaisySP//Source/Utility/dsp.h ****     {
 240              		.loc 12 163 5 view .LVU33
 241              	.LBB381:
 242              	.LBB376:
 172:../../DaisySP//Source/Utility/dsp.h ****         default: return fclamp(min + in * (max - min), min, max);
 243              		.loc 12 172 9 view .LVU34
 244              		.loc 12 173 9 view .LVU35
 245              		.loc 12 173 18 view .LVU36
 246              		.loc 12 173 31 is_stmt 0 view .LVU37
 247 001c F0EE497A 		vmov.f32	s15, s18
 248 0020 DFED866A 		vldr.32	s13, .L26+4
 249              	.LBB364:
 250              	.LBB365:
 251              	.LBB366:
  47:../../DaisySP//Source/Utility/dsp.h **** #else
 252              		.loc 12 47 5 view .LVU38
 253 0024 9FED867A 		vldr.32	s14, .L26+8
 254              	.LBE366:
 255              	.LBE365:
 256              	.LBE364:
 257              	.LBE376:
 258              	.LBE381:
  33:plinks.cpp    **** 	tick.SetFreq(speed);
 259              		.loc 11 33 14 view .LVU39
 260 0028 8648     		ldr	r0, .L26+12
 261              	.LBB382:
 262              	.LBB377:
 263              		.loc 12 173 31 view .LVU40
ARM GAS  /var/folders/hl/qgbwny5j0fd895c2c41bk3tw0000gp/T//ccTphaKR.s 			page 17


 264 002a E0EE267A 		vfma.f32	s15, s0, s13
 265              	.LVL9:
 266              	.LBB373:
 267              	.LBI364:
  56:../../DaisySP//Source/Utility/dsp.h **** {
 268              		.loc 12 56 14 is_stmt 1 view .LVU41
 269              	.LBE373:
 270              	.LBE377:
 271              	.LBE382:
  58:../../DaisySP//Source/Utility/dsp.h **** }
 272              		.loc 12 58 5 view .LVU42
 273              	.LBB383:
 274              	.LBB378:
 275              	.LBB374:
 276              	.LBB368:
 277              	.LBI368:
  32:../../DaisySP//Source/Utility/dsp.h **** {
 278              		.loc 12 32 14 view .LVU43
 279              	.LBB369:
  34:../../DaisySP//Source/Utility/dsp.h **** #ifdef __arm__
 280              		.loc 12 34 5 view .LVU44
  36:../../DaisySP//Source/Utility/dsp.h **** #else
 281              		.loc 12 36 5 view .LVU45
 282              	.LBE369:
 283              	.LBE368:
 284              	.LBE374:
 285              	.LBE378:
 286              	.LBE383:
 287              	.LBB384:
 288              	.LBB385:
  24:../../DaisySP//Source/PhysicalModeling/PolyPluck.h **** {
  25:../../DaisySP//Source/PhysicalModeling/PolyPluck.h ****   public:
  26:../../DaisySP//Source/PhysicalModeling/PolyPluck.h ****     /** Initializes the PolyPluck instance.
  27:../../DaisySP//Source/PhysicalModeling/PolyPluck.h ****         \param sample_rate: rate in Hz that the Process() function will be called.
  28:../../DaisySP//Source/PhysicalModeling/PolyPluck.h ****     */
  29:../../DaisySP//Source/PhysicalModeling/PolyPluck.h ****     void Init(float sample_rate)
  30:../../DaisySP//Source/PhysicalModeling/PolyPluck.h ****     {
  31:../../DaisySP//Source/PhysicalModeling/PolyPluck.h ****         active_voice_ = 0;
  32:../../DaisySP//Source/PhysicalModeling/PolyPluck.h ****         p_damp_       = 0.95f;
  33:../../DaisySP//Source/PhysicalModeling/PolyPluck.h ****         p_decay_      = 0.75f;
  34:../../DaisySP//Source/PhysicalModeling/PolyPluck.h ****         for(size_t i = 0; i < num_voices; i++)
  35:../../DaisySP//Source/PhysicalModeling/PolyPluck.h ****         {
  36:../../DaisySP//Source/PhysicalModeling/PolyPluck.h ****             plk_[i].Init(sample_rate, plkbuff_[i], 256, PLUCK_MODE_RECURSIVE);
  37:../../DaisySP//Source/PhysicalModeling/PolyPluck.h ****             plk_[i].SetDamp(0.85f);
  38:../../DaisySP//Source/PhysicalModeling/PolyPluck.h ****             plk_[i].SetAmp(0.18f);
  39:../../DaisySP//Source/PhysicalModeling/PolyPluck.h ****             plk_[i].SetDecay(0.85f);
  40:../../DaisySP//Source/PhysicalModeling/PolyPluck.h ****         }
  41:../../DaisySP//Source/PhysicalModeling/PolyPluck.h ****         blk_.Init(sample_rate);
  42:../../DaisySP//Source/PhysicalModeling/PolyPluck.h ****     }
  43:../../DaisySP//Source/PhysicalModeling/PolyPluck.h **** 
  44:../../DaisySP//Source/PhysicalModeling/PolyPluck.h ****     /** Process function, synthesizes and sums the output of all voices,
  45:../../DaisySP//Source/PhysicalModeling/PolyPluck.h ****         triggering a new voice with frequency of MIDI note number when trig > 0.
  46:../../DaisySP//Source/PhysicalModeling/PolyPluck.h **** 
  47:../../DaisySP//Source/PhysicalModeling/PolyPluck.h ****         \param trig: value by reference of trig. When trig > 0 a the next voice will be triggered, 
  48:../../DaisySP//Source/PhysicalModeling/PolyPluck.h ****         \param note: MIDI note number for the active_voice.
  49:../../DaisySP//Source/PhysicalModeling/PolyPluck.h ****     */
  50:../../DaisySP//Source/PhysicalModeling/PolyPluck.h ****     float Process(float &trig, float note)
ARM GAS  /var/folders/hl/qgbwny5j0fd895c2c41bk3tw0000gp/T//ccTphaKR.s 			page 18


  51:../../DaisySP//Source/PhysicalModeling/PolyPluck.h ****     {
  52:../../DaisySP//Source/PhysicalModeling/PolyPluck.h ****         float sig, tval;
  53:../../DaisySP//Source/PhysicalModeling/PolyPluck.h ****         sig = 0.0f;
  54:../../DaisySP//Source/PhysicalModeling/PolyPluck.h ****         if(trig > 0.0f)
  55:../../DaisySP//Source/PhysicalModeling/PolyPluck.h ****         {
  56:../../DaisySP//Source/PhysicalModeling/PolyPluck.h ****             // increment active voice
  57:../../DaisySP//Source/PhysicalModeling/PolyPluck.h ****             active_voice_ = (active_voice_ + 1) % num_voices;
  58:../../DaisySP//Source/PhysicalModeling/PolyPluck.h ****             // set new voice to new note
  59:../../DaisySP//Source/PhysicalModeling/PolyPluck.h ****             plk_[active_voice_].SetDamp(p_damp_);
  60:../../DaisySP//Source/PhysicalModeling/PolyPluck.h ****             plk_[active_voice_].SetDecay(p_decay_);
  61:../../DaisySP//Source/PhysicalModeling/PolyPluck.h ****             plk_[active_voice_].SetAmp(0.25f);
  62:../../DaisySP//Source/PhysicalModeling/PolyPluck.h ****         }
  63:../../DaisySP//Source/PhysicalModeling/PolyPluck.h ****         plk_[active_voice_].SetFreq(mtof(note));
  64:../../DaisySP//Source/PhysicalModeling/PolyPluck.h **** 
  65:../../DaisySP//Source/PhysicalModeling/PolyPluck.h ****         for(size_t i = 0; i < num_voices; i++)
  66:../../DaisySP//Source/PhysicalModeling/PolyPluck.h ****         {
  67:../../DaisySP//Source/PhysicalModeling/PolyPluck.h ****             tval = (trig > 0.0f && i == active_voice_) ? 1.0f : 0.0f;
  68:../../DaisySP//Source/PhysicalModeling/PolyPluck.h ****             sig += plk_[i].Process(tval);
  69:../../DaisySP//Source/PhysicalModeling/PolyPluck.h ****         }
  70:../../DaisySP//Source/PhysicalModeling/PolyPluck.h ****         if(trig > 0.0f)
  71:../../DaisySP//Source/PhysicalModeling/PolyPluck.h ****             trig = 0.0f;
  72:../../DaisySP//Source/PhysicalModeling/PolyPluck.h ****         return blk_.Process(sig);
  73:../../DaisySP//Source/PhysicalModeling/PolyPluck.h ****     }
  74:../../DaisySP//Source/PhysicalModeling/PolyPluck.h **** 
  75:../../DaisySP//Source/PhysicalModeling/PolyPluck.h ****     /** Sets the decay coefficients of the pluck voices. 
  76:../../DaisySP//Source/PhysicalModeling/PolyPluck.h ****         \param p expects 0.0-1.0 input.
  77:../../DaisySP//Source/PhysicalModeling/PolyPluck.h ****     */
  78:../../DaisySP//Source/PhysicalModeling/PolyPluck.h ****     void SetDecay(float p) { p_damp_ = p; }
 289              		.loc 9 78 38 is_stmt 0 view .LVU46
 290 002e 864D     		ldr	r5, .L26+16
 291              	.LBE385:
 292              	.LBE384:
 293              	.LBB388:
 294              	.LBB379:
 295              	.LBB375:
 296              	.LBB371:
 297              	.LBB370:
  36:../../DaisySP//Source/Utility/dsp.h **** #else
 298              		.loc 12 36 5 view .LVU47
 299              		.syntax unified
 300              	@ 36 "../../DaisySP//Source/Utility/dsp.h" 1
 301 0030 C7FE897A 		vmaxnm.f32 s15, s15, s18
 302              	@ 0 "" 2
 303              	.LVL10:
  40:../../DaisySP//Source/Utility/dsp.h **** }
 304              		.loc 12 40 5 is_stmt 1 view .LVU48
  40:../../DaisySP//Source/Utility/dsp.h **** }
 305              		.loc 12 40 5 is_stmt 0 view .LVU49
 306              		.thumb
 307              		.syntax unified
 308              	.LBE370:
 309              	.LBE371:
 310              	.LBB372:
 311              	.LBI365:
  43:../../DaisySP//Source/Utility/dsp.h **** {
 312              		.loc 12 43 14 is_stmt 1 view .LVU50
 313              	.LBB367:
ARM GAS  /var/folders/hl/qgbwny5j0fd895c2c41bk3tw0000gp/T//ccTphaKR.s 			page 19


  45:../../DaisySP//Source/Utility/dsp.h **** #ifdef __arm__
 314              		.loc 12 45 5 view .LVU51
  47:../../DaisySP//Source/Utility/dsp.h **** #else
 315              		.loc 12 47 5 view .LVU52
 316              		.syntax unified
 317              	@ 47 "../../DaisySP//Source/Utility/dsp.h" 1
 318 0034 87FEC70A 		vminnm.f32 s0, s15, s14
 319              	@ 0 "" 2
 320              	.LVL11:
  51:../../DaisySP//Source/Utility/dsp.h **** }
 321              		.loc 12 51 5 view .LVU53
  51:../../DaisySP//Source/Utility/dsp.h **** }
 322              		.loc 12 51 5 is_stmt 0 view .LVU54
 323              		.thumb
 324              		.syntax unified
 325              	.LBE367:
 326              	.LBE372:
 327              	.LBE375:
 328              	.LBE379:
 329              	.LBE388:
 330              		.loc 11 33 2 is_stmt 1 view .LVU55
 331              		.loc 11 33 14 is_stmt 0 view .LVU56
 332 0038 FFF7FEFF 		bl	_ZN7daisysp5Metro7SetFreqEf
 333              	.LVL12:
  34:plinks.cpp    **** 
  35:plinks.cpp    **** 	float decay = fmap(hw.adc.GetFloat(pot5), 0.f, 1.f);
 334              		.loc 11 35 2 is_stmt 1 view .LVU57
 335              		.loc 11 35 20 is_stmt 0 view .LVU58
 336 003c 0421     		movs	r1, #4
 337 003e 7E48     		ldr	r0, .L26
 338 0040 FFF7FEFF 		bl	_ZNK5daisy9AdcHandle8GetFloatEh
 339              	.LVL13:
 340              	.LBB389:
 341              	.LBI389:
 161:../../DaisySP//Source/Utility/dsp.h **** {
 342              		.loc 12 161 1 is_stmt 1 view .LVU59
 343              	.LBE389:
 163:../../DaisySP//Source/Utility/dsp.h ****     {
 344              		.loc 12 163 5 view .LVU60
 345              	.LBB403:
 346              	.LBB390:
 172:../../DaisySP//Source/Utility/dsp.h ****         default: return fclamp(min + in * (max - min), min, max);
 347              		.loc 12 172 9 view .LVU61
 348              		.loc 12 173 9 view .LVU62
 349              		.loc 12 173 18 view .LVU63
 350              	.LBB391:
 351              	.LBI391:
  56:../../DaisySP//Source/Utility/dsp.h **** {
 352              		.loc 12 56 14 view .LVU64
 353              	.LBE391:
 354              	.LBE390:
 355              	.LBE403:
  58:../../DaisySP//Source/Utility/dsp.h **** }
 356              		.loc 12 58 5 view .LVU65
 357              	.LBB404:
 358              	.LBB400:
 359              	.LBB398:
ARM GAS  /var/folders/hl/qgbwny5j0fd895c2c41bk3tw0000gp/T//ccTphaKR.s 			page 20


 360              	.LBB392:
 361              	.LBI392:
  32:../../DaisySP//Source/Utility/dsp.h **** {
 362              		.loc 12 32 14 view .LVU66
 363              	.LBB393:
  34:../../DaisySP//Source/Utility/dsp.h **** #ifdef __arm__
 364              		.loc 12 34 5 view .LVU67
  36:../../DaisySP//Source/Utility/dsp.h **** #else
 365              		.loc 12 36 5 view .LVU68
 366              	.LBE393:
 367              	.LBE392:
 368              	.LBE398:
 369              		.loc 12 173 31 is_stmt 0 view .LVU69
 370 0044 DFED818A 		vldr.32	s17, .L26+20
 371              	.LBE400:
 372              	.LBE404:
 373              	.LBB405:
 374              	.LBB386:
 375              		.loc 9 78 38 view .LVU70
 376 0048 05F28C63 		addw	r3, r5, #1676
 377              	.LBE386:
 378              	.LBE405:
  36:plinks.cpp    **** 	pp.SetDecay(decay);
  37:plinks.cpp    **** 	
  38:plinks.cpp    **** 	float feedback = fmap(hw.adc.GetFloat(pot1), 0.f, 1.f);
 379              		.loc 11 38 23 view .LVU71
 380 004c 0021     		movs	r1, #0
 381 004e 7A48     		ldr	r0, .L26
 382              	.LBB406:
 383              	.LBB401:
 384              		.loc 12 173 31 view .LVU72
 385 0050 70EE287A 		vadd.f32	s15, s0, s17
 386              	.LVL14:
 387              		.loc 12 173 31 view .LVU73
 388              	.LBE401:
 389              	.LBE406:
 390              	.LBB407:
 391              	.LBB408:
  42:../../DaisySP//Source/Effects/reverbsc.h ****     /** Initializes the reverb module, and sets the sample_rate at which the Process function will 
  43:../../DaisySP//Source/Effects/reverbsc.h ****         Returns 0 if all good, or 1 if it runs out of delay times exceed maximum allowed.
  44:../../DaisySP//Source/Effects/reverbsc.h ****     */
  45:../../DaisySP//Source/Effects/reverbsc.h ****     int Init(float sample_rate);
  46:../../DaisySP//Source/Effects/reverbsc.h **** 
  47:../../DaisySP//Source/Effects/reverbsc.h ****     /** Process the input through the reverb, and updates values of out1, and out2 with the new pro
  48:../../DaisySP//Source/Effects/reverbsc.h ****     */
  49:../../DaisySP//Source/Effects/reverbsc.h ****     int Process(const float &in1, const float &in2, float *out1, float *out2);
  50:../../DaisySP//Source/Effects/reverbsc.h **** 
  51:../../DaisySP//Source/Effects/reverbsc.h ****     /** controls the reverb time. reverb tail becomes infinite when set to 1.0
  52:../../DaisySP//Source/Effects/reverbsc.h ****         \param fb - sets reverb time. range: 0.0 to 1.0
  53:../../DaisySP//Source/Effects/reverbsc.h ****     */
  54:../../DaisySP//Source/Effects/reverbsc.h ****     inline void SetFeedback(const float &fb) { feedback_ = fb; }
 392              		.loc 6 54 58 view .LVU74
 393 0054 7E4C     		ldr	r4, .L26+24
 394              	.LBE408:
 395              	.LBE407:
 396              	.LBB410:
 397              	.LBB402:
ARM GAS  /var/folders/hl/qgbwny5j0fd895c2c41bk3tw0000gp/T//ccTphaKR.s 			page 21


 398              	.LBB399:
 399              	.LBB395:
 400              	.LBB394:
  36:../../DaisySP//Source/Utility/dsp.h **** #else
 401              		.loc 12 36 5 view .LVU75
 402              		.syntax unified
 403              	@ 36 "../../DaisySP//Source/Utility/dsp.h" 1
 404 0056 C7FEA87A 		vmaxnm.f32 s15, s15, s17
 405              	@ 0 "" 2
 406              	.LVL15:
  40:../../DaisySP//Source/Utility/dsp.h **** }
 407              		.loc 12 40 5 is_stmt 1 view .LVU76
  40:../../DaisySP//Source/Utility/dsp.h **** }
 408              		.loc 12 40 5 is_stmt 0 view .LVU77
 409              		.thumb
 410              		.syntax unified
 411              	.LBE394:
 412              	.LBE395:
 413              	.LBB396:
 414              	.LBI396:
  43:../../DaisySP//Source/Utility/dsp.h **** {
 415              		.loc 12 43 14 is_stmt 1 view .LVU78
 416              	.LBB397:
  45:../../DaisySP//Source/Utility/dsp.h **** #ifdef __arm__
 417              		.loc 12 45 5 view .LVU79
  47:../../DaisySP//Source/Utility/dsp.h **** #else
 418              		.loc 12 47 5 view .LVU80
 419              		.syntax unified
 420              	@ 47 "../../DaisySP//Source/Utility/dsp.h" 1
 421 005a C7FEC97A 		vminnm.f32 s15, s15, s18
 422              	@ 0 "" 2
 423              	.LVL16:
  51:../../DaisySP//Source/Utility/dsp.h **** }
 424              		.loc 12 51 5 view .LVU81
  51:../../DaisySP//Source/Utility/dsp.h **** }
 425              		.loc 12 51 5 is_stmt 0 view .LVU82
 426              		.thumb
 427              		.syntax unified
 428              	.LBE397:
 429              	.LBE396:
 430              	.LBE399:
 431              	.LBE402:
 432              	.LBE410:
  36:plinks.cpp    **** 	
 433              		.loc 11 36 2 is_stmt 1 view .LVU83
 434              	.LBB411:
 435              	.LBI384:
 436              		.loc 9 78 10 view .LVU84
 437              	.LBB387:
 438              		.loc 9 78 38 is_stmt 0 view .LVU85
 439 005e C3ED007A 		vstr.32	s15, [r3]
 440              	.LVL17:
 441              		.loc 9 78 38 view .LVU86
 442              	.LBE387:
 443              	.LBE411:
 444              		.loc 11 38 2 is_stmt 1 view .LVU87
 445              		.loc 11 38 23 is_stmt 0 view .LVU88
ARM GAS  /var/folders/hl/qgbwny5j0fd895c2c41bk3tw0000gp/T//ccTphaKR.s 			page 22


 446 0062 FFF7FEFF 		bl	_ZNK5daisy9AdcHandle8GetFloatEh
 447              	.LVL18:
 448              	.LBB412:
 449              	.LBI412:
 161:../../DaisySP//Source/Utility/dsp.h **** {
 450              		.loc 12 161 1 is_stmt 1 view .LVU89
 451              	.LBE412:
 163:../../DaisySP//Source/Utility/dsp.h ****     {
 452              		.loc 12 163 5 view .LVU90
 453              	.LBB426:
 454              	.LBB413:
 172:../../DaisySP//Source/Utility/dsp.h ****         default: return fclamp(min + in * (max - min), min, max);
 455              		.loc 12 172 9 view .LVU91
 456              		.loc 12 173 9 view .LVU92
 457              		.loc 12 173 18 view .LVU93
 458              	.LBB414:
 459              	.LBI414:
  56:../../DaisySP//Source/Utility/dsp.h **** {
 460              		.loc 12 56 14 view .LVU94
 461              	.LBE414:
 462              	.LBE413:
 463              	.LBE426:
  58:../../DaisySP//Source/Utility/dsp.h **** }
 464              		.loc 12 58 5 view .LVU95
 465              	.LBB427:
 466              	.LBB423:
 467              	.LBB421:
 468              	.LBB415:
 469              	.LBI415:
  32:../../DaisySP//Source/Utility/dsp.h **** {
 470              		.loc 12 32 14 view .LVU96
 471              	.LBB416:
  34:../../DaisySP//Source/Utility/dsp.h **** #ifdef __arm__
 472              		.loc 12 34 5 view .LVU97
  36:../../DaisySP//Source/Utility/dsp.h **** #else
 473              		.loc 12 36 5 view .LVU98
 474              	.LBE416:
 475              	.LBE415:
 476              	.LBE421:
 477              	.LBE423:
 478              	.LBE427:
  39:plinks.cpp    **** 	rv.SetFeedback(feedback);
  40:plinks.cpp    **** 
  41:plinks.cpp    **** 	float lpf = fmap(hw.adc.GetFloat(pot2), 1000.f, 32000.f, Mapping::LOG);
 479              		.loc 11 41 18 is_stmt 0 view .LVU99
 480 0066 0121     		movs	r1, #1
 481 0068 7348     		ldr	r0, .L26
 482              	.LBB428:
 483              	.LBB424:
 484              		.loc 12 173 31 view .LVU100
 485 006a 70EE287A 		vadd.f32	s15, s0, s17
 486              	.LVL19:
 487              		.loc 12 173 31 view .LVU101
 488              	.LBE424:
 489              	.LBE428:
 490              	.LBB429:
 491              	.LBB430:
ARM GAS  /var/folders/hl/qgbwny5j0fd895c2c41bk3tw0000gp/T//ccTphaKR.s 			page 23


 492              	.LBB431:
 170:../../DaisySP//Source/Utility/dsp.h ****         }
 493              		.loc 12 170 37 view .LVU102
 494 006e DFED799A 		vldr.32	s19, .L26+28
 495              	.LBE431:
 496              	.LBE430:
 497              	.LBE429:
 498              	.LBB451:
 499              	.LBB425:
 500              	.LBB422:
 501              	.LBB418:
 502              	.LBB417:
  36:../../DaisySP//Source/Utility/dsp.h **** #else
 503              		.loc 12 36 5 view .LVU103
 504              		.syntax unified
 505              	@ 36 "../../DaisySP//Source/Utility/dsp.h" 1
 506 0072 C7FEA87A 		vmaxnm.f32 s15, s15, s17
 507              	@ 0 "" 2
 508              	.LVL20:
  40:../../DaisySP//Source/Utility/dsp.h **** }
 509              		.loc 12 40 5 is_stmt 1 view .LVU104
  40:../../DaisySP//Source/Utility/dsp.h **** }
 510              		.loc 12 40 5 is_stmt 0 view .LVU105
 511              		.thumb
 512              		.syntax unified
 513              	.LBE417:
 514              	.LBE418:
 515              	.LBB419:
 516              	.LBI419:
  43:../../DaisySP//Source/Utility/dsp.h **** {
 517              		.loc 12 43 14 is_stmt 1 view .LVU106
 518              	.LBB420:
  45:../../DaisySP//Source/Utility/dsp.h **** #ifdef __arm__
 519              		.loc 12 45 5 view .LVU107
  47:../../DaisySP//Source/Utility/dsp.h **** #else
 520              		.loc 12 47 5 view .LVU108
 521              		.syntax unified
 522              	@ 47 "../../DaisySP//Source/Utility/dsp.h" 1
 523 0076 C7FEC97A 		vminnm.f32 s15, s15, s18
 524              	@ 0 "" 2
 525              	.LVL21:
  51:../../DaisySP//Source/Utility/dsp.h **** }
 526              		.loc 12 51 5 view .LVU109
  51:../../DaisySP//Source/Utility/dsp.h **** }
 527              		.loc 12 51 5 is_stmt 0 view .LVU110
 528              		.thumb
 529              		.syntax unified
 530              	.LBE420:
 531              	.LBE419:
 532              	.LBE422:
 533              	.LBE425:
 534              	.LBE451:
  39:plinks.cpp    **** 
 535              		.loc 11 39 2 is_stmt 1 view .LVU111
 536              	.LBB452:
 537              	.LBI407:
 538              		.loc 6 54 17 view .LVU112
ARM GAS  /var/folders/hl/qgbwny5j0fd895c2c41bk3tw0000gp/T//ccTphaKR.s 			page 24


 539              	.LBB409:
 540              		.loc 6 54 48 view .LVU113
 541              		.loc 6 54 58 is_stmt 0 view .LVU114
 542 007a C4ED007A 		vstr.32	s15, [r4]
 543              	.LVL22:
 544              		.loc 6 54 58 view .LVU115
 545              	.LBE409:
 546              	.LBE452:
 547              		.loc 11 41 2 is_stmt 1 view .LVU116
 548              		.loc 11 41 18 is_stmt 0 view .LVU117
 549 007e FFF7FEFF 		bl	_ZNK5daisy9AdcHandle8GetFloatEh
 550              	.LVL23:
 551              		.loc 11 41 18 view .LVU118
 552 0082 F0EE400A 		vmov.f32	s1, s0
 553              	.LVL24:
 554              	.LBB453:
 555              	.LBI429:
 161:../../DaisySP//Source/Utility/dsp.h **** {
 556              		.loc 12 161 1 is_stmt 1 view .LVU119
 557              	.LBE453:
 163:../../DaisySP//Source/Utility/dsp.h ****     {
 558              		.loc 12 163 5 view .LVU120
 559              	.LBB454:
 560              	.LBB447:
 561              	.LBI430:
 161:../../DaisySP//Source/Utility/dsp.h **** {
 562              		.loc 12 161 1 view .LVU121
 161:../../DaisySP//Source/Utility/dsp.h **** {
 563              		.loc 12 161 1 is_stmt 0 view .LVU122
 564              	.LBE447:
 565              	.LBE454:
 167:../../DaisySP//Source/Utility/dsp.h ****         {
 566              		.loc 12 167 9 is_stmt 1 view .LVU123
 168:../../DaisySP//Source/Utility/dsp.h ****             const float a = 1.f / log10f(max / min);
 567              		.loc 12 168 9 view .LVU124
 568              	.LBB455:
 569              	.LBB448:
 570              	.LBB444:
 169:../../DaisySP//Source/Utility/dsp.h ****             return fclamp(min * powf(10, in / a), min, max);
 571              		.loc 12 169 13 view .LVU125
 170:../../DaisySP//Source/Utility/dsp.h ****         }
 572              		.loc 12 170 13 view .LVU126
 170:../../DaisySP//Source/Utility/dsp.h ****         }
 573              		.loc 12 170 26 is_stmt 0 view .LVU127
 574 0086 9FED748A 		vldr.32	s16, .L26+32
 170:../../DaisySP//Source/Utility/dsp.h ****         }
 575              		.loc 12 170 37 view .LVU128
 576 008a B2EE040A 		vmov.f32	s0, #1.0e+1
 577              	.LVL25:
 578              	.LBB432:
 579              	.LBB433:
 580              	.LBB434:
  47:../../DaisySP//Source/Utility/dsp.h **** #else
 581              		.loc 12 47 5 view .LVU129
 582 008e 9FED73AA 		vldr.32	s20, .L26+36
 583              	.LBE434:
 584              	.LBE433:
ARM GAS  /var/folders/hl/qgbwny5j0fd895c2c41bk3tw0000gp/T//ccTphaKR.s 			page 25


 585              	.LBE432:
 170:../../DaisySP//Source/Utility/dsp.h ****         }
 586              		.loc 12 170 37 view .LVU130
 587 0092 C0EEA90A 		vdiv.f32	s1, s1, s19
 588              	.LVL26:
 170:../../DaisySP//Source/Utility/dsp.h ****         }
 589              		.loc 12 170 37 view .LVU131
 590 0096 FFF7FEFF 		bl	powf
 591              	.LVL27:
 592              	.LBB441:
 593              	.LBI432:
  56:../../DaisySP//Source/Utility/dsp.h **** {
 594              		.loc 12 56 14 is_stmt 1 view .LVU132
 595              	.LBE441:
 596              	.LBE444:
 597              	.LBE448:
 598              	.LBE455:
  58:../../DaisySP//Source/Utility/dsp.h **** }
 599              		.loc 12 58 5 view .LVU133
 600              	.LBB456:
 601              	.LBB449:
 602              	.LBB445:
 603              	.LBB442:
 604              	.LBB436:
 605              	.LBI436:
  32:../../DaisySP//Source/Utility/dsp.h **** {
 606              		.loc 12 32 14 view .LVU134
 607              	.LBB437:
  34:../../DaisySP//Source/Utility/dsp.h **** #ifdef __arm__
 608              		.loc 12 34 5 view .LVU135
  36:../../DaisySP//Source/Utility/dsp.h **** #else
 609              		.loc 12 36 5 view .LVU136
 610              	.LBE437:
 611              	.LBE436:
 612              	.LBE442:
 613              	.LBE445:
 614              	.LBE449:
 615              	.LBE456:
  42:plinks.cpp    **** 	rv.SetLpFreq(lpf);
  43:plinks.cpp    **** 
  44:plinks.cpp    **** 	float mlpf = fmap(hw.adc.GetFloat(pot3), 1000.f, 32000.f, Mapping::LOG);
 616              		.loc 11 44 19 is_stmt 0 view .LVU137
 617 009a 0221     		movs	r1, #2
 618 009c 6648     		ldr	r0, .L26
 619              	.LBB457:
 620              	.LBB450:
 621              	.LBB446:
 170:../../DaisySP//Source/Utility/dsp.h ****         }
 622              		.loc 12 170 26 view .LVU138
 623 009e 60EE087A 		vmul.f32	s15, s0, s16
 624              	.LVL28:
 625              	.LBB443:
 626              	.LBB439:
 627              	.LBB438:
  36:../../DaisySP//Source/Utility/dsp.h **** #else
 628              		.loc 12 36 5 view .LVU139
 629              		.syntax unified
ARM GAS  /var/folders/hl/qgbwny5j0fd895c2c41bk3tw0000gp/T//ccTphaKR.s 			page 26


 630              	@ 36 "../../DaisySP//Source/Utility/dsp.h" 1
 631 00a2 C7FE887A 		vmaxnm.f32 s15, s15, s16
 632              	@ 0 "" 2
 633              	.LVL29:
  40:../../DaisySP//Source/Utility/dsp.h **** }
 634              		.loc 12 40 5 is_stmt 1 view .LVU140
  40:../../DaisySP//Source/Utility/dsp.h **** }
 635              		.loc 12 40 5 is_stmt 0 view .LVU141
 636              		.thumb
 637              		.syntax unified
 638              	.LBE438:
 639              	.LBE439:
 640              	.LBB440:
 641              	.LBI433:
  43:../../DaisySP//Source/Utility/dsp.h **** {
 642              		.loc 12 43 14 is_stmt 1 view .LVU142
 643              	.LBB435:
  45:../../DaisySP//Source/Utility/dsp.h **** #ifdef __arm__
 644              		.loc 12 45 5 view .LVU143
  47:../../DaisySP//Source/Utility/dsp.h **** #else
 645              		.loc 12 47 5 view .LVU144
 646              		.syntax unified
 647              	@ 47 "../../DaisySP//Source/Utility/dsp.h" 1
 648 00a6 C7FECA7A 		vminnm.f32 s15, s15, s20
 649              	@ 0 "" 2
 650              	.LVL30:
  51:../../DaisySP//Source/Utility/dsp.h **** }
 651              		.loc 12 51 5 view .LVU145
  51:../../DaisySP//Source/Utility/dsp.h **** }
 652              		.loc 12 51 5 is_stmt 0 view .LVU146
 653              		.thumb
 654              		.syntax unified
 655              	.LBE435:
 656              	.LBE440:
 657              	.LBE443:
 658              	.LBE446:
 659              	.LBE450:
 660              	.LBE457:
  42:plinks.cpp    **** 
 661              		.loc 11 42 2 is_stmt 1 view .LVU147
 662              	.LBB458:
 663              	.LBI458:
  55:../../DaisySP//Source/Effects/reverbsc.h ****     /** controls the internal dampening filter's cutoff frequency.
  56:../../DaisySP//Source/Effects/reverbsc.h ****         \param freq - low pass frequency. range: 0.0 to sample_rate / 2
  57:../../DaisySP//Source/Effects/reverbsc.h ****     */
  58:../../DaisySP//Source/Effects/reverbsc.h ****     inline void SetLpFreq(const float &freq) { lpfreq_ = freq; }
 664              		.loc 6 58 17 view .LVU148
 665              	.LBB459:
 666              		.loc 6 58 48 view .LVU149
 667              		.loc 6 58 56 is_stmt 0 view .LVU150
 668 00aa C4ED017A 		vstr.32	s15, [r4, #4]
 669              	.LVL31:
 670              		.loc 6 58 56 view .LVU151
 671              	.LBE459:
 672              	.LBE458:
 673              		.loc 11 44 2 is_stmt 1 view .LVU152
 674              		.loc 11 44 19 is_stmt 0 view .LVU153
ARM GAS  /var/folders/hl/qgbwny5j0fd895c2c41bk3tw0000gp/T//ccTphaKR.s 			page 27


 675 00ae FFF7FEFF 		bl	_ZNK5daisy9AdcHandle8GetFloatEh
 676              	.LVL32:
 677              		.loc 11 44 19 view .LVU154
 678 00b2 F0EE400A 		vmov.f32	s1, s0
 679              	.LVL33:
 680              	.LBB460:
 681              	.LBI460:
 161:../../DaisySP//Source/Utility/dsp.h **** {
 682              		.loc 12 161 1 is_stmt 1 view .LVU155
 683              	.LBE460:
 163:../../DaisySP//Source/Utility/dsp.h ****     {
 684              		.loc 12 163 5 view .LVU156
 685              	.LBB477:
 686              	.LBB461:
 687              	.LBI461:
 161:../../DaisySP//Source/Utility/dsp.h **** {
 688              		.loc 12 161 1 view .LVU157
 161:../../DaisySP//Source/Utility/dsp.h **** {
 689              		.loc 12 161 1 is_stmt 0 view .LVU158
 690              	.LBE461:
 691              	.LBE477:
 167:../../DaisySP//Source/Utility/dsp.h ****         {
 692              		.loc 12 167 9 is_stmt 1 view .LVU159
 168:../../DaisySP//Source/Utility/dsp.h ****             const float a = 1.f / log10f(max / min);
 693              		.loc 12 168 9 view .LVU160
 694              	.LBB478:
 695              	.LBB474:
 696              	.LBB462:
 169:../../DaisySP//Source/Utility/dsp.h ****             return fclamp(min * powf(10, in / a), min, max);
 697              		.loc 12 169 13 view .LVU161
 170:../../DaisySP//Source/Utility/dsp.h ****         }
 698              		.loc 12 170 13 view .LVU162
 170:../../DaisySP//Source/Utility/dsp.h ****         }
 699              		.loc 12 170 37 is_stmt 0 view .LVU163
 700 00b6 B2EE040A 		vmov.f32	s0, #1.0e+1
 701              	.LVL34:
 170:../../DaisySP//Source/Utility/dsp.h ****         }
 702              		.loc 12 170 37 view .LVU164
 703 00ba C0EEA90A 		vdiv.f32	s1, s1, s19
 704              	.LVL35:
 170:../../DaisySP//Source/Utility/dsp.h ****         }
 705              		.loc 12 170 37 view .LVU165
 706 00be FFF7FEFF 		bl	powf
 707              	.LVL36:
 708              	.LBB463:
 709              	.LBI463:
  56:../../DaisySP//Source/Utility/dsp.h **** {
 710              		.loc 12 56 14 is_stmt 1 view .LVU166
 711              	.LBE463:
 712              	.LBE462:
 713              	.LBE474:
 714              	.LBE478:
  58:../../DaisySP//Source/Utility/dsp.h **** }
 715              		.loc 12 58 5 view .LVU167
 716              	.LBB479:
 717              	.LBB475:
 718              	.LBB472:
ARM GAS  /var/folders/hl/qgbwny5j0fd895c2c41bk3tw0000gp/T//ccTphaKR.s 			page 28


 719              	.LBB470:
 720              	.LBB464:
 721              	.LBI464:
  32:../../DaisySP//Source/Utility/dsp.h **** {
 722              		.loc 12 32 14 view .LVU168
 723              	.LBB465:
  34:../../DaisySP//Source/Utility/dsp.h **** #ifdef __arm__
 724              		.loc 12 34 5 view .LVU169
  36:../../DaisySP//Source/Utility/dsp.h **** #else
 725              		.loc 12 36 5 view .LVU170
 726              	.LBE465:
 727              	.LBE464:
 728              	.LBE470:
 729              	.LBE472:
 730              	.LBE475:
 731              	.LBE479:
 732              	.LBB480:
 733              	.LBB481:
  22:../../DaisySP//Source/Filters/moogladder.h ****     /** Initializes the MoogLadder module.
  23:../../DaisySP//Source/Filters/moogladder.h ****         sample_rate - The sample rate of the audio engine being run. 
  24:../../DaisySP//Source/Filters/moogladder.h ****     */
  25:../../DaisySP//Source/Filters/moogladder.h ****     void Init(float sample_rate);
  26:../../DaisySP//Source/Filters/moogladder.h **** 
  27:../../DaisySP//Source/Filters/moogladder.h **** 
  28:../../DaisySP//Source/Filters/moogladder.h ****     /** Processes the lowpass filter
  29:../../DaisySP//Source/Filters/moogladder.h ****     */
  30:../../DaisySP//Source/Filters/moogladder.h ****     float Process(float in);
  31:../../DaisySP//Source/Filters/moogladder.h **** 
  32:../../DaisySP//Source/Filters/moogladder.h ****     /** 
  33:../../DaisySP//Source/Filters/moogladder.h ****         Sets the cutoff frequency or half-way point of the filter.
  34:../../DaisySP//Source/Filters/moogladder.h ****         Arguments
  35:../../DaisySP//Source/Filters/moogladder.h ****         - freq - frequency value in Hz. Range: Any positive value.
  36:../../DaisySP//Source/Filters/moogladder.h ****     */
  37:../../DaisySP//Source/Filters/moogladder.h ****     inline void SetFreq(float freq) { freq_ = freq; }
 734              		.loc 7 37 45 is_stmt 0 view .LVU171
 735 00c2 674B     		ldr	r3, .L26+40
 736              	.LBE481:
 737              	.LBE480:
 738              	.LBB483:
 739              	.LBB476:
 740              	.LBB473:
 170:../../DaisySP//Source/Utility/dsp.h ****         }
 741              		.loc 12 170 26 view .LVU172
 742 00c4 60EE087A 		vmul.f32	s15, s0, s16
 743              	.LVL37:
 744              	.LBB471:
 745              	.LBB467:
 746              	.LBB466:
  36:../../DaisySP//Source/Utility/dsp.h **** #else
 747              		.loc 12 36 5 view .LVU173
 748              		.syntax unified
 749              	@ 36 "../../DaisySP//Source/Utility/dsp.h" 1
 750 00c8 C7FE887A 		vmaxnm.f32 s15, s15, s16
 751              	@ 0 "" 2
 752              	.LVL38:
  40:../../DaisySP//Source/Utility/dsp.h **** }
 753              		.loc 12 40 5 is_stmt 1 view .LVU174
ARM GAS  /var/folders/hl/qgbwny5j0fd895c2c41bk3tw0000gp/T//ccTphaKR.s 			page 29


  40:../../DaisySP//Source/Utility/dsp.h **** }
 754              		.loc 12 40 5 is_stmt 0 view .LVU175
 755              		.thumb
 756              		.syntax unified
 757              	.LBE466:
 758              	.LBE467:
 759              	.LBB468:
 760              	.LBI468:
  43:../../DaisySP//Source/Utility/dsp.h **** {
 761              		.loc 12 43 14 is_stmt 1 view .LVU176
 762              	.LBB469:
  45:../../DaisySP//Source/Utility/dsp.h **** #ifdef __arm__
 763              		.loc 12 45 5 view .LVU177
  47:../../DaisySP//Source/Utility/dsp.h **** #else
 764              		.loc 12 47 5 view .LVU178
 765              		.syntax unified
 766              	@ 47 "../../DaisySP//Source/Utility/dsp.h" 1
 767 00cc C7FECA7A 		vminnm.f32 s15, s15, s20
 768              	@ 0 "" 2
 769              	.LVL39:
  51:../../DaisySP//Source/Utility/dsp.h **** }
 770              		.loc 12 51 5 view .LVU179
  51:../../DaisySP//Source/Utility/dsp.h **** }
 771              		.loc 12 51 5 is_stmt 0 view .LVU180
 772              		.thumb
 773              		.syntax unified
 774              	.LBE469:
 775              	.LBE468:
 776              	.LBE471:
 777              	.LBE473:
 778              	.LBE476:
 779              	.LBE483:
  45:plinks.cpp    **** 	ladder.SetFreq(mlpf);
 780              		.loc 11 45 2 is_stmt 1 view .LVU181
 781              	.LBB484:
 782              	.LBI480:
 783              		.loc 7 37 17 view .LVU182
 784              	.LBB482:
 785              		.loc 7 37 39 view .LVU183
 786              		.loc 7 37 45 is_stmt 0 view .LVU184
 787 00d0 C3ED027A 		vstr.32	s15, [r3, #8]
 788              	.LVL40:
 789              		.loc 7 37 45 view .LVU185
 790              	.LBE482:
 791              	.LBE484:
  46:plinks.cpp    **** 
  47:plinks.cpp    **** 	for (size_t i = 0; i < size; i++)
 792              		.loc 11 47 2 is_stmt 1 view .LVU186
 793              	.LBB485:
 794              		.loc 11 47 23 view .LVU187
 795 00d4 002E     		cmp	r6, #0
 796 00d6 00F09C80 		beq	.L7
 797              		.loc 11 47 14 is_stmt 0 view .LVU188
 798 00da 0026     		movs	r6, #0
 799              	.LVL41:
 800              		.loc 11 47 14 view .LVU189
 801 00dc DFF89891 		ldr	r9, .L26+64
ARM GAS  /var/folders/hl/qgbwny5j0fd895c2c41bk3tw0000gp/T//ccTphaKR.s 			page 30


 802 00e0 A5F50048 		sub	r8, r5, #32768
 803              	.LVL42:
 804              	.L8:
  48:plinks.cpp    **** 	{
  49:plinks.cpp    **** 		if(tick.Process()){
 805              		.loc 11 49 3 is_stmt 1 view .LVU190
 806              		.loc 11 49 18 is_stmt 0 view .LVU191
 807 00e4 5748     		ldr	r0, .L26+12
 808 00e6 FFF7FEFF 		bl	_ZN7daisysp5Metro7ProcessEv
 809              	.LVL43:
  50:plinks.cpp    ****             arp_idx = (arp_idx + 1) % 3; // advance the kArpeggio, wrapping at the end.
 810              		.loc 11 50 24 view .LVU192
 811 00ea 99F80030 		ldrb	r3, [r9]	@ zero_extendqisi2
  49:plinks.cpp    ****             arp_idx = (arp_idx + 1) % 3; // advance the kArpeggio, wrapping at the end.
 812              		.loc 11 49 3 view .LVU193
 813 00ee 0028     		cmp	r0, #0
 814 00f0 00F09480 		beq	.L9
 815              		.loc 11 50 13 is_stmt 1 view .LVU194
 816              		.loc 11 50 32 is_stmt 0 view .LVU195
 817 00f4 0133     		adds	r3, r3, #1
 818              		.loc 11 50 37 view .LVU196
 819 00f6 5B4A     		ldr	r2, .L26+44
  51:plinks.cpp    **** 			trig = 1.f;
 820              		.loc 11 51 9 view .LVU197
 821 00f8 F7EE008A 		vmov.f32	s17, #1.0e+0
 822              	.LVL44:
  50:plinks.cpp    ****             arp_idx = (arp_idx + 1) % 3; // advance the kArpeggio, wrapping at the end.
 823              		.loc 11 50 37 view .LVU198
 824 00fc A2FB0312 		umull	r1, r2, r2, r3
 825 0100 02F4FF71 		and	r1, r2, #510
 826 0104 01EB5202 		add	r2, r1, r2, lsr #1
 827 0108 9B1A     		subs	r3, r3, r2
  52:plinks.cpp    **** 		}
  53:plinks.cpp    **** 
  54:plinks.cpp    **** 		freq    =  kArpeggio[arp_idx]; // convert midi nn to frequency.
 828              		.loc 11 54 11 view .LVU199
 829 010a 574A     		ldr	r2, .L26+48
 830 010c 02EB8302 		add	r2, r2, r3, lsl #2
  50:plinks.cpp    **** 			trig = 1.f;
 831              		.loc 11 50 21 view .LVU200
 832 0110 89F80030 		strb	r3, [r9]
  51:plinks.cpp    **** 			trig = 1.f;
 833              		.loc 11 51 4 is_stmt 1 view .LVU201
 834              	.LVL45:
 835              		.loc 11 54 3 view .LVU202
 836              		.loc 11 54 11 is_stmt 0 view .LVU203
 837 0114 D2ED007A 		vldr.32	s15, [r2]
 838              	.LVL46:
  55:plinks.cpp    **** 
  56:plinks.cpp    **** 		sig_out = pp.Process(trig, freq);
 839              		.loc 11 56 3 is_stmt 1 view .LVU204
 840              	.LBB486:
 841              	.LBI486:
  50:../../DaisySP//Source/PhysicalModeling/PolyPluck.h ****     {
 842              		.loc 9 50 11 view .LVU205
 843              	.L10:
 844              	.LBB487:
ARM GAS  /var/folders/hl/qgbwny5j0fd895c2c41bk3tw0000gp/T//ccTphaKR.s 			page 31


  57:../../DaisySP//Source/PhysicalModeling/PolyPluck.h ****             // set new voice to new note
 845              		.loc 9 57 44 is_stmt 0 view .LVU206
 846 0118 D5F89436 		ldr	r3, [r5, #1684]
 847              	.LBB488:
 848              	.LBB489:
 849              		.file 13 "../../DaisySP//Source/PhysicalModeling/pluck.h"
   1:../../DaisySP//Source/PhysicalModeling/pluck.h **** 
   2:../../DaisySP//Source/PhysicalModeling/pluck.h **** #pragma once
   3:../../DaisySP//Source/PhysicalModeling/pluck.h **** #ifndef DSY_PLUCK_H
   4:../../DaisySP//Source/PhysicalModeling/pluck.h **** #define DSY_PLUCK_H
   5:../../DaisySP//Source/PhysicalModeling/pluck.h **** 
   6:../../DaisySP//Source/PhysicalModeling/pluck.h **** #include <stdint.h>
   7:../../DaisySP//Source/PhysicalModeling/pluck.h **** #ifdef __cplusplus
   8:../../DaisySP//Source/PhysicalModeling/pluck.h **** 
   9:../../DaisySP//Source/PhysicalModeling/pluck.h **** namespace daisysp
  10:../../DaisySP//Source/PhysicalModeling/pluck.h **** {
  11:../../DaisySP//Source/PhysicalModeling/pluck.h **** /** The method of natural decay that the algorithm will use.
  12:../../DaisySP//Source/PhysicalModeling/pluck.h ****     - RECURSIVE: 1st order recursive filter, with coefs .5.
  13:../../DaisySP//Source/PhysicalModeling/pluck.h ****     - WEIGHTED_AVERAGE: weighted averaging. 
  14:../../DaisySP//Source/PhysicalModeling/pluck.h ****     */
  15:../../DaisySP//Source/PhysicalModeling/pluck.h **** enum
  16:../../DaisySP//Source/PhysicalModeling/pluck.h **** {
  17:../../DaisySP//Source/PhysicalModeling/pluck.h ****     PLUCK_MODE_RECURSIVE,
  18:../../DaisySP//Source/PhysicalModeling/pluck.h ****     PLUCK_MODE_WEIGHTED_AVERAGE,
  19:../../DaisySP//Source/PhysicalModeling/pluck.h ****     PLUCK_LAST,
  20:../../DaisySP//Source/PhysicalModeling/pluck.h **** };
  21:../../DaisySP//Source/PhysicalModeling/pluck.h **** 
  22:../../DaisySP//Source/PhysicalModeling/pluck.h **** /** Produces a naturally decaying plucked string or drum sound based on the Karplus-Strong algorith
  23:../../DaisySP//Source/PhysicalModeling/pluck.h **** 
  24:../../DaisySP//Source/PhysicalModeling/pluck.h ****     Ported from soundpipe to DaisySP
  25:../../DaisySP//Source/PhysicalModeling/pluck.h ****     
  26:../../DaisySP//Source/PhysicalModeling/pluck.h ****     This code was originally extracted from the Csound opcode "pluck"
  27:../../DaisySP//Source/PhysicalModeling/pluck.h **** 
  28:../../DaisySP//Source/PhysicalModeling/pluck.h ****     Original Author(s): Barry Vercoe, John ffitch
  29:../../DaisySP//Source/PhysicalModeling/pluck.h ****     Year: 1991
  30:../../DaisySP//Source/PhysicalModeling/pluck.h **** 
  31:../../DaisySP//Source/PhysicalModeling/pluck.h ****     Location: OOps/ugens4.c
  32:../../DaisySP//Source/PhysicalModeling/pluck.h ****     */
  33:../../DaisySP//Source/PhysicalModeling/pluck.h **** class Pluck
  34:../../DaisySP//Source/PhysicalModeling/pluck.h **** {
  35:../../DaisySP//Source/PhysicalModeling/pluck.h ****   public:
  36:../../DaisySP//Source/PhysicalModeling/pluck.h ****     Pluck() {}
  37:../../DaisySP//Source/PhysicalModeling/pluck.h ****     ~Pluck() {}
  38:../../DaisySP//Source/PhysicalModeling/pluck.h ****     /** Initializes the Pluck module.
  39:../../DaisySP//Source/PhysicalModeling/pluck.h **** 
  40:../../DaisySP//Source/PhysicalModeling/pluck.h ****             \param sample_rate: Sample rate of the audio engine being run.
  41:../../DaisySP//Source/PhysicalModeling/pluck.h ****             \param buf: buffer used as an impulse when triggering the Pluck algorithm
  42:../../DaisySP//Source/PhysicalModeling/pluck.h ****             \param npt: number of elementes in buf.
  43:../../DaisySP//Source/PhysicalModeling/pluck.h ****             \param mode: Sets the mode of the algorithm.
  44:../../DaisySP//Source/PhysicalModeling/pluck.h ****     */
  45:../../DaisySP//Source/PhysicalModeling/pluck.h ****     void Init(float sample_rate, float *buf, int32_t npt, int32_t mode);
  46:../../DaisySP//Source/PhysicalModeling/pluck.h **** 
  47:../../DaisySP//Source/PhysicalModeling/pluck.h **** 
  48:../../DaisySP//Source/PhysicalModeling/pluck.h ****     /** Processes the waveform to be generated, returning one sample. This should be called once pe
  49:../../DaisySP//Source/PhysicalModeling/pluck.h ****     */
  50:../../DaisySP//Source/PhysicalModeling/pluck.h ****     float Process(float &trig);
  51:../../DaisySP//Source/PhysicalModeling/pluck.h **** 
ARM GAS  /var/folders/hl/qgbwny5j0fd895c2c41bk3tw0000gp/T//ccTphaKR.s 			page 32


  52:../../DaisySP//Source/PhysicalModeling/pluck.h ****     /** 
  53:../../DaisySP//Source/PhysicalModeling/pluck.h ****         Sets the amplitude of the output signal.
  54:../../DaisySP//Source/PhysicalModeling/pluck.h ****         Input range: 0-1?
  55:../../DaisySP//Source/PhysicalModeling/pluck.h ****     */
  56:../../DaisySP//Source/PhysicalModeling/pluck.h ****     inline void SetAmp(float amp) { amp_ = amp; }
  57:../../DaisySP//Source/PhysicalModeling/pluck.h ****     /** Sets the frequency of the output signal in Hz.
  58:../../DaisySP//Source/PhysicalModeling/pluck.h ****         Input range: Any positive value
  59:../../DaisySP//Source/PhysicalModeling/pluck.h ****     */
  60:../../DaisySP//Source/PhysicalModeling/pluck.h ****     inline void SetFreq(float freq) { freq_ = freq; }
  61:../../DaisySP//Source/PhysicalModeling/pluck.h ****     /** Sets the time it takes for a triggered note to end in seconds.
  62:../../DaisySP//Source/PhysicalModeling/pluck.h ****         Input range: 0-1
  63:../../DaisySP//Source/PhysicalModeling/pluck.h ****     */
  64:../../DaisySP//Source/PhysicalModeling/pluck.h ****     inline void SetDecay(float decay) { decay_ = decay; }
  65:../../DaisySP//Source/PhysicalModeling/pluck.h ****     /** Sets the dampening factor applied by the filter (based on PLUCK_MODE)
  66:../../DaisySP//Source/PhysicalModeling/pluck.h ****         Input range: 0-1
  67:../../DaisySP//Source/PhysicalModeling/pluck.h ****     */
  68:../../DaisySP//Source/PhysicalModeling/pluck.h ****     inline void SetDamp(float damp) { damp_ = damp; }
 850              		.loc 13 68 45 view .LVU207
 851 011c 3422     		movs	r2, #52
 852              	.LBE489:
 853              	.LBE488:
  59:../../DaisySP//Source/PhysicalModeling/PolyPluck.h ****             plk_[active_voice_].SetDecay(p_decay_);
 854              		.loc 9 59 40 view .LVU208
 855 011e 05F28C61 		addw	r1, r5, #1676
  57:../../DaisySP//Source/PhysicalModeling/PolyPluck.h ****             // set new voice to new note
 856              		.loc 9 57 44 view .LVU209
 857 0122 0133     		adds	r3, r3, #1
 858              	.LBB493:
 859              	.LBB490:
 860              		.loc 13 68 45 view .LVU210
 861 0124 0968     		ldr	r1, [r1]	@ float
 862              	.LBE490:
 863              	.LBE493:
  57:../../DaisySP//Source/PhysicalModeling/PolyPluck.h ****             // set new voice to new note
 864              		.loc 9 57 49 view .LVU211
 865 0126 03F01F0B 		and	fp, r3, #31
 866              	.LBB494:
 867              	.LBB491:
 868              		.loc 13 68 45 view .LVU212
 869 012a 02FB0B82 		mla	r2, r2, fp, r8
 870              	.LBE491:
 871              	.LBE494:
  57:../../DaisySP//Source/PhysicalModeling/PolyPluck.h ****             // set new voice to new note
 872              		.loc 9 57 27 view .LVU213
 873 012e C5F894B6 		str	fp, [r5, #1684]
 874              	.LVL47:
 875              	.LBB495:
 876              	.LBI488:
 877              		.loc 13 68 17 is_stmt 1 view .LVU214
 878              	.LBB492:
 879              		.loc 13 68 39 view .LVU215
 880              		.loc 13 68 45 is_stmt 0 view .LVU216
 881 0132 9161     		str	r1, [r2, #24]	@ float
 882              	.LVL48:
 883              		.loc 13 68 45 view .LVU217
 884              	.LBE492:
 885              	.LBE495:
ARM GAS  /var/folders/hl/qgbwny5j0fd895c2c41bk3tw0000gp/T//ccTphaKR.s 			page 33


 886              	.LBB496:
 887              	.LBI496:
  64:../../DaisySP//Source/PhysicalModeling/pluck.h ****     /** Sets the dampening factor applied by the filter (based on PLUCK_MODE)
 888              		.loc 13 64 17 is_stmt 1 view .LVU218
 889              	.LBB497:
  64:../../DaisySP//Source/PhysicalModeling/pluck.h ****     /** Sets the dampening factor applied by the filter (based on PLUCK_MODE)
 890              		.loc 13 64 41 view .LVU219
 891              	.LBE497:
 892              	.LBE496:
  60:../../DaisySP//Source/PhysicalModeling/PolyPluck.h ****             plk_[active_voice_].SetAmp(0.25f);
 893              		.loc 9 60 41 is_stmt 0 view .LVU220
 894 0134 05F5D261 		add	r1, r5, #1680
 895              	.LBB499:
 896              	.LBB498:
  64:../../DaisySP//Source/PhysicalModeling/pluck.h ****     /** Sets the dampening factor applied by the filter (based on PLUCK_MODE)
 897              		.loc 13 64 48 view .LVU221
 898 0138 0968     		ldr	r1, [r1]	@ float
 899 013a 5161     		str	r1, [r2, #20]	@ float
 900              	.LVL49:
  64:../../DaisySP//Source/PhysicalModeling/pluck.h ****     /** Sets the dampening factor applied by the filter (based on PLUCK_MODE)
 901              		.loc 13 64 48 view .LVU222
 902              	.LBE498:
 903              	.LBE499:
 904              	.LBB500:
 905              	.LBI500:
  56:../../DaisySP//Source/PhysicalModeling/pluck.h ****     /** Sets the frequency of the output signal in Hz.
 906              		.loc 13 56 17 is_stmt 1 view .LVU223
 907              	.LBB501:
  56:../../DaisySP//Source/PhysicalModeling/pluck.h ****     /** Sets the frequency of the output signal in Hz.
 908              		.loc 13 56 37 view .LVU224
  56:../../DaisySP//Source/PhysicalModeling/pluck.h ****     /** Sets the frequency of the output signal in Hz.
 909              		.loc 13 56 42 is_stmt 0 view .LVU225
 910 013c 4FF07A51 		mov	r1, #1048576000
 911 0140 D160     		str	r1, [r2, #12]	@ float
 912              	.LVL50:
 913              	.L11:
  56:../../DaisySP//Source/PhysicalModeling/pluck.h ****     /** Sets the frequency of the output signal in Hz.
 914              		.loc 13 56 42 view .LVU226
 915              	.LBE501:
 916              	.LBE500:
 917              	.LBB502:
 918              	.LBI502:
 123:../../DaisySP//Source/Utility/dsp.h **** {
 919              		.loc 12 123 14 is_stmt 1 view .LVU227
 920              	.LBB503:
 125:../../DaisySP//Source/Utility/dsp.h **** }
 921              		.loc 12 125 5 view .LVU228
 125:../../DaisySP//Source/Utility/dsp.h **** }
 922              		.loc 12 125 23 is_stmt 0 view .LVU229
 923 0142 9FED4A7A 		vldr.32	s14, .L26+52
 125:../../DaisySP//Source/Utility/dsp.h **** }
 924              		.loc 12 125 16 view .LVU230
 925 0146 F2EE080A 		vmov.f32	s1, #1.2e+1
 926 014a B0EE000A 		vmov.f32	s0, #2.0e+0
 927 014e DFF82CA1 		ldr	r10, .L26+68
 125:../../DaisySP//Source/Utility/dsp.h **** }
 928              		.loc 12 125 23 view .LVU231
ARM GAS  /var/folders/hl/qgbwny5j0fd895c2c41bk3tw0000gp/T//ccTphaKR.s 			page 34


 929 0152 77EEC77A 		vsub.f32	s15, s15, s14
 930              	.LVL51:
 125:../../DaisySP//Source/Utility/dsp.h **** }
 931              		.loc 12 125 23 view .LVU232
 932              	.LBE503:
 933              	.LBE502:
  53:../../DaisySP//Source/PhysicalModeling/PolyPluck.h ****         if(trig > 0.0f)
 934              		.loc 9 53 13 view .LVU233
 935 0156 9FED3D8A 		vldr.32	s16, .L26+20
 936              	.LBB507:
  65:../../DaisySP//Source/PhysicalModeling/PolyPluck.h ****         {
 937              		.loc 9 65 20 view .LVU234
 938 015a 0024     		movs	r4, #0
 939              	.LBE507:
 940              	.LBB508:
 941              	.LBB504:
 125:../../DaisySP//Source/Utility/dsp.h **** }
 942              		.loc 12 125 16 view .LVU235
 943 015c C7EEA00A 		vdiv.f32	s1, s15, s1
 944 0160 FFF7FEFF 		bl	powf
 945              	.LVL52:
 125:../../DaisySP//Source/Utility/dsp.h **** }
 946              		.loc 12 125 16 view .LVU236
 947              	.LBE504:
 948              	.LBE508:
 949              	.LBB509:
 950              	.LBI509:
  60:../../DaisySP//Source/PhysicalModeling/pluck.h ****     /** Sets the time it takes for a triggered note to end in seconds.
 951              		.loc 13 60 17 is_stmt 1 view .LVU237
 952              	.LBB510:
  60:../../DaisySP//Source/PhysicalModeling/pluck.h ****     /** Sets the time it takes for a triggered note to end in seconds.
 953              		.loc 13 60 39 view .LVU238
 954              	.LBE510:
 955              	.LBE509:
 956              	.LBB513:
 957              	.LBB505:
 125:../../DaisySP//Source/Utility/dsp.h **** }
 958              		.loc 12 125 43 is_stmt 0 view .LVU239
 959 0164 DFED427A 		vldr.32	s15, .L26+56
 960              	.LBE505:
 961              	.LBE513:
 962              	.LBB514:
 963              	.LBB511:
  60:../../DaisySP//Source/PhysicalModeling/pluck.h ****     /** Sets the time it takes for a triggered note to end in seconds.
 964              		.loc 13 60 45 view .LVU240
 965 0168 3422     		movs	r2, #52
 966 016a 02FB0B83 		mla	r3, r2, fp, r8
 967              	.LBE511:
 968              	.LBE514:
 969              	.LBB515:
 970              	.LBB506:
 125:../../DaisySP//Source/Utility/dsp.h **** }
 971              		.loc 12 125 43 view .LVU241
 972 016e 20EE270A 		vmul.f32	s0, s0, s15
 973              	.LVL53:
 125:../../DaisySP//Source/Utility/dsp.h **** }
 974              		.loc 12 125 43 view .LVU242
ARM GAS  /var/folders/hl/qgbwny5j0fd895c2c41bk3tw0000gp/T//ccTphaKR.s 			page 35


 975              	.LBE506:
 976              	.LBE515:
 977              	.LBB516:
 978              	.LBB512:
  60:../../DaisySP//Source/PhysicalModeling/pluck.h ****     /** Sets the time it takes for a triggered note to end in seconds.
 979              		.loc 13 60 45 view .LVU243
 980 0172 83ED040A 		vstr.32	s0, [r3, #16]
 981              	.LVL54:
  60:../../DaisySP//Source/PhysicalModeling/pluck.h ****     /** Sets the time it takes for a triggered note to end in seconds.
 982              		.loc 13 60 45 view .LVU244
 983              	.LBE512:
 984              	.LBE516:
 985              	.LBB517:
  65:../../DaisySP//Source/PhysicalModeling/PolyPluck.h ****         {
 986              		.loc 9 65 29 is_stmt 1 view .LVU245
 987              	.L14:
  67:../../DaisySP//Source/PhysicalModeling/PolyPluck.h ****             sig += plk_[i].Process(tval);
 988              		.loc 9 67 56 is_stmt 0 view .LVU246
 989 0176 F5EEC08A 		vcmpe.f32	s17, #0
 990 017a 9FED347A 		vldr.32	s14, .L26+20
 991 017e F7EE006A 		vmov.f32	s13, #1.0e+0
 992 0182 F0EE477A 		vmov.f32	s15, s14
 993 0186 F1EE10FA 		vmrs	APSR_nzcv, FPSCR
 994 018a 04DD     		ble	.L12
  67:../../DaisySP//Source/PhysicalModeling/PolyPluck.h ****             sig += plk_[i].Process(tval);
 995              		.loc 9 67 33 view .LVU247
 996 018c D5F89436 		ldr	r3, [r5, #1684]
  67:../../DaisySP//Source/PhysicalModeling/PolyPluck.h ****             sig += plk_[i].Process(tval);
 997              		.loc 9 67 56 view .LVU248
 998 0190 A342     		cmp	r3, r4
 999 0192 46FE877A 		vseleq.f32	s15, s13, s14
 1000              	.L12:
  65:../../DaisySP//Source/PhysicalModeling/PolyPluck.h ****         {
 1001              		.loc 9 65 9 view .LVU249
 1002 0196 0134     		adds	r4, r4, #1
 1003              	.LVL55:
  68:../../DaisySP//Source/PhysicalModeling/PolyPluck.h ****         }
 1004              		.loc 9 68 35 view .LVU250
 1005 0198 5046     		mov	r0, r10
 1006 019a 05A9     		add	r1, sp, #20
  67:../../DaisySP//Source/PhysicalModeling/PolyPluck.h ****             sig += plk_[i].Process(tval);
 1007              		.loc 9 67 18 view .LVU251
 1008 019c CDED057A 		vstr.32	s15, [sp, #20]
  68:../../DaisySP//Source/PhysicalModeling/PolyPluck.h ****         }
 1009              		.loc 9 68 35 view .LVU252
 1010 01a0 FFF7FEFF 		bl	_ZN7daisysp5Pluck7ProcessERf
 1011              	.LVL56:
  65:../../DaisySP//Source/PhysicalModeling/PolyPluck.h ****         {
 1012              		.loc 9 65 29 view .LVU253
 1013 01a4 202C     		cmp	r4, #32
  68:../../DaisySP//Source/PhysicalModeling/PolyPluck.h ****         }
 1014              		.loc 9 68 17 view .LVU254
 1015 01a6 38EE008A 		vadd.f32	s16, s16, s0
 1016              	.LVL57:
  65:../../DaisySP//Source/PhysicalModeling/PolyPluck.h ****         {
 1017              		.loc 9 65 9 is_stmt 1 view .LVU255
  65:../../DaisySP//Source/PhysicalModeling/PolyPluck.h ****         {
ARM GAS  /var/folders/hl/qgbwny5j0fd895c2c41bk3tw0000gp/T//ccTphaKR.s 			page 36


 1018              		.loc 9 65 29 view .LVU256
 1019 01aa 0AF1340A 		add	r10, r10, #52
 1020 01ae E2D1     		bne	.L14
 1021              	.LBE517:
  70:../../DaisySP//Source/PhysicalModeling/PolyPluck.h ****             trig = 0.0f;
 1022              		.loc 9 70 9 is_stmt 0 view .LVU257
 1023 01b0 F5EEC08A 		vcmpe.f32	s17, #0
  72:../../DaisySP//Source/PhysicalModeling/PolyPluck.h ****     }
 1024              		.loc 9 72 28 view .LVU258
 1025 01b4 2F48     		ldr	r0, .L26+60
 1026 01b6 B0EE480A 		vmov.f32	s0, s16
 1027 01ba B400     		lsls	r4, r6, #2
 1028              	.LVL58:
  70:../../DaisySP//Source/PhysicalModeling/PolyPluck.h ****             trig = 0.0f;
 1029              		.loc 9 70 9 view .LVU259
 1030 01bc F1EE10FA 		vmrs	APSR_nzcv, FPSCR
  71:../../DaisySP//Source/PhysicalModeling/PolyPluck.h ****         return blk_.Process(sig);
 1031              		.loc 9 71 18 view .LVU260
 1032 01c0 C8BF     		it	gt
 1033 01c2 DFED228A 		vldrgt.32	s17, .L26+20
 1034              	.LVL59:
  72:../../DaisySP//Source/PhysicalModeling/PolyPluck.h ****     }
 1035              		.loc 9 72 28 view .LVU261
 1036 01c6 FFF7FEFF 		bl	_ZN7daisysp7DcBlock7ProcessEf
 1037              	.LVL60:
  72:../../DaisySP//Source/PhysicalModeling/PolyPluck.h ****     }
 1038              		.loc 9 72 28 view .LVU262
 1039              	.LBE487:
 1040              	.LBE486:
  57:plinks.cpp    **** 		sig_out = ladder.Process(sig_out);
 1041              		.loc 11 57 27 view .LVU263
 1042 01ca 2548     		ldr	r0, .L26+40
  56:plinks.cpp    **** 		sig_out = ladder.Process(sig_out);
 1043              		.loc 11 56 11 view .LVU264
 1044 01cc 8DED040A 		vstr.32	s0, [sp, #16]
 1045              		.loc 11 57 3 is_stmt 1 view .LVU265
 1046              		.loc 11 57 27 is_stmt 0 view .LVU266
 1047 01d0 FFF7FEFF 		bl	_ZN7daisysp10MoogLadder7ProcessEf
 1048              	.LVL61:
  58:plinks.cpp    **** 
  59:plinks.cpp    **** 		rv.Process(sig_out, sig_out, &OUT_L[i], &OUT_R[i]);
 1049              		.loc 11 59 13 view .LVU267
 1050 01d4 1E48     		ldr	r0, .L26+24
  57:plinks.cpp    **** 
 1051              		.loc 11 57 11 view .LVU268
 1052 01d6 8DED040A 		vstr.32	s0, [sp, #16]
 1053              		.loc 11 59 3 is_stmt 1 view .LVU269
 1054              		.loc 11 59 13 is_stmt 0 view .LVU270
 1055 01da D7E90032 		ldrd	r3, r2, [r7]
 1056 01de 02EB8602 		add	r2, r2, r6, lsl #2
 1057 01e2 03EB8603 		add	r3, r3, r6, lsl #2
  47:plinks.cpp    **** 	{
 1058              		.loc 11 47 2 view .LVU271
 1059 01e6 0136     		adds	r6, r6, #1
 1060              	.LVL62:
 1061              		.loc 11 59 13 view .LVU272
 1062 01e8 0092     		str	r2, [sp]
ARM GAS  /var/folders/hl/qgbwny5j0fd895c2c41bk3tw0000gp/T//ccTphaKR.s 			page 37


 1063 01ea 04AA     		add	r2, sp, #16
 1064 01ec 1146     		mov	r1, r2
 1065 01ee FFF7FEFF 		bl	_ZN7daisysp8ReverbSc7ProcessERKfS2_PfS3_
 1066              	.LVL63:
  60:plinks.cpp    **** 
  61:plinks.cpp    **** 		out[0][i] = OUT_L[i] + (sig_out * .5f);
 1067              		.loc 11 61 3 is_stmt 1 view .LVU273
 1068              		.loc 11 61 22 is_stmt 0 view .LVU274
 1069 01f2 3B68     		ldr	r3, [r7]
 1070              		.loc 11 61 24 view .LVU275
 1071 01f4 B6EE007A 		vmov.f32	s14, #5.0e-1
 1072 01f8 DDED046A 		vldr.32	s13, [sp, #16]
 1073              		.loc 11 61 22 view .LVU276
 1074 01fc 2344     		add	r3, r3, r4
 1075              		.loc 11 61 24 view .LVU277
 1076 01fe D3ED007A 		vldr.32	s15, [r3]
 1077 0202 E6EE877A 		vfma.f32	s15, s13, s14
 1078              		.loc 11 61 13 view .LVU278
 1079 0206 C3ED007A 		vstr.32	s15, [r3]
  62:plinks.cpp    **** 		out[1][i] = OUT_R[i];
 1080              		.loc 11 62 3 is_stmt 1 view .LVU279
  47:plinks.cpp    **** 	{
 1081              		.loc 11 47 2 view .LVU280
 1082              	.LVL64:
  47:plinks.cpp    **** 	{
 1083              		.loc 11 47 23 view .LVU281
 1084 020a 039B     		ldr	r3, [sp, #12]
 1085 020c B342     		cmp	r3, r6
 1086 020e 7FF469AF 		bne	.L8
 1087              	.LVL65:
 1088              	.L7:
  47:plinks.cpp    **** 	{
 1089              		.loc 11 47 23 is_stmt 0 view .LVU282
 1090              	.LBE485:
  63:plinks.cpp    **** 	}
  64:plinks.cpp    **** }
 1091              		.loc 11 64 1 view .LVU283
 1092 0212 07B0     		add	sp, sp, #28
 1093              		.cfi_remember_state
 1094              		.cfi_def_cfa_offset 60
 1095              		@ sp needed
 1096 0214 BDEC068B 		vldm	sp!, {d8-d10}
 1097              		.cfi_restore 84
 1098              		.cfi_restore 85
 1099              		.cfi_restore 82
 1100              		.cfi_restore 83
 1101              		.cfi_restore 80
 1102              		.cfi_restore 81
 1103              		.cfi_def_cfa_offset 36
 1104 0218 BDE8F08F 		pop	{r4, r5, r6, r7, r8, r9, r10, fp, pc}
 1105              	.LVL66:
 1106              	.L9:
 1107              		.cfi_restore_state
 1108              	.LBB524:
  54:plinks.cpp    **** 
 1109              		.loc 11 54 3 is_stmt 1 discriminator 2 view .LVU284
 1110              	.LBB521:
ARM GAS  /var/folders/hl/qgbwny5j0fd895c2c41bk3tw0000gp/T//ccTphaKR.s 			page 38


 1111              	.LBB518:
  54:../../DaisySP//Source/PhysicalModeling/PolyPluck.h ****         {
 1112              		.loc 9 54 9 is_stmt 0 discriminator 2 view .LVU285
 1113 021c F5EEC08A 		vcmpe.f32	s17, #0
 1114              	.LBE518:
 1115              	.LBE521:
  54:plinks.cpp    **** 
 1116              		.loc 11 54 11 discriminator 2 view .LVU286
 1117 0220 114A     		ldr	r2, .L26+48
 1118 0222 02EB8303 		add	r3, r2, r3, lsl #2
 1119              	.LBB522:
 1120              	.LBB519:
  54:../../DaisySP//Source/PhysicalModeling/PolyPluck.h ****         {
 1121              		.loc 9 54 9 discriminator 2 view .LVU287
 1122 0226 F1EE10FA 		vmrs	APSR_nzcv, FPSCR
 1123              	.LBE519:
 1124              	.LBE522:
  54:plinks.cpp    **** 
 1125              		.loc 11 54 11 discriminator 2 view .LVU288
 1126 022a D3ED007A 		vldr.32	s15, [r3]
 1127              	.LVL67:
  56:plinks.cpp    **** 		sig_out = ladder.Process(sig_out);
 1128              		.loc 11 56 3 is_stmt 1 discriminator 2 view .LVU289
 1129              	.LBB523:
  50:../../DaisySP//Source/PhysicalModeling/PolyPluck.h ****     {
 1130              		.loc 9 50 11 discriminator 2 view .LVU290
 1131              	.LBB520:
  54:../../DaisySP//Source/PhysicalModeling/PolyPluck.h ****         {
 1132              		.loc 9 54 9 is_stmt 0 discriminator 2 view .LVU291
 1133 022e 3FF773AF 		bgt	.L10
  63:../../DaisySP//Source/PhysicalModeling/PolyPluck.h **** 
 1134              		.loc 9 63 14 view .LVU292
 1135 0232 D5F894B6 		ldr	fp, [r5, #1684]
 1136 0236 84E7     		b	.L11
 1137              	.L27:
 1138              		.align	2
 1139              	.L26:
 1140 0238 18000000 		.word	.LANCHOR0+24
 1141 023c 00001C42 		.word	1109131264
 1142 0240 00002042 		.word	1109393408
 1143 0244 00000000 		.word	.LANCHOR1
 1144 0248 00800000 		.word	pp+32768
 1145 024c 00000000 		.word	0
 1146 0250 00000000 		.word	rv
 1147 0254 2D152A3F 		.word	1059722541
 1148 0258 00007A44 		.word	1148846080
 1149 025c 0000FA46 		.word	1190789120
 1150 0260 00000000 		.word	.LANCHOR2
 1151 0264 ABAAAAAA 		.word	-1431655765
 1152 0268 00000000 		.word	.LANCHOR4
 1153 026c 00008A42 		.word	1116340224
 1154 0270 0000DC43 		.word	1138491392
 1155 0274 00000000 		.word	pp
 1156 0278 00000000 		.word	.LANCHOR3
 1157 027c 0C000000 		.word	pp+12
 1158              	.LBE520:
 1159              	.LBE523:
ARM GAS  /var/folders/hl/qgbwny5j0fd895c2c41bk3tw0000gp/T//ccTphaKR.s 			page 39


 1160              	.LBE524:
 1161              		.cfi_endproc
 1162              	.LFE4792:
 1164              		.section	.text.startup.main,"ax",%progbits
 1165              		.align	1
 1166              		.p2align 2,,3
 1167              		.global	main
 1168              		.syntax unified
 1169              		.thumb
 1170              		.thumb_func
 1171              		.fpu fpv5-d16
 1173              	main:
 1174              	.LFB4793:
  65:plinks.cpp    **** 
  66:plinks.cpp    **** int main(void)
  67:plinks.cpp    **** {
 1175              		.loc 11 67 1 is_stmt 1 view -0
 1176              		.cfi_startproc
 1177              		@ args = 0, pretend = 0, frame = 112
 1178              		@ frame_needed = 0, uses_anonymous_args = 0
  68:plinks.cpp    **** 	hw.Init();
 1179              		.loc 11 68 2 view .LVU294
  67:plinks.cpp    **** 	hw.Init();
 1180              		.loc 11 67 1 is_stmt 0 view .LVU295
 1181 0000 70B5     		push	{r4, r5, r6, lr}
 1182              		.cfi_def_cfa_offset 16
 1183              		.cfi_offset 4, -16
 1184              		.cfi_offset 5, -12
 1185              		.cfi_offset 6, -8
 1186              		.cfi_offset 14, -4
 1187              		.loc 11 68 9 view .LVU296
 1188 0002 0021     		movs	r1, #0
 1189 0004 4748     		ldr	r0, .L33
 1190 0006 0024     		movs	r4, #0
 1191 0008 0226     		movs	r6, #2
 1192 000a 0125     		movs	r5, #1
  67:plinks.cpp    **** 	hw.Init();
 1193              		.loc 11 67 1 view .LVU297
 1194 000c 2DED028B 		vpush.64	{d8}
 1195              		.cfi_def_cfa_offset 24
 1196              		.cfi_offset 80, -24
 1197              		.cfi_offset 81, -20
 1198 0010 9CB0     		sub	sp, sp, #112
 1199              		.cfi_def_cfa_offset 136
 1200              		.loc 11 68 9 view .LVU298
 1201 0012 FFF7FEFF 		bl	_ZN5daisy9DaisySeed4InitEb
 1202              	.LVL68:
  69:plinks.cpp    **** 	hw.SetAudioBlockSize(4); // number of samples handled per callback
 1203              		.loc 11 69 2 is_stmt 1 view .LVU299
 1204              		.loc 11 69 22 is_stmt 0 view .LVU300
 1205 0016 0421     		movs	r1, #4
 1206 0018 4248     		ldr	r0, .L33
 1207 001a FFF7FEFF 		bl	_ZN5daisy9DaisySeed17SetAudioBlockSizeEj
 1208              	.LVL69:
  70:plinks.cpp    **** 	hw.SetAudioSampleRate(SaiHandle::Config::SampleRate::SAI_48KHZ);
 1209              		.loc 11 70 2 is_stmt 1 view .LVU301
 1210              		.loc 11 70 23 is_stmt 0 view .LVU302
ARM GAS  /var/folders/hl/qgbwny5j0fd895c2c41bk3tw0000gp/T//ccTphaKR.s 			page 40


 1211 001e 0321     		movs	r1, #3
 1212 0020 4048     		ldr	r0, .L33
 1213 0022 FFF7FEFF 		bl	_ZN5daisy9DaisySeed18SetAudioSampleRateENS_9SaiHandle6Config10SampleRateE
 1214              	.LVL70:
  71:plinks.cpp    **** 	float sample_rate = hw.AudioSampleRate();
 1215              		.loc 11 71 2 is_stmt 1 view .LVU303
 1216              		.loc 11 71 40 is_stmt 0 view .LVU304
 1217 0026 3F48     		ldr	r0, .L33
 1218 0028 FFF7FEFF 		bl	_ZN5daisy9DaisySeed15AudioSampleRateEv
 1219              	.LVL71:
 1220 002c 8DF80460 		strb	r6, [sp, #4]
 1221 0030 8DF80540 		strb	r4, [sp, #5]
  72:plinks.cpp    **** 
  73:plinks.cpp    **** 	AdcChannelConfig adc_config[NUM_ADC_CHANNELS];
  74:plinks.cpp    **** 	adc_config[pot1].InitSingle(A0);
 1222              		.loc 11 74 29 view .LVU305
 1223 0034 06A8     		add	r0, sp, #24
 1224 0036 0199     		ldr	r1, [sp, #4]
  71:plinks.cpp    **** 	float sample_rate = hw.AudioSampleRate();
 1225              		.loc 11 71 40 view .LVU306
 1226 0038 B0EE408A 		vmov.f32	s16, s0
 1227              	.LVL72:
  73:plinks.cpp    **** 	adc_config[pot1].InitSingle(A0);
 1228              		.loc 11 73 2 is_stmt 1 view .LVU307
 1229              		.loc 11 74 2 view .LVU308
 1230              	.LBB546:
 1231              	.LBI546:
 1232              		.file 14 "../../libDaisy//src/daisy_core.h"
   1:../../libDaisy//src/daisy_core.h **** #pragma once
   2:../../libDaisy//src/daisy_core.h **** #ifndef DSY_CORE_HW_H
   3:../../libDaisy//src/daisy_core.h **** #define DSY_CORE_HW_H /**< & */
   4:../../libDaisy//src/daisy_core.h **** #include <stdint.h>
   5:../../libDaisy//src/daisy_core.h **** #include <stdlib.h>
   6:../../libDaisy//src/daisy_core.h **** 
   7:../../libDaisy//src/daisy_core.h **** #if defined(_MSC_VER)
   8:../../libDaisy//src/daisy_core.h **** #define FORCE_INLINE __forceinline /**< & */
   9:../../libDaisy//src/daisy_core.h **** #elif defined(__clang__)
  10:../../libDaisy//src/daisy_core.h **** #define FORCE_INLINE inline __attribute__((always_inline)) /**< & */
  11:../../libDaisy//src/daisy_core.h **** #pragma clang diagnostic ignored "-Wduplicate-decl-specifier"
  12:../../libDaisy//src/daisy_core.h **** #elif defined(__GNUC__)
  13:../../libDaisy//src/daisy_core.h **** #define FORCE_INLINE inline __attribute__((always_inline)) /**< & */
  14:../../libDaisy//src/daisy_core.h **** #else
  15:../../libDaisy//src/daisy_core.h **** #error unknown compiler
  16:../../libDaisy//src/daisy_core.h **** #endif
  17:../../libDaisy//src/daisy_core.h **** 
  18:../../libDaisy//src/daisy_core.h **** /** @addtogroup utility
  19:../../libDaisy//src/daisy_core.h ****     @{
  20:../../libDaisy//src/daisy_core.h **** */
  21:../../libDaisy//src/daisy_core.h **** 
  22:../../libDaisy//src/daisy_core.h **** /** Macro for area of memory that is configured as cacheless
  23:../../libDaisy//src/daisy_core.h **** This should be used primarily for DMA buffers, and the like.
  24:../../libDaisy//src/daisy_core.h **** */
  25:../../libDaisy//src/daisy_core.h **** #define DMA_BUFFER_MEM_SECTION __attribute__((section(".sram1_bss")))
  26:../../libDaisy//src/daisy_core.h **** /** 
  27:../../libDaisy//src/daisy_core.h **** THE DTCM RAM section is also non-cached. However, is not suitable 
  28:../../libDaisy//src/daisy_core.h **** for DMA transfers. Performance is on par with internal SRAM w/ 
  29:../../libDaisy//src/daisy_core.h **** cache enabled.
ARM GAS  /var/folders/hl/qgbwny5j0fd895c2c41bk3tw0000gp/T//ccTphaKR.s 			page 41


  30:../../libDaisy//src/daisy_core.h **** */
  31:../../libDaisy//src/daisy_core.h **** #define DTCM_MEM_SECTION __attribute__((section(".dtcmram_bss")))
  32:../../libDaisy//src/daisy_core.h **** 
  33:../../libDaisy//src/daisy_core.h **** #define FBIPMAX 0.999985f             /**< close to 1.0f-LSB at 16 bit */
  34:../../libDaisy//src/daisy_core.h **** #define FBIPMIN (-FBIPMAX)            /**< - (1 - LSB) */
  35:../../libDaisy//src/daisy_core.h **** #define U82F_SCALE 0.0078740f         /**< 1 / 127 */
  36:../../libDaisy//src/daisy_core.h **** #define F2U8_SCALE 127.0f             /**< 128 - 1 */
  37:../../libDaisy//src/daisy_core.h **** #define S82F_SCALE 0.0078125f         /**< 1 / (2**7) */
  38:../../libDaisy//src/daisy_core.h **** #define F2S8_SCALE 127.0f             /**< (2 ** 7) - 1 */
  39:../../libDaisy//src/daisy_core.h **** #define S162F_SCALE 3.0517578125e-05f /**< 1 / (2** 15) */
  40:../../libDaisy//src/daisy_core.h **** #define F2S16_SCALE 32767.0f          /**< (2 ** 15) - 1 */
  41:../../libDaisy//src/daisy_core.h **** #define F2S24_SCALE 8388608.0f        /**< 2 ** 23 */
  42:../../libDaisy//src/daisy_core.h **** #define S242F_SCALE 1.192092896e-07f  /**< 1 / (2 ** 23) */
  43:../../libDaisy//src/daisy_core.h **** #define S24SIGN 0x800000              /**< 2 ** 23 */
  44:../../libDaisy//src/daisy_core.h **** #define S322F_SCALE 4.6566129e-10f    /**< 1 / (2** 31) */
  45:../../libDaisy//src/daisy_core.h **** #define F2S32_SCALE 2147483647.f      /**< (2 ** 31) - 1 */
  46:../../libDaisy//src/daisy_core.h **** 
  47:../../libDaisy//src/daisy_core.h **** 
  48:../../libDaisy//src/daisy_core.h **** /** shorthand macro for simplifying the reading of the left 
  49:../../libDaisy//src/daisy_core.h ****  *  channel of a non-interleaved output buffer named out */
  50:../../libDaisy//src/daisy_core.h **** #define OUT_L out[0]
  51:../../libDaisy//src/daisy_core.h **** 
  52:../../libDaisy//src/daisy_core.h **** /** shorthand macro for simplifying the reading of the right 
  53:../../libDaisy//src/daisy_core.h ****  *  channel of a non-interleaved output buffer named out */
  54:../../libDaisy//src/daisy_core.h **** #define OUT_R out[1]
  55:../../libDaisy//src/daisy_core.h **** 
  56:../../libDaisy//src/daisy_core.h **** /** shorthand macro for simplifying the reading of the left 
  57:../../libDaisy//src/daisy_core.h ****  *  channel of a non-interleaved input buffer named in */
  58:../../libDaisy//src/daisy_core.h **** #define IN_L in[0]
  59:../../libDaisy//src/daisy_core.h **** 
  60:../../libDaisy//src/daisy_core.h **** /** shorthand macro for simplifying the reading of the right 
  61:../../libDaisy//src/daisy_core.h ****  *  channel of a non-interleaved input buffer named in */
  62:../../libDaisy//src/daisy_core.h **** #define IN_R in[1]
  63:../../libDaisy//src/daisy_core.h **** 
  64:../../libDaisy//src/daisy_core.h **** /** 
  65:../../libDaisy//src/daisy_core.h ****     Computes cube.
  66:../../libDaisy//src/daisy_core.h ****     \param x Number to be cubed
  67:../../libDaisy//src/daisy_core.h ****     \return x ^ 3
  68:../../libDaisy//src/daisy_core.h **** */
  69:../../libDaisy//src/daisy_core.h **** FORCE_INLINE float cube(float x)
  70:../../libDaisy//src/daisy_core.h **** {
  71:../../libDaisy//src/daisy_core.h ****     return (x * x) * x;
  72:../../libDaisy//src/daisy_core.h **** }
  73:../../libDaisy//src/daisy_core.h **** 
  74:../../libDaisy//src/daisy_core.h **** /** 
  75:../../libDaisy//src/daisy_core.h ****     Converts unsigned 8-bit to float
  76:../../libDaisy//src/daisy_core.h ****     \param x Number to be scaled.
  77:../../libDaisy//src/daisy_core.h ****     \return Scaled number.
  78:../../libDaisy//src/daisy_core.h **** */
  79:../../libDaisy//src/daisy_core.h **** FORCE_INLINE float u82f(uint8_t x)
  80:../../libDaisy//src/daisy_core.h **** {
  81:../../libDaisy//src/daisy_core.h ****     return ((float)x - 127.f) * U82F_SCALE;
  82:../../libDaisy//src/daisy_core.h **** }
  83:../../libDaisy//src/daisy_core.h **** 
  84:../../libDaisy//src/daisy_core.h **** /**
  85:../../libDaisy//src/daisy_core.h ****     Converts float to unsigned 8-bit
  86:../../libDaisy//src/daisy_core.h **** */
ARM GAS  /var/folders/hl/qgbwny5j0fd895c2c41bk3tw0000gp/T//ccTphaKR.s 			page 42


  87:../../libDaisy//src/daisy_core.h **** FORCE_INLINE uint8_t f2u8(float x)
  88:../../libDaisy//src/daisy_core.h **** {
  89:../../libDaisy//src/daisy_core.h ****     x = x <= FBIPMIN ? FBIPMIN : x;
  90:../../libDaisy//src/daisy_core.h ****     x = x >= FBIPMAX ? FBIPMAX : x;
  91:../../libDaisy//src/daisy_core.h ****     return (uint8_t)((x * F2U8_SCALE) + F2U8_SCALE);
  92:../../libDaisy//src/daisy_core.h **** }
  93:../../libDaisy//src/daisy_core.h **** 
  94:../../libDaisy//src/daisy_core.h **** 
  95:../../libDaisy//src/daisy_core.h **** /** 
  96:../../libDaisy//src/daisy_core.h ****     Converts Signed 8-bit to float
  97:../../libDaisy//src/daisy_core.h ****     \param x Number to be scaled.
  98:../../libDaisy//src/daisy_core.h ****     \return Scaled number.
  99:../../libDaisy//src/daisy_core.h **** */
 100:../../libDaisy//src/daisy_core.h **** FORCE_INLINE float s82f(int8_t x)
 101:../../libDaisy//src/daisy_core.h **** {
 102:../../libDaisy//src/daisy_core.h ****     return (float)x * S82F_SCALE;
 103:../../libDaisy//src/daisy_core.h **** }
 104:../../libDaisy//src/daisy_core.h **** 
 105:../../libDaisy//src/daisy_core.h **** /**
 106:../../libDaisy//src/daisy_core.h ****     Converts float to Signed 8-bit
 107:../../libDaisy//src/daisy_core.h **** */
 108:../../libDaisy//src/daisy_core.h **** FORCE_INLINE int8_t f2s8(float x)
 109:../../libDaisy//src/daisy_core.h **** {
 110:../../libDaisy//src/daisy_core.h ****     x = x <= FBIPMIN ? FBIPMIN : x;
 111:../../libDaisy//src/daisy_core.h ****     x = x >= FBIPMAX ? FBIPMAX : x;
 112:../../libDaisy//src/daisy_core.h ****     return (int32_t)(x * F2S8_SCALE);
 113:../../libDaisy//src/daisy_core.h **** }
 114:../../libDaisy//src/daisy_core.h **** 
 115:../../libDaisy//src/daisy_core.h **** /** 
 116:../../libDaisy//src/daisy_core.h ****     Converts Signed 16-bit to float
 117:../../libDaisy//src/daisy_core.h ****     \param x Number to be scaled.
 118:../../libDaisy//src/daisy_core.h ****     \return Scaled number.
 119:../../libDaisy//src/daisy_core.h **** */
 120:../../libDaisy//src/daisy_core.h **** FORCE_INLINE float s162f(int16_t x)
 121:../../libDaisy//src/daisy_core.h **** {
 122:../../libDaisy//src/daisy_core.h ****     return (float)x * S162F_SCALE;
 123:../../libDaisy//src/daisy_core.h **** }
 124:../../libDaisy//src/daisy_core.h **** 
 125:../../libDaisy//src/daisy_core.h **** /**
 126:../../libDaisy//src/daisy_core.h ****     Converts float to Signed 16-bit
 127:../../libDaisy//src/daisy_core.h **** */
 128:../../libDaisy//src/daisy_core.h **** FORCE_INLINE int16_t f2s16(float x)
 129:../../libDaisy//src/daisy_core.h **** {
 130:../../libDaisy//src/daisy_core.h ****     x = x <= FBIPMIN ? FBIPMIN : x;
 131:../../libDaisy//src/daisy_core.h ****     x = x >= FBIPMAX ? FBIPMAX : x;
 132:../../libDaisy//src/daisy_core.h ****     return (int32_t)(x * F2S16_SCALE);
 133:../../libDaisy//src/daisy_core.h **** }
 134:../../libDaisy//src/daisy_core.h **** 
 135:../../libDaisy//src/daisy_core.h **** /**
 136:../../libDaisy//src/daisy_core.h ****     Converts Signed 24-bit to float
 137:../../libDaisy//src/daisy_core.h ****  */
 138:../../libDaisy//src/daisy_core.h **** FORCE_INLINE float s242f(int32_t x)
 139:../../libDaisy//src/daisy_core.h **** {
 140:../../libDaisy//src/daisy_core.h ****     x = (x ^ S24SIGN) - S24SIGN; //sign extend aka ((x<<8)>>8)
 141:../../libDaisy//src/daisy_core.h ****     return (float)x * S242F_SCALE;
 142:../../libDaisy//src/daisy_core.h **** }
 143:../../libDaisy//src/daisy_core.h **** /**
ARM GAS  /var/folders/hl/qgbwny5j0fd895c2c41bk3tw0000gp/T//ccTphaKR.s 			page 43


 144:../../libDaisy//src/daisy_core.h ****     Converts float to Signed 24-bit
 145:../../libDaisy//src/daisy_core.h ****  */
 146:../../libDaisy//src/daisy_core.h **** FORCE_INLINE int32_t f2s24(float x)
 147:../../libDaisy//src/daisy_core.h **** {
 148:../../libDaisy//src/daisy_core.h ****     x = x <= FBIPMIN ? FBIPMIN : x;
 149:../../libDaisy//src/daisy_core.h ****     x = x >= FBIPMAX ? FBIPMAX : x;
 150:../../libDaisy//src/daisy_core.h ****     return (int32_t)(x * F2S24_SCALE);
 151:../../libDaisy//src/daisy_core.h **** }
 152:../../libDaisy//src/daisy_core.h **** 
 153:../../libDaisy//src/daisy_core.h **** /**
 154:../../libDaisy//src/daisy_core.h ****     Converts Signed 32-bit to float
 155:../../libDaisy//src/daisy_core.h ****  */
 156:../../libDaisy//src/daisy_core.h **** FORCE_INLINE float s322f(int32_t x)
 157:../../libDaisy//src/daisy_core.h **** {
 158:../../libDaisy//src/daisy_core.h ****     return (float)x * S322F_SCALE;
 159:../../libDaisy//src/daisy_core.h **** }
 160:../../libDaisy//src/daisy_core.h **** /**
 161:../../libDaisy//src/daisy_core.h ****     Converts float to Signed 24-bit
 162:../../libDaisy//src/daisy_core.h ****  */
 163:../../libDaisy//src/daisy_core.h **** FORCE_INLINE int32_t f2s32(float x)
 164:../../libDaisy//src/daisy_core.h **** {
 165:../../libDaisy//src/daisy_core.h ****     x = x <= FBIPMIN ? FBIPMIN : x;
 166:../../libDaisy//src/daisy_core.h ****     x = x >= FBIPMAX ? FBIPMAX : x;
 167:../../libDaisy//src/daisy_core.h ****     return (int32_t)(x * F2S32_SCALE);
 168:../../libDaisy//src/daisy_core.h **** }
 169:../../libDaisy//src/daisy_core.h **** 
 170:../../libDaisy//src/daisy_core.h **** 
 171:../../libDaisy//src/daisy_core.h **** /** Enums and a simple struct for defining a hardware pin on the MCU
 172:../../libDaisy//src/daisy_core.h ****  *  These correlate with the stm32 datasheet, and are used to configure
 173:../../libDaisy//src/daisy_core.h ****  *  the hardware.
 174:../../libDaisy//src/daisy_core.h ****  * 
 175:../../libDaisy//src/daisy_core.h ****  *  This along with the dsy_gpio_pin class should no longer be used.
 176:../../libDaisy//src/daisy_core.h ****  *  They are available for backwards compatability. 
 177:../../libDaisy//src/daisy_core.h ****  * 
 178:../../libDaisy//src/daisy_core.h ****  *  Please use GPIOPort enum and the Pin struct instead.
 179:../../libDaisy//src/daisy_core.h ****  */
 180:../../libDaisy//src/daisy_core.h **** typedef enum
 181:../../libDaisy//src/daisy_core.h **** {
 182:../../libDaisy//src/daisy_core.h ****     DSY_GPIOA, /**< & */
 183:../../libDaisy//src/daisy_core.h ****     DSY_GPIOB, /**< & */
 184:../../libDaisy//src/daisy_core.h ****     DSY_GPIOC, /**< & */
 185:../../libDaisy//src/daisy_core.h ****     DSY_GPIOD, /**< & */
 186:../../libDaisy//src/daisy_core.h ****     DSY_GPIOE, /**< & */
 187:../../libDaisy//src/daisy_core.h ****     DSY_GPIOF, /**< & */
 188:../../libDaisy//src/daisy_core.h ****     DSY_GPIOG, /**< & */
 189:../../libDaisy//src/daisy_core.h ****     DSY_GPIOH, /**< & */
 190:../../libDaisy//src/daisy_core.h ****     DSY_GPIOI, /**< & */
 191:../../libDaisy//src/daisy_core.h ****     DSY_GPIOJ, /**< & */
 192:../../libDaisy//src/daisy_core.h ****     DSY_GPIOK, /**< & */
 193:../../libDaisy//src/daisy_core.h ****     DSY_GPIOX, /** This is a non-existant port for unsupported bits of hardware. */
 194:../../libDaisy//src/daisy_core.h ****     DSY_GPIO_LAST, /** Final enum member */
 195:../../libDaisy//src/daisy_core.h **** } dsy_gpio_port;
 196:../../libDaisy//src/daisy_core.h **** 
 197:../../libDaisy//src/daisy_core.h **** /** Hardware define pins 
 198:../../libDaisy//src/daisy_core.h ****  *  
 199:../../libDaisy//src/daisy_core.h ****  *  The dsy_gpio_pin struct should no longer be used, and is only available for
 200:../../libDaisy//src/daisy_core.h ****  *  backwards compatability.
ARM GAS  /var/folders/hl/qgbwny5j0fd895c2c41bk3tw0000gp/T//ccTphaKR.s 			page 44


 201:../../libDaisy//src/daisy_core.h ****  * 
 202:../../libDaisy//src/daisy_core.h ****  *  Please use Pin struct instead.
 203:../../libDaisy//src/daisy_core.h ****  */
 204:../../libDaisy//src/daisy_core.h **** typedef struct
 205:../../libDaisy//src/daisy_core.h **** {
 206:../../libDaisy//src/daisy_core.h ****     dsy_gpio_port port; /**< & */
 207:../../libDaisy//src/daisy_core.h ****     uint8_t       pin;  /**< number 0-15 */
 208:../../libDaisy//src/daisy_core.h **** } dsy_gpio_pin;
 209:../../libDaisy//src/daisy_core.h **** 
 210:../../libDaisy//src/daisy_core.h **** /** Helper for creating pins from port/pin combos easily
 211:../../libDaisy//src/daisy_core.h ****  * 
 212:../../libDaisy//src/daisy_core.h ****  *  The dsy_gpio_pin struct should no longer be used, and is only available for
 213:../../libDaisy//src/daisy_core.h ****  *  backwards compatability.
 214:../../libDaisy//src/daisy_core.h ****  * 
 215:../../libDaisy//src/daisy_core.h ****  *  Please use Pin struct instead.
 216:../../libDaisy//src/daisy_core.h **** */
 217:../../libDaisy//src/daisy_core.h **** FORCE_INLINE dsy_gpio_pin dsy_pin(dsy_gpio_port port, uint8_t pin)
 218:../../libDaisy//src/daisy_core.h **** {
 219:../../libDaisy//src/daisy_core.h ****     dsy_gpio_pin p;
 220:../../libDaisy//src/daisy_core.h ****     p.port = port;
 221:../../libDaisy//src/daisy_core.h ****     p.pin  = pin;
 222:../../libDaisy//src/daisy_core.h ****     return p;
 223:../../libDaisy//src/daisy_core.h **** }
 224:../../libDaisy//src/daisy_core.h **** 
 225:../../libDaisy//src/daisy_core.h **** /** Helper for testing sameness of two dsy_gpio_pins
 226:../../libDaisy//src/daisy_core.h ****  *  \return    1 if same, 0 if different
 227:../../libDaisy//src/daisy_core.h ****  * 
 228:../../libDaisy//src/daisy_core.h ****  *  The dsy_gpio_pin struct should no longer be used, and is only available for
 229:../../libDaisy//src/daisy_core.h ****  *  backwards compatability.
 230:../../libDaisy//src/daisy_core.h ****  * 
 231:../../libDaisy//src/daisy_core.h ****  *  Please use Pin struct instead.
 232:../../libDaisy//src/daisy_core.h ****  */
 233:../../libDaisy//src/daisy_core.h **** FORCE_INLINE uint8_t dsy_pin_cmp(dsy_gpio_pin *a, dsy_gpio_pin *b)
 234:../../libDaisy//src/daisy_core.h **** {
 235:../../libDaisy//src/daisy_core.h ****     return ((a->port == b->port) && (a->pin == b->pin));
 236:../../libDaisy//src/daisy_core.h **** }
 237:../../libDaisy//src/daisy_core.h **** 
 238:../../libDaisy//src/daisy_core.h **** #ifdef __cplusplus
 239:../../libDaisy//src/daisy_core.h **** 
 240:../../libDaisy//src/daisy_core.h **** namespace daisy
 241:../../libDaisy//src/daisy_core.h **** {
 242:../../libDaisy//src/daisy_core.h **** /** @brief GPIO Port names */
 243:../../libDaisy//src/daisy_core.h **** enum GPIOPort
 244:../../libDaisy//src/daisy_core.h **** {
 245:../../libDaisy//src/daisy_core.h ****     PORTA, /**< Port A */
 246:../../libDaisy//src/daisy_core.h ****     PORTB, /**< Port B */
 247:../../libDaisy//src/daisy_core.h ****     PORTC, /**< Port C */
 248:../../libDaisy//src/daisy_core.h ****     PORTD, /**< Port D */
 249:../../libDaisy//src/daisy_core.h ****     PORTE, /**< Port E */
 250:../../libDaisy//src/daisy_core.h ****     PORTF, /**< Port F */
 251:../../libDaisy//src/daisy_core.h ****     PORTG, /**< Port G */
 252:../../libDaisy//src/daisy_core.h ****     PORTH, /**< Port H */
 253:../../libDaisy//src/daisy_core.h ****     PORTI, /**< Port I */
 254:../../libDaisy//src/daisy_core.h ****     PORTJ, /**< Port J */
 255:../../libDaisy//src/daisy_core.h ****     PORTK, /**< Port K */
 256:../../libDaisy//src/daisy_core.h ****     PORTX, /**< Used as a dummy port to signal an invalid pin. */
 257:../../libDaisy//src/daisy_core.h **** };
ARM GAS  /var/folders/hl/qgbwny5j0fd895c2c41bk3tw0000gp/T//ccTphaKR.s 			page 45


 258:../../libDaisy//src/daisy_core.h **** 
 259:../../libDaisy//src/daisy_core.h **** /** @brief representation of hardware port/pin combination */
 260:../../libDaisy//src/daisy_core.h **** struct Pin
 261:../../libDaisy//src/daisy_core.h **** {
 262:../../libDaisy//src/daisy_core.h ****     GPIOPort port;
 263:../../libDaisy//src/daisy_core.h ****     uint8_t  pin;
 264:../../libDaisy//src/daisy_core.h **** 
 265:../../libDaisy//src/daisy_core.h ****     /** @brief Constructor creates a valid pin. 
 266:../../libDaisy//src/daisy_core.h ****      *  @param pt GPIOPort between PA, and PK corresponding to STM32 Port.
 267:../../libDaisy//src/daisy_core.h ****      *  @param pn pin number in range of 0-15
 268:../../libDaisy//src/daisy_core.h ****     */
 269:../../libDaisy//src/daisy_core.h ****     constexpr Pin(const GPIOPort pt, const uint8_t pn) : port(pt), pin(pn) {}
 270:../../libDaisy//src/daisy_core.h **** 
 271:../../libDaisy//src/daisy_core.h ****     /** @brief Basic Constructor creates an invalid Pin object */
 272:../../libDaisy//src/daisy_core.h ****     constexpr Pin() : port(PORTX), pin(255) {}
 273:../../libDaisy//src/daisy_core.h **** 
 274:../../libDaisy//src/daisy_core.h ****     /** @brief checks validity of a Pin 
 275:../../libDaisy//src/daisy_core.h ****      *  @retval returns true if the port is a valid hardware pin, otherwise false.
 276:../../libDaisy//src/daisy_core.h ****     */
 277:../../libDaisy//src/daisy_core.h ****     constexpr bool IsValid() const { return port != PORTX && pin < 16; }
 278:../../libDaisy//src/daisy_core.h **** 
 279:../../libDaisy//src/daisy_core.h ****     /** @brief comparison operator for checking equality between Pin objects */
 280:../../libDaisy//src/daisy_core.h ****     constexpr bool operator==(const Pin &rhs) const
 281:../../libDaisy//src/daisy_core.h ****     {
 282:../../libDaisy//src/daisy_core.h ****         return (rhs.port == port) && (rhs.pin == pin);
 283:../../libDaisy//src/daisy_core.h ****     }
 284:../../libDaisy//src/daisy_core.h **** 
 285:../../libDaisy//src/daisy_core.h ****     /** @brief comparison operator for checking inequality between Pin objects */
 286:../../libDaisy//src/daisy_core.h ****     constexpr bool operator!=(const Pin &rhs) const { return !operator==(rhs); }
 287:../../libDaisy//src/daisy_core.h **** 
 288:../../libDaisy//src/daisy_core.h ****     /** @brief conversion operation for converting to the old-style representation
 289:../../libDaisy//src/daisy_core.h ****      *         of a pin.
 290:../../libDaisy//src/daisy_core.h ****      * 
 291:../../libDaisy//src/daisy_core.h ****      *  This allows the new Pin type to be used in place of the older, dsy_gpio_pin
 292:../../libDaisy//src/daisy_core.h ****      *  type.
 293:../../libDaisy//src/daisy_core.h ****      */
 294:../../libDaisy//src/daisy_core.h ****     operator dsy_gpio_pin() const
 1233              		.loc 14 294 5 view .LVU309
 1234              	.LBE546:
 295:../../libDaisy//src/daisy_core.h ****     {
 296:../../libDaisy//src/daisy_core.h ****         return dsy_pin(static_cast<dsy_gpio_port>(port), pin);
 1235              		.loc 14 296 9 view .LVU310
 1236              	.LBB548:
 1237              	.LBB547:
 1238              	.LBI547:
 217:../../libDaisy//src/daisy_core.h **** {
 1239              		.loc 14 217 27 view .LVU311
 1240              	.LBE547:
 1241              	.LBE548:
 219:../../libDaisy//src/daisy_core.h ****     p.port = port;
 1242              		.loc 14 219 5 view .LVU312
 220:../../libDaisy//src/daisy_core.h ****     p.pin  = pin;
 1243              		.loc 14 220 5 view .LVU313
 221:../../libDaisy//src/daisy_core.h ****     return p;
 1244              		.loc 14 221 5 view .LVU314
 222:../../libDaisy//src/daisy_core.h **** }
 1245              		.loc 14 222 5 view .LVU315
ARM GAS  /var/folders/hl/qgbwny5j0fd895c2c41bk3tw0000gp/T//ccTphaKR.s 			page 46


 1246              		.loc 11 74 29 is_stmt 0 view .LVU316
 1247 003c FFF7FEFF 		bl	_ZN5daisy16AdcChannelConfig10InitSingleE12dsy_gpio_pin
 1248              	.LVL73:
  75:plinks.cpp    **** 	adc_config[pot2].InitSingle(A1);
 1249              		.loc 11 75 2 is_stmt 1 view .LVU317
 1250              	.LBB549:
 1251              	.LBI549:
 294:../../libDaisy//src/daisy_core.h ****     {
 1252              		.loc 14 294 5 view .LVU318
 1253              	.LBE549:
 1254              		.loc 14 296 9 view .LVU319
 1255              	.LBB551:
 1256              	.LBB550:
 1257              	.LBI550:
 217:../../libDaisy//src/daisy_core.h **** {
 1258              		.loc 14 217 27 view .LVU320
 1259              	.LBE550:
 1260              	.LBE551:
 219:../../libDaisy//src/daisy_core.h ****     p.port = port;
 1261              		.loc 14 219 5 view .LVU321
 220:../../libDaisy//src/daisy_core.h ****     p.pin  = pin;
 1262              		.loc 14 220 5 view .LVU322
 221:../../libDaisy//src/daisy_core.h ****     return p;
 1263              		.loc 14 221 5 view .LVU323
 222:../../libDaisy//src/daisy_core.h **** }
 1264              		.loc 14 222 5 view .LVU324
 222:../../libDaisy//src/daisy_core.h **** }
 1265              		.loc 14 222 5 is_stmt 0 view .LVU325
 1266 0040 0323     		movs	r3, #3
 1267 0042 8DF80840 		strb	r4, [sp, #8]
 1268              		.loc 11 75 29 view .LVU326
 1269 0046 0DF12900 		add	r0, sp, #41
 1270 004a 8DF80930 		strb	r3, [sp, #9]
 1271              	.LVL74:
 1272              		.loc 11 75 29 view .LVU327
 1273 004e 0299     		ldr	r1, [sp, #8]
 1274 0050 FFF7FEFF 		bl	_ZN5daisy16AdcChannelConfig10InitSingleE12dsy_gpio_pin
 1275              	.LVL75:
  76:plinks.cpp    **** 	adc_config[pot3].InitSingle(A4);
 1276              		.loc 11 76 2 is_stmt 1 view .LVU328
 1277              	.LBB552:
 1278              	.LBI552:
 294:../../libDaisy//src/daisy_core.h ****     {
 1279              		.loc 14 294 5 view .LVU329
 1280              	.LBE552:
 1281              		.loc 14 296 9 view .LVU330
 1282              	.LBB554:
 1283              	.LBB553:
 1284              	.LBI553:
 217:../../libDaisy//src/daisy_core.h **** {
 1285              		.loc 14 217 27 view .LVU331
 1286              	.LBE553:
 1287              	.LBE554:
 219:../../libDaisy//src/daisy_core.h ****     p.port = port;
 1288              		.loc 14 219 5 view .LVU332
 220:../../libDaisy//src/daisy_core.h ****     p.pin  = pin;
 1289              		.loc 14 220 5 view .LVU333
ARM GAS  /var/folders/hl/qgbwny5j0fd895c2c41bk3tw0000gp/T//ccTphaKR.s 			page 47


 221:../../libDaisy//src/daisy_core.h ****     return p;
 1290              		.loc 14 221 5 view .LVU334
 222:../../libDaisy//src/daisy_core.h **** }
 1291              		.loc 14 222 5 view .LVU335
 222:../../libDaisy//src/daisy_core.h **** }
 1292              		.loc 14 222 5 is_stmt 0 view .LVU336
 1293 0054 0623     		movs	r3, #6
 1294 0056 8DF80C40 		strb	r4, [sp, #12]
 1295              		.loc 11 76 29 view .LVU337
 1296 005a 0DF13A00 		add	r0, sp, #58
 1297 005e 8DF80D30 		strb	r3, [sp, #13]
 1298              	.LVL76:
 1299              		.loc 11 76 29 view .LVU338
 1300 0062 0399     		ldr	r1, [sp, #12]
 1301 0064 FFF7FEFF 		bl	_ZN5daisy16AdcChannelConfig10InitSingleE12dsy_gpio_pin
 1302              	.LVL77:
  77:plinks.cpp    **** 	adc_config[pot4].InitSingle(A5);
 1303              		.loc 11 77 2 is_stmt 1 view .LVU339
 1304              	.LBB555:
 1305              	.LBI555:
 294:../../libDaisy//src/daisy_core.h ****     {
 1306              		.loc 14 294 5 view .LVU340
 1307              	.LBE555:
 1308              		.loc 14 296 9 view .LVU341
 1309              	.LBB557:
 1310              	.LBB556:
 1311              	.LBI556:
 217:../../libDaisy//src/daisy_core.h **** {
 1312              		.loc 14 217 27 view .LVU342
 1313              	.LBE556:
 1314              	.LBE557:
 219:../../libDaisy//src/daisy_core.h ****     p.port = port;
 1315              		.loc 14 219 5 view .LVU343
 220:../../libDaisy//src/daisy_core.h ****     p.pin  = pin;
 1316              		.loc 14 220 5 view .LVU344
 221:../../libDaisy//src/daisy_core.h ****     return p;
 1317              		.loc 14 221 5 view .LVU345
 222:../../libDaisy//src/daisy_core.h **** }
 1318              		.loc 14 222 5 view .LVU346
 222:../../libDaisy//src/daisy_core.h **** }
 1319              		.loc 14 222 5 is_stmt 0 view .LVU347
 1320 0068 8DF81060 		strb	r6, [sp, #16]
 1321 006c 8DF81150 		strb	r5, [sp, #17]
 1322              	.LVL78:
 1323              		.loc 11 77 29 view .LVU348
 1324 0070 0DF14B00 		add	r0, sp, #75
 1325 0074 0499     		ldr	r1, [sp, #16]
 1326 0076 FFF7FEFF 		bl	_ZN5daisy16AdcChannelConfig10InitSingleE12dsy_gpio_pin
 1327              	.LVL79:
  78:plinks.cpp    **** 	adc_config[pot5].InitSingle(A9);
 1328              		.loc 11 78 2 is_stmt 1 view .LVU349
 1329              	.LBB558:
 1330              	.LBI558:
 294:../../libDaisy//src/daisy_core.h ****     {
 1331              		.loc 14 294 5 view .LVU350
 1332              	.LBE558:
 1333              		.loc 14 296 9 view .LVU351
ARM GAS  /var/folders/hl/qgbwny5j0fd895c2c41bk3tw0000gp/T//ccTphaKR.s 			page 48


 1334              	.LBB560:
 1335              	.LBB559:
 1336              	.LBI559:
 217:../../libDaisy//src/daisy_core.h **** {
 1337              		.loc 14 217 27 view .LVU352
 1338              	.LBE559:
 1339              	.LBE560:
 219:../../libDaisy//src/daisy_core.h ****     p.port = port;
 1340              		.loc 14 219 5 view .LVU353
 220:../../libDaisy//src/daisy_core.h ****     p.pin  = pin;
 1341              		.loc 14 220 5 view .LVU354
 221:../../libDaisy//src/daisy_core.h ****     return p;
 1342              		.loc 14 221 5 view .LVU355
 222:../../libDaisy//src/daisy_core.h **** }
 1343              		.loc 14 222 5 view .LVU356
 222:../../libDaisy//src/daisy_core.h **** }
 1344              		.loc 14 222 5 is_stmt 0 view .LVU357
 1345 007a 8DF81440 		strb	r4, [sp, #20]
 1346 007e 8DF81550 		strb	r5, [sp, #21]
 1347              	.LVL80:
 1348              		.loc 11 78 29 view .LVU358
 1349 0082 17A8     		add	r0, sp, #92
 1350 0084 0599     		ldr	r1, [sp, #20]
 1351 0086 FFF7FEFF 		bl	_ZN5daisy16AdcChannelConfig10InitSingleE12dsy_gpio_pin
 1352              	.LVL81:
  79:plinks.cpp    **** 	hw.adc.Init(adc_config,NUM_ADC_CHANNELS);
 1353              		.loc 11 79 2 is_stmt 1 view .LVU359
 1354              		.loc 11 79 13 is_stmt 0 view .LVU360
 1355 008a 0423     		movs	r3, #4
 1356 008c 0522     		movs	r2, #5
 1357 008e 06A9     		add	r1, sp, #24
 1358 0090 2548     		ldr	r0, .L33+4
 1359 0092 FFF7FEFF 		bl	_ZN5daisy9AdcHandle4InitEPNS_16AdcChannelConfigEjNS0_12OverSamplingE
 1360              	.LVL82:
  80:plinks.cpp    **** 	hw.adc.Start();
 1361              		.loc 11 80 2 is_stmt 1 view .LVU361
 1362              		.loc 11 80 14 is_stmt 0 view .LVU362
 1363 0096 2448     		ldr	r0, .L33+4
 1364 0098 FFF7FEFF 		bl	_ZN5daisy9AdcHandle5StartEv
 1365              	.LVL83:
  81:plinks.cpp    **** 
  82:plinks.cpp    **** 	// pluck init 
  83:plinks.cpp    **** 	pp.Init(sample_rate);
 1366              		.loc 11 83 2 is_stmt 1 view .LVU363
 1367              	.LBB561:
 1368              	.LBI561:
  29:../../DaisySP//Source/PhysicalModeling/PolyPluck.h ****     {
 1369              		.loc 9 29 10 view .LVU364
 1370              	.LBB562:
  31:../../DaisySP//Source/PhysicalModeling/PolyPluck.h ****         p_damp_       = 0.95f;
 1371              		.loc 9 31 23 is_stmt 0 view .LVU365
 1372 009c 234B     		ldr	r3, .L33+8
 1373 009e 244D     		ldr	r5, .L33+12
  32:../../DaisySP//Source/PhysicalModeling/PolyPluck.h ****         p_decay_      = 0.75f;
 1374              		.loc 9 32 23 view .LVU366
 1375 00a0 03F28C62 		addw	r2, r3, #1676
 1376 00a4 2349     		ldr	r1, .L33+16
ARM GAS  /var/folders/hl/qgbwny5j0fd895c2c41bk3tw0000gp/T//ccTphaKR.s 			page 49


  31:../../DaisySP//Source/PhysicalModeling/PolyPluck.h ****         p_damp_       = 0.95f;
 1377              		.loc 9 31 23 view .LVU367
 1378 00a6 C3F89446 		str	r4, [r3, #1684]
 1379 00aa 2E46     		mov	r6, r5
  32:../../DaisySP//Source/PhysicalModeling/PolyPluck.h ****         p_decay_      = 0.75f;
 1380              		.loc 9 32 23 view .LVU368
 1381 00ac 1160     		str	r1, [r2]	@ float
 1382 00ae A5F5D064 		sub	r4, r5, #1664
  33:../../DaisySP//Source/PhysicalModeling/PolyPluck.h ****         for(size_t i = 0; i < num_voices; i++)
 1383              		.loc 9 33 23 view .LVU369
 1384 00b2 03F5D262 		add	r2, r3, #1680
 1385 00b6 4FF07D53 		mov	r3, #1061158912
 1386 00ba 1360     		str	r3, [r2]	@ float
 1387              	.LVL84:
 1388              	.LBB563:
  34:../../DaisySP//Source/PhysicalModeling/PolyPluck.h ****         {
 1389              		.loc 9 34 29 is_stmt 1 view .LVU370
 1390              	.L29:
  36:../../DaisySP//Source/PhysicalModeling/PolyPluck.h ****             plk_[i].SetDamp(0.85f);
 1391              		.loc 9 36 25 is_stmt 0 view .LVU371
 1392 00bc 2046     		mov	r0, r4
  34:../../DaisySP//Source/PhysicalModeling/PolyPluck.h ****         {
 1393              		.loc 9 34 29 view .LVU372
 1394 00be 3434     		adds	r4, r4, #52
  36:../../DaisySP//Source/PhysicalModeling/PolyPluck.h ****             plk_[i].SetDamp(0.85f);
 1395              		.loc 9 36 25 view .LVU373
 1396 00c0 2946     		mov	r1, r5
 1397 00c2 0023     		movs	r3, #0
 1398 00c4 4FF48072 		mov	r2, #256
 1399 00c8 B0EE480A 		vmov.f32	s0, s16
 1400 00cc FFF7FEFF 		bl	_ZN7daisysp5Pluck4InitEfPfll
 1401              	.LVL85:
 1402              	.LBB564:
 1403              	.LBI564:
 1404              		.loc 13 68 17 is_stmt 1 view .LVU374
 1405              	.LBB565:
 1406              		.loc 13 68 39 view .LVU375
 1407              		.loc 13 68 45 is_stmt 0 view .LVU376
 1408 00d0 194B     		ldr	r3, .L33+20
 1409              	.LBE565:
 1410              	.LBE564:
 1411              	.LBB567:
 1412              	.LBB568:
  56:../../DaisySP//Source/PhysicalModeling/pluck.h ****     /** Sets the frequency of the output signal in Hz.
 1413              		.loc 13 56 42 view .LVU377
 1414 00d2 1A4A     		ldr	r2, .L33+24
 1415              	.LBE568:
 1416              	.LBE567:
  34:../../DaisySP//Source/PhysicalModeling/PolyPluck.h ****         {
 1417              		.loc 9 34 29 view .LVU378
 1418 00d4 B442     		cmp	r4, r6
 1419 00d6 05F58065 		add	r5, r5, #1024
 1420              	.LBB571:
 1421              	.LBB566:
 1422              		.loc 13 68 45 view .LVU379
 1423 00da 44F8283C 		str	r3, [r4, #-40]	@ float
 1424              	.LVL86:
ARM GAS  /var/folders/hl/qgbwny5j0fd895c2c41bk3tw0000gp/T//ccTphaKR.s 			page 50


 1425              		.loc 13 68 45 view .LVU380
 1426              	.LBE566:
 1427              	.LBE571:
 1428              	.LBB572:
 1429              	.LBI567:
  56:../../DaisySP//Source/PhysicalModeling/pluck.h ****     /** Sets the frequency of the output signal in Hz.
 1430              		.loc 13 56 17 is_stmt 1 view .LVU381
 1431              	.LBB569:
  56:../../DaisySP//Source/PhysicalModeling/pluck.h ****     /** Sets the frequency of the output signal in Hz.
 1432              		.loc 13 56 37 view .LVU382
 1433              	.LBE569:
 1434              	.LBE572:
 1435              	.LBB573:
 1436              	.LBB574:
  64:../../DaisySP//Source/PhysicalModeling/pluck.h ****     /** Sets the dampening factor applied by the filter (based on PLUCK_MODE)
 1437              		.loc 13 64 48 is_stmt 0 view .LVU383
 1438 00de 44F82C3C 		str	r3, [r4, #-44]	@ float
 1439              	.LBE574:
 1440              	.LBE573:
 1441              	.LBB576:
 1442              	.LBB570:
  56:../../DaisySP//Source/PhysicalModeling/pluck.h ****     /** Sets the frequency of the output signal in Hz.
 1443              		.loc 13 56 42 view .LVU384
 1444 00e2 44F8342C 		str	r2, [r4, #-52]	@ float
 1445              	.LVL87:
  56:../../DaisySP//Source/PhysicalModeling/pluck.h ****     /** Sets the frequency of the output signal in Hz.
 1446              		.loc 13 56 42 view .LVU385
 1447              	.LBE570:
 1448              	.LBE576:
 1449              	.LBB577:
 1450              	.LBI573:
  64:../../DaisySP//Source/PhysicalModeling/pluck.h ****     /** Sets the dampening factor applied by the filter (based on PLUCK_MODE)
 1451              		.loc 13 64 17 is_stmt 1 view .LVU386
 1452              	.LBB575:
  64:../../DaisySP//Source/PhysicalModeling/pluck.h ****     /** Sets the dampening factor applied by the filter (based on PLUCK_MODE)
 1453              		.loc 13 64 41 view .LVU387
  64:../../DaisySP//Source/PhysicalModeling/pluck.h ****     /** Sets the dampening factor applied by the filter (based on PLUCK_MODE)
 1454              		.loc 13 64 41 is_stmt 0 view .LVU388
 1455              	.LBE575:
 1456              	.LBE577:
  34:../../DaisySP//Source/PhysicalModeling/PolyPluck.h ****         {
 1457              		.loc 9 34 9 is_stmt 1 view .LVU389
  34:../../DaisySP//Source/PhysicalModeling/PolyPluck.h ****         {
 1458              		.loc 9 34 29 view .LVU390
 1459 00e6 E9D1     		bne	.L29
 1460              	.LBE563:
  41:../../DaisySP//Source/PhysicalModeling/PolyPluck.h ****     }
 1461              		.loc 9 41 18 is_stmt 0 view .LVU391
 1462 00e8 B0EE480A 		vmov.f32	s0, s16
 1463 00ec 1448     		ldr	r0, .L33+28
 1464 00ee FFF7FEFF 		bl	_ZN7daisysp7DcBlock4InitEf
 1465              	.LVL88:
  41:../../DaisySP//Source/PhysicalModeling/PolyPluck.h ****     }
 1466              		.loc 9 41 18 view .LVU392
 1467              	.LBE562:
 1468              	.LBE561:
  84:plinks.cpp    **** 
ARM GAS  /var/folders/hl/qgbwny5j0fd895c2c41bk3tw0000gp/T//ccTphaKR.s 			page 51


  85:plinks.cpp    **** 	// reverb init
  86:plinks.cpp    **** 	rv.Init(sample_rate);
 1469              		.loc 11 86 2 is_stmt 1 view .LVU393
  87:plinks.cpp    **** 
  88:plinks.cpp    **** 	// metro init 
  89:plinks.cpp    **** 	tick.Init(5.f, sample_rate);
  90:plinks.cpp    **** 
  91:plinks.cpp    **** 	// filter 
  92:plinks.cpp    ****     ladder.Init(sample_rate);
 1470              		.loc 11 92 16 is_stmt 0 view .LVU394
 1471 00f2 144C     		ldr	r4, .L33+32
  86:plinks.cpp    **** 
 1472              		.loc 11 86 9 view .LVU395
 1473 00f4 B0EE480A 		vmov.f32	s0, s16
 1474 00f8 1348     		ldr	r0, .L33+36
 1475 00fa FFF7FEFF 		bl	_ZN7daisysp8ReverbSc4InitEf
 1476              	.LVL89:
  89:plinks.cpp    **** 
 1477              		.loc 11 89 2 is_stmt 1 view .LVU396
  89:plinks.cpp    **** 
 1478              		.loc 11 89 11 is_stmt 0 view .LVU397
 1479 00fe F0EE480A 		vmov.f32	s1, s16
 1480 0102 B1EE040A 		vmov.f32	s0, #5.0e+0
 1481 0106 1148     		ldr	r0, .L33+40
 1482 0108 FFF7FEFF 		bl	_ZN7daisysp5Metro4InitEff
 1483              	.LVL90:
 1484              		.loc 11 92 5 is_stmt 1 view .LVU398
 1485              		.loc 11 92 16 is_stmt 0 view .LVU399
 1486 010c 2046     		mov	r0, r4
 1487 010e B0EE480A 		vmov.f32	s0, s16
 1488 0112 FFF7FEFF 		bl	_ZN7daisysp10MoogLadder4InitEf
 1489              	.LVL91:
  93:plinks.cpp    ****     ladder.SetRes(0.4);
 1490              		.loc 11 93 5 is_stmt 1 view .LVU400
 1491              	.LBB578:
 1492              	.LBI578:
  38:../../DaisySP//Source/Filters/moogladder.h ****     /** 
  39:../../DaisySP//Source/Filters/moogladder.h ****         Sets the resonance of the filter.
  40:../../DaisySP//Source/Filters/moogladder.h ****     */
  41:../../DaisySP//Source/Filters/moogladder.h ****     inline void SetRes(float res) { res_ = res; }
 1493              		.loc 7 41 17 view .LVU401
 1494              	.LBB579:
 1495              		.loc 7 41 37 view .LVU402
 1496              		.loc 7 41 42 is_stmt 0 view .LVU403
 1497 0116 0E4B     		ldr	r3, .L33+44
 1498              	.LBE579:
 1499              	.LBE578:
  94:plinks.cpp    **** 
  95:plinks.cpp    **** 	hw.StartAudio(AudioCallback);
 1500              		.loc 11 95 15 view .LVU404
 1501 0118 0E49     		ldr	r1, .L33+48
 1502 011a 0248     		ldr	r0, .L33
 1503              	.LBB581:
 1504              	.LBB580:
 1505              		.loc 7 41 42 view .LVU405
 1506 011c 6360     		str	r3, [r4, #4]	@ float
 1507              	.LVL92:
ARM GAS  /var/folders/hl/qgbwny5j0fd895c2c41bk3tw0000gp/T//ccTphaKR.s 			page 52


 1508              		.loc 7 41 42 view .LVU406
 1509              	.LBE580:
 1510              	.LBE581:
 1511              		.loc 11 95 2 is_stmt 1 view .LVU407
 1512              		.loc 11 95 15 is_stmt 0 view .LVU408
 1513 011e FFF7FEFF 		bl	_ZN5daisy9DaisySeed10StartAudioEPFvPKPKfPPfjE
 1514              	.LVL93:
 1515              	.L30:
  96:plinks.cpp    **** 	while(1) {}
 1516              		.loc 11 96 2 is_stmt 1 discriminator 1 view .LVU409
 1517              		.loc 11 96 2 discriminator 1 view .LVU410
 1518              		.loc 11 96 2 discriminator 1 view .LVU411
 1519              		.loc 11 96 2 discriminator 1 view .LVU412
 1520 0122 FEE7     		b	.L30
 1521              	.L34:
 1522              		.align	2
 1523              	.L33:
 1524 0124 00000000 		.word	.LANCHOR0
 1525 0128 18000000 		.word	.LANCHOR0+24
 1526 012c 00800000 		.word	pp+32768
 1527 0130 8C060000 		.word	pp+1676
 1528 0134 3333733F 		.word	1064514355
 1529 0138 9A99593F 		.word	1062836634
 1530 013c EC51383E 		.word	1043878380
 1531 0140 00000000 		.word	pp
 1532 0144 00000000 		.word	.LANCHOR2
 1533 0148 00000000 		.word	rv
 1534 014c 00000000 		.word	.LANCHOR1
 1535 0150 CDCCCC3E 		.word	1053609165
 1536 0154 00000000 		.word	_Z13AudioCallbackPKPKfPPfj
 1537              		.cfi_endproc
 1538              	.LFE4793:
 1540              		.section	.text.startup._GLOBAL__sub_I_hw,"ax",%progbits
 1541              		.align	1
 1542              		.p2align 2,,3
 1543              		.syntax unified
 1544              		.thumb
 1545              		.thumb_func
 1546              		.fpu fpv5-d16
 1548              	_GLOBAL__sub_I_hw:
 1549              	.LFB5359:
  97:plinks.cpp    **** }
 1550              		.loc 11 97 1 view -0
 1551              		.cfi_startproc
 1552              		@ args = 0, pretend = 0, frame = 0
 1553              		@ frame_needed = 0, uses_anonymous_args = 0
 1554              	.LBB610:
 1555              	.LBI610:
 1556              		.loc 11 97 1 view .LVU414
 1557              	.LVL94:
 1558              	.LBB611:
 1559              	.LBB612:
 1560              	.LBI612:
  21:../../libDaisy//src/daisy_seed.h ****     ~DaisySeed() {}
 1561              		.loc 1 21 5 view .LVU415
 1562              	.LBB613:
 1563              	.LBB614:
ARM GAS  /var/folders/hl/qgbwny5j0fd895c2c41bk3tw0000gp/T//ccTphaKR.s 			page 53


 1564              	.LBI614:
 1565              		.file 15 "../../libDaisy//src/per/qspi.h"
   1:../../libDaisy//src/per/qspi.h **** #ifndef DSY_QSPI
   2:../../libDaisy//src/per/qspi.h **** #define DSY_QSPI /**< Macro */
   3:../../libDaisy//src/per/qspi.h **** 
   4:../../libDaisy//src/per/qspi.h **** #ifndef UNIT_TEST // for unit tests, a dummy implementation
   5:../../libDaisy//src/per/qspi.h **** 
   6:../../libDaisy//src/per/qspi.h **** #include <cstdint>
   7:../../libDaisy//src/per/qspi.h **** #include "daisy_core.h" // Added for dsy_gpio_pin typedef
   8:../../libDaisy//src/per/qspi.h **** 
   9:../../libDaisy//src/per/qspi.h **** #define DSY_QSPI_TEXT       \
  10:../../libDaisy//src/per/qspi.h ****     __attribute__((section( \
  11:../../libDaisy//src/per/qspi.h ****         ".qspiflash_text"))) /**< used for reading memory in memory_mapped mode. */
  12:../../libDaisy//src/per/qspi.h **** #define DSY_QSPI_DATA       \
  13:../../libDaisy//src/per/qspi.h ****     __attribute__((section( \
  14:../../libDaisy//src/per/qspi.h ****         ".qspiflash_data"))) /**< used for reading memory in memory_mapped mode. */
  15:../../libDaisy//src/per/qspi.h **** #define DSY_QSPI_BSS        \
  16:../../libDaisy//src/per/qspi.h ****     __attribute__((section( \
  17:../../libDaisy//src/per/qspi.h ****         ".qspiflash_bss"))) /**< used for reading memory in memory_mapped mode. */
  18:../../libDaisy//src/per/qspi.h **** 
  19:../../libDaisy//src/per/qspi.h **** namespace daisy
  20:../../libDaisy//src/per/qspi.h **** {
  21:../../libDaisy//src/per/qspi.h **** /** @addtogroup serial
  22:../../libDaisy//src/per/qspi.h **** @{
  23:../../libDaisy//src/per/qspi.h **** */
  24:../../libDaisy//src/per/qspi.h **** 
  25:../../libDaisy//src/per/qspi.h **** /** 
  26:../../libDaisy//src/per/qspi.h ****  Driver for QSPI peripheral to interface with external flash memory. \n 
  27:../../libDaisy//src/per/qspi.h ****     Currently supported QSPI Devices: \n 
  28:../../libDaisy//src/per/qspi.h ****     * IS25LP080D
  29:../../libDaisy//src/per/qspi.h **** */
  30:../../libDaisy//src/per/qspi.h **** class QSPIHandle
  31:../../libDaisy//src/per/qspi.h **** {
  32:../../libDaisy//src/per/qspi.h ****   public:
  33:../../libDaisy//src/per/qspi.h ****     enum Result
  34:../../libDaisy//src/per/qspi.h ****     {
  35:../../libDaisy//src/per/qspi.h ****         OK = 0,
  36:../../libDaisy//src/per/qspi.h ****         ERR
  37:../../libDaisy//src/per/qspi.h ****     };
  38:../../libDaisy//src/per/qspi.h **** 
  39:../../libDaisy//src/per/qspi.h ****     /** Indicates the current status of the module. 
  40:../../libDaisy//src/per/qspi.h ****          *  Warnings are indicated by a leading W.
  41:../../libDaisy//src/per/qspi.h ****          *  Errors are indicated by a leading E and cause an immediate exit.
  42:../../libDaisy//src/per/qspi.h ****          * 
  43:../../libDaisy//src/per/qspi.h ****          *  \param GOOD - No errors have been reported.
  44:../../libDaisy//src/per/qspi.h ****          *  \param E_HAL_ERROR - HAL code did not return HAL_OK.
  45:../../libDaisy//src/per/qspi.h ****          *  \param E_SWITCHING_MODES - An error was encountered while switching QSPI peripheral mod
  46:../../libDaisy//src/per/qspi.h ****          *  \param E_INVALID_MODE - QSPI should not be written to while the program is executing fr
  47:../../libDaisy//src/per/qspi.h ****          */
  48:../../libDaisy//src/per/qspi.h ****     enum Status
  49:../../libDaisy//src/per/qspi.h ****     {
  50:../../libDaisy//src/per/qspi.h ****         GOOD = 0,
  51:../../libDaisy//src/per/qspi.h ****         E_HAL_ERROR,
  52:../../libDaisy//src/per/qspi.h ****         E_SWITCHING_MODES,
  53:../../libDaisy//src/per/qspi.h ****         E_INVALID_MODE,
  54:../../libDaisy//src/per/qspi.h ****     };
  55:../../libDaisy//src/per/qspi.h **** 
ARM GAS  /var/folders/hl/qgbwny5j0fd895c2c41bk3tw0000gp/T//ccTphaKR.s 			page 54


  56:../../libDaisy//src/per/qspi.h ****     /** Configuration structure for interfacing with QSPI Driver */
  57:../../libDaisy//src/per/qspi.h ****     struct Config
  58:../../libDaisy//src/per/qspi.h ****     {
  59:../../libDaisy//src/per/qspi.h ****         /** Flash Devices supported. (Both of these are more-or-less the same, just different sizes
  60:../../libDaisy//src/per/qspi.h ****         enum Device
  61:../../libDaisy//src/per/qspi.h ****         {
  62:../../libDaisy//src/per/qspi.h ****             IS25LP080D,  /**< & */
  63:../../libDaisy//src/per/qspi.h ****             IS25LP064A,  /**< & */
  64:../../libDaisy//src/per/qspi.h ****             DEVICE_LAST, /**< & */
  65:../../libDaisy//src/per/qspi.h ****         };
  66:../../libDaisy//src/per/qspi.h **** 
  67:../../libDaisy//src/per/qspi.h ****         /** 
  68:../../libDaisy//src/per/qspi.h ****         Modes of operation.
  69:../../libDaisy//src/per/qspi.h ****         Memory Mapped mode: QSPI configured so that the QSPI can be
  70:../../libDaisy//src/per/qspi.h ****         read from starting address 0x90000000. Writing is not
  71:../../libDaisy//src/per/qspi.h ****         possible in this mode. \n 
  72:../../libDaisy//src/per/qspi.h ****         Indirect Polling mode: Device driver enabled. 
  73:../../libDaisy//src/per/qspi.h ****         */
  74:../../libDaisy//src/per/qspi.h ****         enum Mode
  75:../../libDaisy//src/per/qspi.h ****         {
  76:../../libDaisy//src/per/qspi.h ****             MEMORY_MAPPED,    /**< & */
  77:../../libDaisy//src/per/qspi.h ****             INDIRECT_POLLING, /**< & */
  78:../../libDaisy//src/per/qspi.h ****             MODE_LAST,
  79:../../libDaisy//src/per/qspi.h ****         };
  80:../../libDaisy//src/per/qspi.h **** 
  81:../../libDaisy//src/per/qspi.h ****         //SCK,  CE# (active low)
  82:../../libDaisy//src/per/qspi.h ****         struct
  83:../../libDaisy//src/per/qspi.h ****         {
  84:../../libDaisy//src/per/qspi.h ****             dsy_gpio_pin io0; /**< & */
  85:../../libDaisy//src/per/qspi.h ****             dsy_gpio_pin io1; /**< & */
  86:../../libDaisy//src/per/qspi.h ****             dsy_gpio_pin io2; /**< & */
  87:../../libDaisy//src/per/qspi.h ****             dsy_gpio_pin io3; /**< & */
  88:../../libDaisy//src/per/qspi.h ****             dsy_gpio_pin clk; /**< & */
  89:../../libDaisy//src/per/qspi.h ****             dsy_gpio_pin ncs; /**< & */
  90:../../libDaisy//src/per/qspi.h ****         } pin_config;
  91:../../libDaisy//src/per/qspi.h **** 
  92:../../libDaisy//src/per/qspi.h ****         Device device;
  93:../../libDaisy//src/per/qspi.h ****         Mode   mode;
  94:../../libDaisy//src/per/qspi.h ****     };
  95:../../libDaisy//src/per/qspi.h **** 
  96:../../libDaisy//src/per/qspi.h ****     /** 
  97:../../libDaisy//src/per/qspi.h ****         Initializes QSPI peripheral, and Resets, and prepares memory for access.
  98:../../libDaisy//src/per/qspi.h ****         \param config should be populated with the mode, device and pin_config before calling this 
  99:../../libDaisy//src/per/qspi.h ****         \return Result::OK or Result::ERR
 100:../../libDaisy//src/per/qspi.h ****         */
 101:../../libDaisy//src/per/qspi.h ****     Result Init(const Config& config);
 102:../../libDaisy//src/per/qspi.h **** 
 103:../../libDaisy//src/per/qspi.h ****     /** Returns the current config. */
 104:../../libDaisy//src/per/qspi.h ****     const Config& GetConfig() const;
 105:../../libDaisy//src/per/qspi.h **** 
 106:../../libDaisy//src/per/qspi.h ****     // Couldn't this just be called before anything else in init? That
 107:../../libDaisy//src/per/qspi.h ****     // would make manually calling it unnecessary.
 108:../../libDaisy//src/per/qspi.h ****     /** 
 109:../../libDaisy//src/per/qspi.h ****         Deinitializes the peripheral
 110:../../libDaisy//src/per/qspi.h ****         This should be called before reinitializing QSPI in a different mode.
 111:../../libDaisy//src/per/qspi.h ****         \return Result::OK or Result::ERR
 112:../../libDaisy//src/per/qspi.h ****         */
ARM GAS  /var/folders/hl/qgbwny5j0fd895c2c41bk3tw0000gp/T//ccTphaKR.s 			page 55


 113:../../libDaisy//src/per/qspi.h ****     Result DeInit();
 114:../../libDaisy//src/per/qspi.h **** 
 115:../../libDaisy//src/per/qspi.h ****     /** 
 116:../../libDaisy//src/per/qspi.h ****         Writes a single page to to the specified address on the QSPI chip.
 117:../../libDaisy//src/per/qspi.h ****         For IS25LP*, page size is 256 bytes.
 118:../../libDaisy//src/per/qspi.h ****         \param address Address to write to
 119:../../libDaisy//src/per/qspi.h ****         \param size Buffer size
 120:../../libDaisy//src/per/qspi.h ****         \param buffer Buffer to write
 121:../../libDaisy//src/per/qspi.h ****         \return Result::OK or Result::ERR
 122:../../libDaisy//src/per/qspi.h ****         */
 123:../../libDaisy//src/per/qspi.h ****     Result WritePage(uint32_t address, uint32_t size, uint8_t* buffer);
 124:../../libDaisy//src/per/qspi.h **** 
 125:../../libDaisy//src/per/qspi.h ****     /** 
 126:../../libDaisy//src/per/qspi.h ****         Writes data in buffer to to the QSPI. Starting at address to address+size 
 127:../../libDaisy//src/per/qspi.h ****         \param address Address to write to
 128:../../libDaisy//src/per/qspi.h ****         \param size Buffer size
 129:../../libDaisy//src/per/qspi.h ****         \param buffer Buffer to write
 130:../../libDaisy//src/per/qspi.h ****         \return Result::OK or Result::ERR
 131:../../libDaisy//src/per/qspi.h ****         */
 132:../../libDaisy//src/per/qspi.h ****     Result Write(uint32_t address, uint32_t size, uint8_t* buffer);
 133:../../libDaisy//src/per/qspi.h **** 
 134:../../libDaisy//src/per/qspi.h ****     /** 
 135:../../libDaisy//src/per/qspi.h ****         Erases the area specified on the chip.
 136:../../libDaisy//src/per/qspi.h ****         Erasures will happen by 4K, 32K or 64K increments.
 137:../../libDaisy//src/per/qspi.h ****         Smallest erase possible is 4kB at a time. (on IS25LP*)
 138:../../libDaisy//src/per/qspi.h ****         \param start_addr Address to begin erasing from
 139:../../libDaisy//src/per/qspi.h ****         \param end_addr  Address to stop erasing at
 140:../../libDaisy//src/per/qspi.h ****         \return Result::OK or Result::ERR
 141:../../libDaisy//src/per/qspi.h ****         */
 142:../../libDaisy//src/per/qspi.h ****     Result Erase(uint32_t start_addr, uint32_t end_addr);
 143:../../libDaisy//src/per/qspi.h **** 
 144:../../libDaisy//src/per/qspi.h ****     /**  
 145:../../libDaisy//src/per/qspi.h ****          Erases a single sector of the chip.  
 146:../../libDaisy//src/per/qspi.h ****         TODO: Document the size of this function. 
 147:../../libDaisy//src/per/qspi.h ****         \param address Address of sector to erase
 148:../../libDaisy//src/per/qspi.h ****         \return Result::OK or Result::ERR
 149:../../libDaisy//src/per/qspi.h ****         */
 150:../../libDaisy//src/per/qspi.h ****     Result EraseSector(uint32_t address);
 151:../../libDaisy//src/per/qspi.h **** 
 152:../../libDaisy//src/per/qspi.h ****     /** Returns the current class status. Useful for debugging.
 153:../../libDaisy//src/per/qspi.h ****      *  \returns Status
 154:../../libDaisy//src/per/qspi.h ****      */
 155:../../libDaisy//src/per/qspi.h ****     Status GetStatus();
 156:../../libDaisy//src/per/qspi.h **** 
 157:../../libDaisy//src/per/qspi.h ****     /** Returns a pointer to the actual memory used 
 158:../../libDaisy//src/per/qspi.h ****      *  The memory at this address is read-only
 159:../../libDaisy//src/per/qspi.h ****      *  to write to it use the Write function.
 160:../../libDaisy//src/per/qspi.h ****      * 
 161:../../libDaisy//src/per/qspi.h ****      *  \param offset returns the pointer starting this 
 162:../../libDaisy//src/per/qspi.h ****      *                many bytes into the memory
 163:../../libDaisy//src/per/qspi.h ****     */
 164:../../libDaisy//src/per/qspi.h ****     void* GetData(uint32_t offset = 0);
 165:../../libDaisy//src/per/qspi.h **** 
 166:../../libDaisy//src/per/qspi.h ****     QSPIHandle() : pimpl_(nullptr) {}
 1566              		.loc 15 166 5 view .LVU416
 1567              	.LBE614:
 1568              	.LBE613:
ARM GAS  /var/folders/hl/qgbwny5j0fd895c2c41bk3tw0000gp/T//ccTphaKR.s 			page 56


 1569              	.LBE612:
 1570              	.LBE611:
 1571              	.LBE610:
 1572              		.loc 11 97 1 is_stmt 0 view .LVU417
 1573 0000 08B5     		push	{r3, lr}
 1574              		.cfi_def_cfa_offset 8
 1575              		.cfi_offset 3, -8
 1576              		.cfi_offset 14, -4
 1577              	.LBB642:
 1578              	.LBB639:
 1579              	.LBB632:
 1580              	.LBB630:
 1581              	.LBB619:
 1582              	.LBB615:
 1583              	.LBB616:
 1584              		.loc 15 166 34 view .LVU418
 1585 0002 0F48     		ldr	r0, .L37
 1586 0004 0023     		movs	r3, #0
 1587              	.LBE616:
 1588              	.LBE615:
 1589              	.LBE619:
 1590              	.LBE630:
 1591              	.LBE632:
   8:plinks.cpp    **** PolyPluck<32>	pp;
 1592              		.loc 11 8 12 view .LVU419
 1593 0006 0F4A     		ldr	r2, .L37+4
 1594              	.LBB633:
 1595              	.LBB631:
 1596              	.LBB620:
 1597              	.LBB618:
 1598              	.LBB617:
 1599              		.loc 15 166 34 view .LVU420
 1600 0008 0360     		str	r3, [r0]
 1601              	.LVL95:
 1602              		.loc 15 166 34 view .LVU421
 1603              	.LBE617:
 1604              	.LBE618:
 1605              	.LBE620:
 1606              	.LBB621:
 1607              	.LBI621:
  95:../../libDaisy//src/hid/audio.h ****     ~AudioHandle() {}
 1608              		.loc 5 95 5 is_stmt 1 view .LVU422
 1609              	.LBB622:
 1610              	.LBB623:
  95:../../libDaisy//src/hid/audio.h ****     ~AudioHandle() {}
 1611              		.loc 5 95 35 is_stmt 0 view .LVU423
 1612 000a 4361     		str	r3, [r0, #20]
 1613              	.LVL96:
  95:../../libDaisy//src/hid/audio.h ****     ~AudioHandle() {}
 1614              		.loc 5 95 35 view .LVU424
 1615              	.LBE623:
 1616              	.LBE622:
 1617              	.LBE621:
 1618              	.LBB624:
 1619              	.LBI624:
  92:../../libDaisy//src/per/adc.h ****     ~AdcHandle() {}
 1620              		.loc 4 92 5 is_stmt 1 view .LVU425
ARM GAS  /var/folders/hl/qgbwny5j0fd895c2c41bk3tw0000gp/T//ccTphaKR.s 			page 57


  92:../../libDaisy//src/per/adc.h ****     ~AdcHandle() {}
 1621              		.loc 4 92 5 is_stmt 0 view .LVU426
 1622              	.LBE624:
 1623              	.LBB625:
 1624              	.LBI625:
 1625              		.file 16 "../../libDaisy//src/per/dac.h"
   1:../../libDaisy//src/per/dac.h **** #pragma once
   2:../../libDaisy//src/per/dac.h **** #ifndef DSY_DAC_H
   3:../../libDaisy//src/per/dac.h **** #define DSY_DAC_H
   4:../../libDaisy//src/per/dac.h **** 
   5:../../libDaisy//src/per/dac.h **** #include "daisy_core.h"
   6:../../libDaisy//src/per/dac.h **** 
   7:../../libDaisy//src/per/dac.h **** namespace daisy
   8:../../libDaisy//src/per/dac.h **** {
   9:../../libDaisy//src/per/dac.h **** /** @brief DAC handle for Built-in DAC Peripheral 
  10:../../libDaisy//src/per/dac.h ****  *  @ingroup per_analog
  11:../../libDaisy//src/per/dac.h ****  ** 
  12:../../libDaisy//src/per/dac.h ****  ** For now only Normal Mode is supported,
  13:../../libDaisy//src/per/dac.h ****  ** Sample and hold mode provides reduced power consumption, but requires a bit more setup.
  14:../../libDaisy//src/per/dac.h ****  **
  15:../../libDaisy//src/per/dac.h ****  ** For now connecting the DAC through other internal peripherals is also not supported.
  16:../../libDaisy//src/per/dac.h ****  **
  17:../../libDaisy//src/per/dac.h ****  ** Since the DAC channels have dedicated pins we don't need to pass in a pin config like with
  18:../../libDaisy//src/per/dac.h ****  ** other modules. However, it is still important to not try to use the DAC pins for anything else.
  19:../../libDaisy//src/per/dac.h ****  ** DAC Channel 1 is on PA4, and DAC Channel 2 is on PA5
  20:../../libDaisy//src/per/dac.h ****  ***/
  21:../../libDaisy//src/per/dac.h **** class DacHandle
  22:../../libDaisy//src/per/dac.h **** {
  23:../../libDaisy//src/per/dac.h ****   public:
  24:../../libDaisy//src/per/dac.h ****     /** Return Values for the DacHandle class */
  25:../../libDaisy//src/per/dac.h ****     enum class Result
  26:../../libDaisy//src/per/dac.h ****     {
  27:../../libDaisy//src/per/dac.h ****         OK,
  28:../../libDaisy//src/per/dac.h ****         ERR,
  29:../../libDaisy//src/per/dac.h ****     };
  30:../../libDaisy//src/per/dac.h **** 
  31:../../libDaisy//src/per/dac.h ****     /** Selects which channel(s) will be configured for use. */
  32:../../libDaisy//src/per/dac.h ****     enum class Channel
  33:../../libDaisy//src/per/dac.h ****     {
  34:../../libDaisy//src/per/dac.h ****         ONE,
  35:../../libDaisy//src/per/dac.h ****         TWO,
  36:../../libDaisy//src/per/dac.h ****         BOTH,
  37:../../libDaisy//src/per/dac.h ****     };
  38:../../libDaisy//src/per/dac.h **** 
  39:../../libDaisy//src/per/dac.h ****     /** Sets the Mode for the DAC channels.
  40:../../libDaisy//src/per/dac.h ****      **
  41:../../libDaisy//src/per/dac.h ****      ** Polling mode uses the blocking mode to transmit a single value at a time.
  42:../../libDaisy//src/per/dac.h ****      **
  43:../../libDaisy//src/per/dac.h ****      ** DMA mode uses a buffer, and periodically transmits it triggering a 
  44:../../libDaisy//src/per/dac.h ****      ** callback to fill the buffer when it is ready for more samples.
  45:../../libDaisy//src/per/dac.h ****      ***/
  46:../../libDaisy//src/per/dac.h ****     enum class Mode
  47:../../libDaisy//src/per/dac.h ****     {
  48:../../libDaisy//src/per/dac.h ****         POLLING,
  49:../../libDaisy//src/per/dac.h ****         DMA,
  50:../../libDaisy//src/per/dac.h ****     };
  51:../../libDaisy//src/per/dac.h **** 
ARM GAS  /var/folders/hl/qgbwny5j0fd895c2c41bk3tw0000gp/T//ccTphaKR.s 			page 58


  52:../../libDaisy//src/per/dac.h ****     /** Sets the number of bits per sample transmitted out of the DAC.
  53:../../libDaisy//src/per/dac.h ****      ** The output range will be: 0V - VDDA
  54:../../libDaisy//src/per/dac.h ****      ** The resolution will be roughly: bitdepth / (VDDA - 0V) 
  55:../../libDaisy//src/per/dac.h ****      ***/
  56:../../libDaisy//src/per/dac.h ****     enum class BitDepth
  57:../../libDaisy//src/per/dac.h ****     {
  58:../../libDaisy//src/per/dac.h ****         BITS_8,
  59:../../libDaisy//src/per/dac.h ****         BITS_12
  60:../../libDaisy//src/per/dac.h ****     };
  61:../../libDaisy//src/per/dac.h **** 
  62:../../libDaisy//src/per/dac.h ****     /** Sets whether the DAC output is buffered for higher drive ability. */
  63:../../libDaisy//src/per/dac.h ****     enum class BufferState
  64:../../libDaisy//src/per/dac.h ****     {
  65:../../libDaisy//src/per/dac.h ****         ENABLED,
  66:../../libDaisy//src/per/dac.h ****         DISABLED,
  67:../../libDaisy//src/per/dac.h ****     };
  68:../../libDaisy//src/per/dac.h **** 
  69:../../libDaisy//src/per/dac.h ****     /** Configuration structure for initializing the DAC structure. */
  70:../../libDaisy//src/per/dac.h ****     struct Config
  71:../../libDaisy//src/per/dac.h ****     {
  72:../../libDaisy//src/per/dac.h ****         /** Target Samplerate in Hz used to configure the internal 
  73:../../libDaisy//src/per/dac.h ****          ** timebase for DMA mode. Does nothing in POLLING mode.
  74:../../libDaisy//src/per/dac.h ****          ** If the value is 0 at Init time this will default to 48000Hz 
  75:../../libDaisy//src/per/dac.h ****          ** otherwise the driver will attempt meet the target.*/
  76:../../libDaisy//src/per/dac.h ****         uint32_t target_samplerate;
  77:../../libDaisy//src/per/dac.h **** 
  78:../../libDaisy//src/per/dac.h ****         Channel     chn;
  79:../../libDaisy//src/per/dac.h ****         Mode        mode;
  80:../../libDaisy//src/per/dac.h ****         BitDepth    bitdepth;
  81:../../libDaisy//src/per/dac.h ****         BufferState buff_state;
  82:../../libDaisy//src/per/dac.h ****     };
  83:../../libDaisy//src/per/dac.h **** 
  84:../../libDaisy//src/per/dac.h ****     DacHandle() : pimpl_(nullptr) {}
 1626              		.loc 16 84 5 is_stmt 1 view .LVU427
 1627              	.LBB626:
 1628              	.LBB627:
 1629              		.loc 16 84 33 is_stmt 0 view .LVU428
 1630 000c 0362     		str	r3, [r0, #32]
 1631              	.LVL97:
 1632              		.loc 16 84 33 view .LVU429
 1633              	.LBE627:
 1634              	.LBE626:
 1635              	.LBE625:
 1636              	.LBB628:
 1637              	.LBI628:
  40:../../libDaisy//src/hid/usb.h **** 
 1638              		.loc 3 40 5 is_stmt 1 view .LVU430
  40:../../libDaisy//src/hid/usb.h **** 
 1639              		.loc 3 40 5 is_stmt 0 view .LVU431
 1640              	.LBE628:
 1641              	.LBB629:
 1642              	.LBI629:
  77:../../libDaisy//src/sys/system.h ****     ~System() {}
 1643              		.loc 2 77 5 is_stmt 1 view .LVU432
  77:../../libDaisy//src/sys/system.h ****     ~System() {}
 1644              		.loc 2 77 5 is_stmt 0 view .LVU433
 1645              	.LBE629:
ARM GAS  /var/folders/hl/qgbwny5j0fd895c2c41bk3tw0000gp/T//ccTphaKR.s 			page 59


 1646              	.LBE631:
 1647              	.LBE633:
   8:plinks.cpp    **** PolyPluck<32>	pp;
 1648              		.loc 11 8 12 view .LVU434
 1649 000e 0E49     		ldr	r1, .L37+8
 1650 0010 FFF7FEFF 		bl	__aeabi_atexit
 1651              	.LVL98:
 1652              	.LBB634:
 1653              	.LBI634:
  23:../../DaisySP//Source/PhysicalModeling/PolyPluck.h **** {
 1654              		.loc 9 23 7 is_stmt 1 view .LVU435
 1655              	.LBB635:
 1656              	.LBI635:
  14:../../DaisySP//Source/Utility/dcblock.h ****     ~DcBlock(){};
 1657              		.loc 10 14 5 view .LVU436
  14:../../DaisySP//Source/Utility/dcblock.h ****     ~DcBlock(){};
 1658              		.loc 10 14 5 is_stmt 0 view .LVU437
 1659              	.LBE635:
 1660              	.LBE634:
 1661              	.LBE639:
 1662              	.LBE642:
  23:../../DaisySP//Source/PhysicalModeling/PolyPluck.h **** {
 1663              		.loc 9 23 7 is_stmt 1 view .LVU438
 1664              	.LBB643:
 1665              	.LBB640:
   9:plinks.cpp    **** Metro			tick;
 1666              		.loc 11 9 15 is_stmt 0 view .LVU439
 1667 0014 0B4A     		ldr	r2, .L37+4
 1668 0016 0D49     		ldr	r1, .L37+12
 1669 0018 0D48     		ldr	r0, .L37+16
 1670 001a FFF7FEFF 		bl	__aeabi_atexit
 1671              	.LVL99:
 1672              	.LBB636:
 1673              	.LBI636:
  14:../../DaisySP//Source/Utility/metro.h ****     ~Metro() {}
 1674              		.loc 8 14 5 is_stmt 1 view .LVU440
  14:../../DaisySP//Source/Utility/metro.h ****     ~Metro() {}
 1675              		.loc 8 14 5 is_stmt 0 view .LVU441
 1676              	.LBE636:
  10:plinks.cpp    **** ReverbSc		rv;
 1677              		.loc 11 10 9 view .LVU442
 1678 001e 094A     		ldr	r2, .L37+4
 1679 0020 0C49     		ldr	r1, .L37+20
 1680 0022 0D48     		ldr	r0, .L37+24
 1681 0024 FFF7FEFF 		bl	__aeabi_atexit
 1682              	.LVL100:
 1683              	.LBB637:
 1684              	.LBI637:
  40:../../DaisySP//Source/Effects/reverbsc.h ****     ~ReverbSc() {}
 1685              		.loc 6 40 5 is_stmt 1 view .LVU443
  40:../../DaisySP//Source/Effects/reverbsc.h ****     ~ReverbSc() {}
 1686              		.loc 6 40 5 is_stmt 0 view .LVU444
 1687              	.LBE637:
  11:plinks.cpp    **** MoogLadder		ladder;
 1688              		.loc 11 11 11 view .LVU445
 1689 0028 064A     		ldr	r2, .L37+4
 1690 002a 0C49     		ldr	r1, .L37+28
ARM GAS  /var/folders/hl/qgbwny5j0fd895c2c41bk3tw0000gp/T//ccTphaKR.s 			page 60


 1691 002c 0C48     		ldr	r0, .L37+32
 1692 002e FFF7FEFF 		bl	__aeabi_atexit
 1693              	.LVL101:
 1694              	.LBB638:
 1695              	.LBI638:
  20:../../DaisySP//Source/Filters/moogladder.h ****     ~MoogLadder() {}
 1696              		.loc 7 20 5 is_stmt 1 view .LVU446
  20:../../DaisySP//Source/Filters/moogladder.h ****     ~MoogLadder() {}
 1697              		.loc 7 20 5 is_stmt 0 view .LVU447
 1698              	.LBE638:
  12:plinks.cpp    **** 
 1699              		.loc 11 12 13 view .LVU448
 1700 0032 044A     		ldr	r2, .L37+4
 1701 0034 0B49     		ldr	r1, .L37+36
 1702 0036 0C48     		ldr	r0, .L37+40
 1703              	.LBE640:
 1704              	.LBE643:
 1705              		.loc 11 97 1 view .LVU449
 1706 0038 BDE80840 		pop	{r3, lr}
 1707              		.cfi_restore 14
 1708              		.cfi_restore 3
 1709              		.cfi_def_cfa_offset 0
 1710              	.LBB644:
 1711              	.LBB641:
  12:plinks.cpp    **** 
 1712              		.loc 11 12 13 view .LVU450
 1713 003c FFF7FEBF 		b	__aeabi_atexit
 1714              	.LVL102:
 1715              	.L38:
 1716              		.align	2
 1717              	.L37:
 1718 0040 00000000 		.word	.LANCHOR0
 1719 0044 00000000 		.word	__dso_handle
 1720 0048 00000000 		.word	_ZN5daisy9DaisySeedD1Ev
 1721 004c 00000000 		.word	_ZN7daisysp9PolyPluckILj32EED1Ev
 1722 0050 00000000 		.word	pp
 1723 0054 00000000 		.word	_ZN7daisysp5MetroD1Ev
 1724 0058 00000000 		.word	.LANCHOR1
 1725 005c 00000000 		.word	_ZN7daisysp8ReverbScD1Ev
 1726 0060 00000000 		.word	rv
 1727 0064 00000000 		.word	_ZN7daisysp10MoogLadderD1Ev
 1728 0068 00000000 		.word	.LANCHOR2
 1729              	.LBE641:
 1730              	.LBE644:
 1731              		.cfi_endproc
 1732              	.LFE5359:
 1734              		.section	.init_array,"aw",%init_array
 1735              		.align	2
 1736 0000 00000000 		.word	_GLOBAL__sub_I_hw(target1)
 1737              		.global	arp_idx
 1738              		.global	ladder
 1739              		.global	rv
 1740              		.global	tick
 1741              		.global	pp
 1742              		.global	hw
 1743              		.section	.bss.arp_idx,"aw",%nobits
 1744              		.set	.LANCHOR3,. + 0
ARM GAS  /var/folders/hl/qgbwny5j0fd895c2c41bk3tw0000gp/T//ccTphaKR.s 			page 61


 1747              	arp_idx:
 1748 0000 00       		.space	1
 1749              		.section	.bss.hw,"aw",%nobits
 1750              		.align	2
 1751              		.set	.LANCHOR0,. + 0
 1754              	hw:
 1755 0000 00000000 		.space	60
 1755      00000000 
 1755      00000000 
 1755      00000000 
 1755      00000000 
 1756              		.section	.bss.ladder,"aw",%nobits
 1757              		.align	2
 1758              		.set	.LANCHOR2,. + 0
 1761              	ladder:
 1762 0000 00000000 		.space	68
 1762      00000000 
 1762      00000000 
 1762      00000000 
 1762      00000000 
 1763              		.section	.bss.pp,"aw",%nobits
 1764              		.align	2
 1767              	pp:
 1768 0000 00000000 		.space	34456
 1768      00000000 
 1768      00000000 
 1768      00000000 
 1768      00000000 
 1769              		.section	.bss.rv,"aw",%nobits
 1770              		.align	2
 1773              	rv:
 1774 0000 00000000 		.space	396100
 1774      00000000 
 1774      00000000 
 1774      00000000 
 1774      00000000 
 1775              		.section	.bss.tick,"aw",%nobits
 1776              		.align	2
 1777              		.set	.LANCHOR1,. + 0
 1780              	tick:
 1781 0000 00000000 		.space	16
 1781      00000000 
 1781      00000000 
 1781      00000000 
 1782              		.section	.rodata._ZL9kArpeggio,"a"
 1783              		.align	2
 1784              		.set	.LANCHOR4,. + 0
 1787              	_ZL9kArpeggio:
 1788 0000 00004042 		.word	1111490560
 1789 0004 00005042 		.word	1112539136
 1790 0008 00005C42 		.word	1113325568
 1791              		.text
 1792              	.Letext0:
 1793              		.file 17 "/opt/homebrew/Cellar/arm-none-eabi-gcc/10.3-2021.07/gcc/arm-none-eabi/include/machine/_d
 1794              		.file 18 "/opt/homebrew/Cellar/arm-none-eabi-gcc/10.3-2021.07/gcc/arm-none-eabi/include/sys/_stdin
 1795              		.file 19 "/opt/homebrew/Cellar/arm-none-eabi-gcc/10.3-2021.07/gcc/arm-none-eabi/include/stdint.h"
 1796              		.file 20 "/opt/homebrew/Cellar/arm-none-eabi-gcc/10.3-2021.07/gcc/lib/gcc/arm-none-eabi/10.3.1/inc
ARM GAS  /var/folders/hl/qgbwny5j0fd895c2c41bk3tw0000gp/T//ccTphaKR.s 			page 62


 1797              		.file 21 "/opt/homebrew/Cellar/arm-none-eabi-gcc/10.3-2021.07/gcc/arm-none-eabi/include/c++/10.3.1
 1798              		.file 22 "/opt/homebrew/Cellar/arm-none-eabi-gcc/10.3-2021.07/gcc/arm-none-eabi/include/c++/10.3.1
 1799              		.file 23 "/opt/homebrew/Cellar/arm-none-eabi-gcc/10.3-2021.07/gcc/arm-none-eabi/include/c++/10.3.1
 1800              		.file 24 "/opt/homebrew/Cellar/arm-none-eabi-gcc/10.3-2021.07/gcc/arm-none-eabi/include/c++/10.3.1
 1801              		.file 25 "/opt/homebrew/Cellar/arm-none-eabi-gcc/10.3-2021.07/gcc/arm-none-eabi/include/c++/10.3.1
 1802              		.file 26 "/opt/homebrew/Cellar/arm-none-eabi-gcc/10.3-2021.07/gcc/arm-none-eabi/include/c++/10.3.1
 1803              		.file 27 "/opt/homebrew/Cellar/arm-none-eabi-gcc/10.3-2021.07/gcc/arm-none-eabi/include/c++/10.3.1
 1804              		.file 28 "/opt/homebrew/Cellar/arm-none-eabi-gcc/10.3-2021.07/gcc/arm-none-eabi/include/c++/10.3.1
 1805              		.file 29 "/opt/homebrew/Cellar/arm-none-eabi-gcc/10.3-2021.07/gcc/arm-none-eabi/include/c++/10.3.1
 1806              		.file 30 "/opt/homebrew/Cellar/arm-none-eabi-gcc/10.3-2021.07/gcc/arm-none-eabi/include/c++/10.3.1
 1807              		.file 31 "/opt/homebrew/Cellar/arm-none-eabi-gcc/10.3-2021.07/gcc/arm-none-eabi/include/c++/10.3.1
 1808              		.file 32 "/opt/homebrew/Cellar/arm-none-eabi-gcc/10.3-2021.07/gcc/arm-none-eabi/include/c++/10.3.1
 1809              		.file 33 "/opt/homebrew/Cellar/arm-none-eabi-gcc/10.3-2021.07/gcc/arm-none-eabi/include/c++/10.3.1
 1810              		.file 34 "/opt/homebrew/Cellar/arm-none-eabi-gcc/10.3-2021.07/gcc/arm-none-eabi/include/c++/10.3.1
 1811              		.file 35 "/opt/homebrew/Cellar/arm-none-eabi-gcc/10.3-2021.07/gcc/arm-none-eabi/include/c++/10.3.1
 1812              		.file 36 "/opt/homebrew/Cellar/arm-none-eabi-gcc/10.3-2021.07/gcc/arm-none-eabi/include/c++/10.3.1
 1813              		.file 37 "/opt/homebrew/Cellar/arm-none-eabi-gcc/10.3-2021.07/gcc/arm-none-eabi/include/c++/10.3.1
 1814              		.file 38 "/opt/homebrew/Cellar/arm-none-eabi-gcc/10.3-2021.07/gcc/arm-none-eabi/include/c++/10.3.1
 1815              		.file 39 "/opt/homebrew/Cellar/arm-none-eabi-gcc/10.3-2021.07/gcc/arm-none-eabi/include/sys/_types
 1816              		.file 40 "/opt/homebrew/Cellar/arm-none-eabi-gcc/10.3-2021.07/gcc/arm-none-eabi/include/sys/reent.
 1817              		.file 41 "/opt/homebrew/Cellar/arm-none-eabi-gcc/10.3-2021.07/gcc/arm-none-eabi/include/sys/lock.h
 1818              		.file 42 "/opt/homebrew/Cellar/arm-none-eabi-gcc/10.3-2021.07/gcc/arm-none-eabi/include/math.h"
 1819              		.file 43 "/opt/homebrew/Cellar/arm-none-eabi-gcc/10.3-2021.07/gcc/arm-none-eabi/include/stdlib.h"
 1820              		.file 44 "/opt/homebrew/Cellar/arm-none-eabi-gcc/10.3-2021.07/gcc/arm-none-eabi/include/c++/10.3.1
 1821              		.file 45 "/opt/homebrew/Cellar/arm-none-eabi-gcc/10.3-2021.07/gcc/arm-none-eabi/include/c++/10.3.1
 1822              		.file 46 "../../libDaisy//src/per/tim.h"
 1823              		.file 47 "../../libDaisy//src/per/sai.h"
 1824              		.file 48 "../../libDaisy//src/util/wav_format.h"
 1825              		.file 49 "../../libDaisy//src/dev/max11300.h"
 1826              		.file 50 "../../libDaisy//src/per/gpio.h"
 1827              		.file 51 "../../libDaisy//src/dev/sdram.h"
 1828              		.file 52 "/opt/homebrew/Cellar/arm-none-eabi-gcc/10.3-2021.07/gcc/lib/gcc/arm-none-eabi/10.3.1/inc
 1829              		.file 53 "/opt/homebrew/Cellar/arm-none-eabi-gcc/10.3-2021.07/gcc/arm-none-eabi/include/stdio.h"
 1830              		.file 54 "/opt/homebrew/Cellar/arm-none-eabi-gcc/10.3-2021.07/gcc/arm-none-eabi/include/string.h"
 1831              		.file 55 "../../DaisySP//Source/Control/adenv.h"
 1832              		.file 56 "/opt/homebrew/Cellar/arm-none-eabi-gcc/10.3-2021.07/gcc/arm-none-eabi/include/wchar.h"
 1833              		.file 57 "/opt/homebrew/Cellar/arm-none-eabi-gcc/10.3-2021.07/gcc/arm-none-eabi/include/locale.h"
 1834              		.file 58 "../../libDaisy//src/dev/sr_595.h"
 1835              		.file 59 "<built-in>"
ARM GAS  /var/folders/hl/qgbwny5j0fd895c2c41bk3tw0000gp/T//ccTphaKR.s 			page 63

